MODULE Linux arm D4042B01EC2B75256A1ECE5D370FCCA30 libKODI_audioengine-arm.so
FUNC 346c 5c 0 _GLOBAL__sub_I_eh_globals.cc
FUNC 34c8 18 0 _GLOBAL__sub_I_eh_alloc.cc
FUNC 3514 44 0 CAddonAEStream::~CAddonAEStream
FUNC 3558 20 0 CAddonAEStream::GetSpace
FUNC 3578 38 0 CAddonAEStream::AddData
FUNC 35b0 20 0 CAddonAEStream::GetDelay
FUNC 35d0 20 0 CAddonAEStream::IsBuffering
FUNC 35f0 20 0 CAddonAEStream::GetCacheTime
FUNC 3610 20 0 CAddonAEStream::GetCacheTotal
FUNC 3630 20 0 CAddonAEStream::Pause
FUNC 3650 20 0 CAddonAEStream::Resume
FUNC 3670 1c 0 CAddonAEStream::Drain
FUNC 368c 20 0 CAddonAEStream::IsDraining
FUNC 36ac 20 0 CAddonAEStream::IsDrained
FUNC 36cc 20 0 CAddonAEStream::Flush
FUNC 36ec 20 0 CAddonAEStream::GetVolume
FUNC 370c 28 0 CAddonAEStream::SetVolume
FUNC 3734 20 0 CAddonAEStream::GetAmplification
FUNC 3754 28 0 CAddonAEStream::SetAmplification
FUNC 377c 20 0 CAddonAEStream::GetFrameSize
FUNC 379c 20 0 CAddonAEStream::GetChannelCount
FUNC 37bc 20 0 CAddonAEStream::GetSampleRate
FUNC 37dc 20 0 CAddonAEStream::GetEncodedSampleRate
FUNC 37fc 20 0 CAddonAEStream::GetDataFormat
FUNC 381c 20 0 CAddonAEStream::GetResampleRatio
FUNC 383c 18 0 CAddonAEStream::SetResampleRatio
FUNC 3854 20 0 CAddonAEStream::Discontinuity
FUNC 3874 1c 0 CAddonAEStream::~CAddonAEStream
FUNC 3890 8c 0 AudioEngine_register_me
FUNC 391c 20 0 AudioEngine_unregister_me
FUNC 393c 1c 0 AudioEngine_free_stream
FUNC 3958 28 0 AudioEngine_get_current_sink_Format
FUNC 3980 2c 0 CAddonAEStream::CAddonAEStream
FUNC 39ac e4 0 AudioEngine_make_stream
FUNC 3a90 44 0 read_sleb128
FUNC 3ad4 11c 0 read_encoded_value_with_base
FUNC 3bf0 74 0 base_of_encoded_value
FUNC 3c64 e0 0 parse_lsda_header
FUNC 3d44 668 0 __cxxabiv1::__gxx_personality_v0
FUNC 43ac 8 0 __cxxabiv1::__cxa_get_exception_ptr
FUNC 43b4 e0 0 __cxxabiv1::__cxa_begin_catch
FUNC 4494 d8 0 __cxxabiv1::__cxa_end_catch
FUNC 456c 18 0 std::uncaught_exception
FUNC 4584 a4 0 operator new
FUNC 4628 70 0 __cxxabiv1::__is_gxx_exception_class
FUNC 4698 2c 0 __cxa_call_terminate
FUNC 46c4 168 0 __cxa_call_unexpected
FUNC 482c 34 0 __eh_globals_init::~__eh_globals_init
FUNC 4860 3c 0 eh_globals_dtor
FUNC 489c 48 0 __cxxabiv1::__cxa_get_globals_fast
FUNC 48e4 90 0 __cxxabiv1::__cxa_get_globals
FUNC 4974 5c 0 __cxxabiv1::__class_type_info::__do_upcast
FUNC 49d0 14 0 __cxxabiv1::__class_type_info::__do_find_public_src
FUNC 49e4 28 0 __cxxabiv1::__class_type_info::~__class_type_info
FUNC 4a0c 1c 0 __cxxabiv1::__class_type_info::~__class_type_info
FUNC 4a28 2c 0 __cxxabiv1::__class_type_info::__do_upcast
FUNC 4a54 44 0 __cxxabiv1::__class_type_info::__do_catch
FUNC 4a98 78 0 __cxxabiv1::__class_type_info::__do_dyncast
FUNC 4b10 60 0 __gxx_exception_cleanup
FUNC 4b70 b8 0 __cxxabiv1::__cxa_throw
FUNC 4c28 b0 0 __cxxabiv1::__cxa_rethrow
FUNC 4cd8 18 0 std::exception::~exception
FUNC 4cf0 28 0 std::bad_exception::~bad_exception
FUNC 4d18 18 0 __cxxabiv1::__forced_unwind::~__forced_unwind
FUNC 4d30 18 0 __cxxabiv1::__foreign_exception::~__foreign_exception
FUNC 4d48 10 0 std::exception::what
FUNC 4d58 10 0 std::bad_exception::what
FUNC 4d68 1c 0 std::exception::~exception
FUNC 4d84 1c 0 std::bad_exception::~bad_exception
FUNC 4da0 1c 0 __cxxabiv1::__forced_unwind::~__forced_unwind
FUNC 4dbc 1c 0 __cxxabiv1::__foreign_exception::~__foreign_exception
FUNC 4dd8 c 0 operator delete
FUNC 4df4 144 0 __cxa_type_match
FUNC 4f38 b4 0 __cxa_begin_cleanup
FUNC 4fec b4 0 __gnu_end_cleanup
FUNC 50a0 34 0 __cxxabiv1::__terminate
FUNC 50d4 18 0 std::terminate
FUNC 50ec c 0 __cxxabiv1::__unexpected
FUNC 50f8 18 0 std::unexpected
FUNC 5110 1c 0 std::set_terminate
FUNC 512c 1c 0 std::set_unexpected
FUNC 5148 10 0 __gnu_cxx::__concurrence_lock_error::what
FUNC 5158 10 0 __gnu_cxx::__concurrence_unlock_error::what
FUNC 5168 28 0 __gnu_cxx::__concurrence_unlock_error::~__concurrence_unlock_error
FUNC 5190 28 0 __gnu_cxx::__concurrence_lock_error::~__concurrence_lock_error
FUNC 51b8 30 0 __gnu_cxx::__concurrence_unlock_error::~__concurrence_unlock_error
FUNC 51e8 30 0 __gnu_cxx::__concurrence_lock_error::~__concurrence_lock_error
FUNC 5218 3c 0 __gnu_cxx::__throw_concurrence_lock_error
FUNC 5254 3c 0 __gnu_cxx::__throw_concurrence_unlock_error
FUNC 5290 e0 0 __cxxabiv1::__cxa_allocate_exception
FUNC 5370 a0 0 __cxxabiv1::__cxa_free_exception
FUNC 5410 dc 0 __cxxabiv1::__cxa_allocate_dependent_exception
FUNC 54ec a8 0 __cxxabiv1::__cxa_free_dependent_exception
FUNC 5594 10 0 __aeabiv1::__aeabi_atexit
FUNC 55a4 1c 0 std::set_new_handler
FUNC 55c0 20 0 __cxxabiv1::__cxa_pure_virtual
FUNC 55e0 20 0 __cxxabiv1::__cxa_deleted_virtual
FUNC 5600 10 0 std::bad_alloc::what
FUNC 5610 28 0 std::bad_alloc::~bad_alloc
FUNC 5638 1c 0 std::bad_alloc::~bad_alloc
FUNC 5654 18 0 std::type_info::~type_info
FUNC 566c 8 0 std::type_info::__is_pointer_p
FUNC 5674 8 0 std::type_info::__is_function_p
FUNC 567c 8 0 std::type_info::__do_upcast
FUNC 5684 28 0 std::type_info::~type_info
FUNC 56ac 4c 0 std::type_info::operator==
FUNC 56f8 4 0 std::type_info::__do_catch
FUNC 56fc 28 0 __cxxabiv1::__si_class_type_info::~__si_class_type_info
FUNC 5724 1c 0 __cxxabiv1::__si_class_type_info::~__si_class_type_info
FUNC 5740 64 0 __cxxabiv1::__si_class_type_info::__do_find_public_src
FUNC 57a4 e0 0 __cxxabiv1::__si_class_type_info::__do_dyncast
FUNC 5884 40 0 __cxxabiv1::__si_class_type_info::__do_upcast
FUNC 58c4 1b4 0 __gnu_cxx::__verbose_terminate_handler
FUNC 5a78 1d0 0 d_make_comp
FUNC 5c48 6c 0 d_make_name
FUNC 5cb4 13c 0 d_cv_qualifiers
FUNC 5df0 58 0 d_ref_qualifier
FUNC 5e48 f4 0 d_clone_suffix
FUNC 5f3c 244 0 d_substitution
FUNC 6180 5c 0 d_append_char
FUNC 61dc 7c 0 d_number
FUNC 6258 60 0 d_number_component
FUNC 62b8 54 0 d_compact_number
FUNC 630c 80 0 d_template_param
FUNC 638c 34 0 d_discriminator
FUNC 63c0 f8 0 d_source_name
FUNC 64b8 9c 0 d_call_offset
FUNC 6554 88 0 d_lookup_template_argument
FUNC 65dc 19c 0 d_find_pack
FUNC 6778 cc 0 d_growable_string_callback_adapter
FUNC 6844 158 0 d_expr_primary
FUNC 699c 170 0 d_template_args
FUNC 6b0c 4b0 0 d_name
FUNC 6fbc b88 0 d_type
FUNC 7b44 108 0 d_parmlist
FUNC 7c4c 68 0 d_bare_function_type
FUNC 7cb4 874 0 d_encoding
FUNC 8528 194 0 d_operator_name
FUNC 86bc 468 0 d_unqualified_name
FUNC 8b24 61c 0 d_expression
FUNC 9140 ac 0 d_exprlist
FUNC 91ec 84 0 d_append_string
FUNC 9270 3554 0 d_print_comp
FUNC c7c4 20 0 d_print_comp
FUNC c7e4 778 0 d_print_mod
FUNC cf5c 398 0 d_print_mod_list
FUNC d2f4 264 0 d_print_array_type
FUNC d558 2d8 0 d_print_function_type
FUNC d830 238 0 d_print_cast
FUNC da68 a4 0 d_print_expr_op
FUNC db0c 110 0 d_print_subexpr
FUNC dc1c 31c 0 d_demangle_callback
FUNC df38 14c 0 __cxa_demangle
FUNC e084 2c 0 __gcclibcxx_demangle_callback
FUNC e0b0 2c 0 __cxxabiv1::__cxa_current_exception_type
FUNC e0dc 18 0 selfrel_offset31
FUNC e0f4 ac 0 search_EIT_table
FUNC e1a0 50 0 __gnu_unwind_get_pr_addr
FUNC e1f0 10c 0 get_eit_entry
FUNC e2fc 6c 0 restore_non_core_regs
FUNC e368 14 0 _Unwind_decode_typeinfo_ptr
FUNC e37c 8 0 __gnu_unwind_24bit
FUNC e384 4 0 _Unwind_DebugHook
FUNC e388 64 0 unwind_phase2
FUNC e3ec 124 0 unwind_phase2_forced
FUNC e510 8 0 _Unwind_GetCFA
FUNC e518 a4 0 __gnu_Unwind_RaiseException
FUNC e5bc 1c 0 __gnu_Unwind_ForcedUnwind
FUNC e5d8 74 0 __gnu_Unwind_Resume
FUNC e64c 20 0 __gnu_Unwind_Resume_or_Rethrow
FUNC e66c 4 0 _Unwind_Complete
FUNC e670 20 0 _Unwind_DeleteException
FUNC e690 5c 0 _Unwind_VRS_Get
FUNC e6ec 28 0 _Unwind_GetGR
FUNC e714 5c 0 _Unwind_VRS_Set
FUNC e770 2c 0 _Unwind_SetGR
FUNC e79c c4 0 __gnu_Unwind_Backtrace
FUNC e860 3f0 0 __gnu_unwind_pr_common
FUNC ec50 8 0 __aeabi_unwind_cpp_pr0
FUNC ec58 8 0 __aeabi_unwind_cpp_pr1
FUNC ec60 8 0 __aeabi_unwind_cpp_pr2
FUNC ec68 34c 0 _Unwind_VRS_Pop
FUNC f15c 60 0 next_unwind_byte
FUNC f1bc 28 0 _Unwind_GetGR
FUNC f1e4 4 0 unwind_UCB_from_context
FUNC f1e8 37c 0 __gnu_unwind_execute
FUNC f564 40 0 __gnu_unwind_frame
FUNC f5a4 10 0 _Unwind_GetRegionStart
FUNC f5b4 1c 0 _Unwind_GetLanguageSpecificData
FUNC f5d0 8 0 _Unwind_GetDataRelBase
FUNC f5d8 8 0 _Unwind_GetTextRelBase
PUBLIC 3514 0 CAddonAEStream::~CAddonAEStream()
PUBLIC 3558 0 CAddonAEStream::GetSpace()
PUBLIC 3578 0 CAddonAEStream::AddData(unsigned char* const*, unsigned int, unsigned int)
PUBLIC 35b0 0 CAddonAEStream::GetDelay()
PUBLIC 35d0 0 CAddonAEStream::IsBuffering()
PUBLIC 35f0 0 CAddonAEStream::GetCacheTime()
PUBLIC 3610 0 CAddonAEStream::GetCacheTotal()
PUBLIC 3630 0 CAddonAEStream::Pause()
PUBLIC 3650 0 CAddonAEStream::Resume()
PUBLIC 3670 0 CAddonAEStream::Drain(bool)
PUBLIC 368c 0 CAddonAEStream::IsDraining()
PUBLIC 36ac 0 CAddonAEStream::IsDrained()
PUBLIC 36cc 0 CAddonAEStream::Flush()
PUBLIC 36ec 0 CAddonAEStream::GetVolume()
PUBLIC 370c 0 CAddonAEStream::SetVolume(float)
PUBLIC 3734 0 CAddonAEStream::GetAmplification()
PUBLIC 3754 0 CAddonAEStream::SetAmplification(float)
PUBLIC 377c 0 CAddonAEStream::GetFrameSize() const
PUBLIC 379c 0 CAddonAEStream::GetChannelCount() const
PUBLIC 37bc 0 CAddonAEStream::GetSampleRate() const
PUBLIC 37dc 0 CAddonAEStream::GetEncodedSampleRate() const
PUBLIC 37fc 0 CAddonAEStream::GetDataFormat() const
PUBLIC 381c 0 CAddonAEStream::GetResampleRatio()
PUBLIC 383c 0 CAddonAEStream::SetResampleRatio(double)
PUBLIC 3854 0 CAddonAEStream::Discontinuity()
PUBLIC 3874 0 CAddonAEStream::~CAddonAEStream()
PUBLIC 3890 0 AudioEngine_register_me
PUBLIC 391c 0 AudioEngine_unregister_me
PUBLIC 393c 0 AudioEngine_free_stream
PUBLIC 3958 0 AudioEngine_get_current_sink_Format
PUBLIC 3980 0 CAddonAEStream::CAddonAEStream(void*, void*, void*)
PUBLIC 39ac 0 AudioEngine_make_stream
PUBLIC 43ac 0 __cxa_get_exception_ptr
PUBLIC 43b4 0 __cxa_begin_catch
PUBLIC 4494 0 __cxa_end_catch
PUBLIC 456c 0 std::uncaught_exception()
PUBLIC 4584 0 operator new(unsigned int)
PUBLIC 46c4 0 __cxa_call_unexpected
PUBLIC 489c 0 __cxa_get_globals_fast
PUBLIC 48e4 0 __cxa_get_globals
PUBLIC 4974 0 __cxxabiv1::__class_type_info::__do_upcast(__cxxabiv1::__class_type_info const*, void**) const
PUBLIC 49d0 0 __cxxabiv1::__class_type_info::__do_find_public_src(int, void const*, __cxxabiv1::__class_type_info const*, void const*) const
PUBLIC 49e4 0 __cxxabiv1::__class_type_info::~__class_type_info()
PUBLIC 4a0c 0 __cxxabiv1::__class_type_info::~__class_type_info()
PUBLIC 4a28 0 __cxxabiv1::__class_type_info::__do_upcast(__cxxabiv1::__class_type_info const*, void const*, __cxxabiv1::__class_type_info::__upcast_result&) const
PUBLIC 4a54 0 __cxxabiv1::__class_type_info::__do_catch(std::type_info const*, void**, unsigned int) const
PUBLIC 4a98 0 __cxxabiv1::__class_type_info::__do_dyncast(int, __cxxabiv1::__class_type_info::__sub_kind, __cxxabiv1::__class_type_info const*, void const*, __cxxabiv1::__class_type_info const*, void const*, __cxxabiv1::__class_type_info::__dyncast_result&) const
PUBLIC 4b70 0 __cxa_throw
PUBLIC 4c28 0 __cxa_rethrow
PUBLIC 4cd8 0 std::exception::~exception()
PUBLIC 4cf0 0 std::bad_exception::~bad_exception()
PUBLIC 4d18 0 __cxxabiv1::__forced_unwind::~__forced_unwind()
PUBLIC 4d30 0 __cxxabiv1::__foreign_exception::~__foreign_exception()
PUBLIC 4d48 0 std::exception::what() const
PUBLIC 4d58 0 std::bad_exception::what() const
PUBLIC 4d68 0 std::exception::~exception()
PUBLIC 4d84 0 std::bad_exception::~bad_exception()
PUBLIC 4da0 0 __cxxabiv1::__forced_unwind::~__forced_unwind()
PUBLIC 4dbc 0 __cxxabiv1::__foreign_exception::~__foreign_exception()
PUBLIC 4dd8 0 operator delete(void*)
PUBLIC 4de4 0 __cxa_end_cleanup
PUBLIC 4df4 0 __cxa_type_match
PUBLIC 4f38 0 __cxa_begin_cleanup
PUBLIC 4fec 0 __gnu_end_cleanup
PUBLIC 50a0 0 __cxxabiv1::__terminate(void (*)())
PUBLIC 50d4 0 std::terminate()
PUBLIC 50ec 0 __cxxabiv1::__unexpected(void (*)())
PUBLIC 50f8 0 std::unexpected()
PUBLIC 5110 0 std::set_terminate(void (*)())
PUBLIC 512c 0 std::set_unexpected(void (*)())
PUBLIC 5290 0 __cxa_allocate_exception
PUBLIC 5370 0 __cxa_free_exception
PUBLIC 5410 0 __cxa_allocate_dependent_exception
PUBLIC 54ec 0 __cxa_free_dependent_exception
PUBLIC 55a4 0 std::set_new_handler(void (*)())
PUBLIC 55c0 0 __cxa_pure_virtual
PUBLIC 55e0 0 __cxa_deleted_virtual
PUBLIC 5600 0 std::bad_alloc::what() const
PUBLIC 5610 0 std::bad_alloc::~bad_alloc()
PUBLIC 5638 0 std::bad_alloc::~bad_alloc()
PUBLIC 56fc 0 __cxxabiv1::__si_class_type_info::~__si_class_type_info()
PUBLIC 5724 0 __cxxabiv1::__si_class_type_info::~__si_class_type_info()
PUBLIC 5740 0 __cxxabiv1::__si_class_type_info::__do_find_public_src(int, void const*, __cxxabiv1::__class_type_info const*, void const*) const
PUBLIC 57a4 0 __cxxabiv1::__si_class_type_info::__do_dyncast(int, __cxxabiv1::__class_type_info::__sub_kind, __cxxabiv1::__class_type_info const*, void const*, __cxxabiv1::__class_type_info const*, void const*, __cxxabiv1::__class_type_info::__dyncast_result&) const
PUBLIC 5884 0 __cxxabiv1::__si_class_type_info::__do_upcast(__cxxabiv1::__class_type_info const*, void const*, __cxxabiv1::__class_type_info::__upcast_result&) const
PUBLIC 58c4 0 __gnu_cxx::__verbose_terminate_handler()
PUBLIC df38 0 __cxa_demangle
PUBLIC e084 0 __gcclibcxx_demangle_callback
PUBLIC e0b0 0 __cxa_current_exception_type
PUBLIC e510 0 _Unwind_GetCFA
PUBLIC e518 0 __gnu_Unwind_RaiseException
PUBLIC e5bc 0 __gnu_Unwind_ForcedUnwind
PUBLIC e5d8 0 __gnu_Unwind_Resume
PUBLIC e64c 0 __gnu_Unwind_Resume_or_Rethrow
PUBLIC e66c 0 _Unwind_Complete
PUBLIC e670 0 _Unwind_DeleteException
PUBLIC e690 0 _Unwind_VRS_Get
PUBLIC e714 0 _Unwind_VRS_Set
PUBLIC e79c 0 __gnu_Unwind_Backtrace
PUBLIC ec50 0 __aeabi_unwind_cpp_pr0
PUBLIC ec58 0 __aeabi_unwind_cpp_pr1
PUBLIC ec60 0 __aeabi_unwind_cpp_pr2
PUBLIC ec68 0 _Unwind_VRS_Pop
PUBLIC efb4 0 restore_core_regs
PUBLIC efc8 0 __gnu_Unwind_Restore_VFP
PUBLIC efd0 0 __gnu_Unwind_Save_VFP
PUBLIC efd8 0 __gnu_Unwind_Restore_VFP_D
PUBLIC efe0 0 __gnu_Unwind_Save_VFP_D
PUBLIC efe8 0 __gnu_Unwind_Restore_VFP_D_16_to_31
PUBLIC eff0 0 __gnu_Unwind_Save_VFP_D_16_to_31
PUBLIC eff8 0 __gnu_Unwind_Restore_WMMXD
PUBLIC f03c 0 __gnu_Unwind_Save_WMMXD
PUBLIC f080 0 __gnu_Unwind_Restore_WMMXC
PUBLIC f094 0 __gnu_Unwind_Save_WMMXC
PUBLIC f0a8 0 _Unwind_RaiseException
PUBLIC f0cc 0 _Unwind_Resume
PUBLIC f0f0 0 _Unwind_Resume_or_Rethrow
PUBLIC f114 0 ___Unwind_ForcedUnwind
PUBLIC f138 0 ___Unwind_Backtrace
PUBLIC f1e8 0 __gnu_unwind_execute
PUBLIC f564 0 __gnu_unwind_frame
PUBLIC f5a4 0 _Unwind_GetRegionStart
PUBLIC f5b4 0 _Unwind_GetLanguageSpecificData
PUBLIC f5d0 0 _Unwind_GetDataRelBase
PUBLIC f5d8 0 _Unwind_GetTextRelBase
STACK CFI INIT 3514 44 .cfa: sp 0 + .ra: lr
STACK CFI 3518 .cfa: sp 8 + .ra: .cfa -4 + ^ r4: .cfa -8 + ^
STACK CFI INIT 3558 20 .cfa: sp 0 + .ra: lr
STACK CFI 355c .cfa: sp 8 + .ra: .cfa -4 + ^ r3: .cfa -8 + ^
STACK CFI INIT 3578 38 .cfa: sp 0 + .ra: lr
STACK CFI 357c .cfa: sp 8 + .ra: .cfa -4 + ^ r4: .cfa -8 + ^
STACK CFI 3588 .cfa: sp 16 +
STACK CFI INIT 35b0 20 .cfa: sp 0 + .ra: lr
STACK CFI 35b4 .cfa: sp 8 + .ra: .cfa -4 + ^ r3: .cfa -8 + ^
STACK CFI INIT 35d0 20 .cfa: sp 0 + .ra: lr
STACK CFI 35d4 .cfa: sp 8 + .ra: .cfa -4 + ^ r3: .cfa -8 + ^
STACK CFI INIT 35f0 20 .cfa: sp 0 + .ra: lr
STACK CFI 35f4 .cfa: sp 8 + .ra: .cfa -4 + ^ r3: .cfa -8 + ^
STACK CFI INIT 3610 20 .cfa: sp 0 + .ra: lr
STACK CFI 3614 .cfa: sp 8 + .ra: .cfa -4 + ^ r3: .cfa -8 + ^
STACK CFI INIT 3630 20 .cfa: sp 0 + .ra: lr
STACK CFI 3634 .cfa: sp 8 + .ra: .cfa -4 + ^ r3: .cfa -8 + ^
STACK CFI INIT 3650 20 .cfa: sp 0 + .ra: lr
STACK CFI 3654 .cfa: sp 8 + .ra: .cfa -4 + ^ r3: .cfa -8 + ^
STACK CFI INIT 3670 1c .cfa: sp 0 + .ra: lr
STACK CFI 3674 .cfa: sp 8 + .ra: .cfa -4 + ^ r3: .cfa -8 + ^
STACK CFI INIT 368c 20 .cfa: sp 0 + .ra: lr
STACK CFI 3690 .cfa: sp 8 + .ra: .cfa -4 + ^ r3: .cfa -8 + ^
STACK CFI INIT 36ac 20 .cfa: sp 0 + .ra: lr
STACK CFI 36b0 .cfa: sp 8 + .ra: .cfa -4 + ^ r3: .cfa -8 + ^
STACK CFI INIT 36cc 20 .cfa: sp 0 + .ra: lr
STACK CFI 36d0 .cfa: sp 8 + .ra: .cfa -4 + ^ r3: .cfa -8 + ^
STACK CFI INIT 36ec 20 .cfa: sp 0 + .ra: lr
STACK CFI 36f0 .cfa: sp 8 + .ra: .cfa -4 + ^ r3: .cfa -8 + ^
STACK CFI INIT 370c 28 .cfa: sp 0 + .ra: lr
STACK CFI 3710 .cfa: sp 8 + .ra: .cfa -4 + ^ r3: .cfa -8 + ^
STACK CFI INIT 3734 20 .cfa: sp 0 + .ra: lr
STACK CFI 3738 .cfa: sp 8 + .ra: .cfa -4 + ^ r3: .cfa -8 + ^
STACK CFI INIT 3754 28 .cfa: sp 0 + .ra: lr
STACK CFI 3758 .cfa: sp 8 + .ra: .cfa -4 + ^ r3: .cfa -8 + ^
STACK CFI INIT 377c 20 .cfa: sp 0 + .ra: lr
STACK CFI 3780 .cfa: sp 8 + .ra: .cfa -4 + ^ r3: .cfa -8 + ^
STACK CFI INIT 379c 20 .cfa: sp 0 + .ra: lr
STACK CFI 37a0 .cfa: sp 8 + .ra: .cfa -4 + ^ r3: .cfa -8 + ^
STACK CFI INIT 37bc 20 .cfa: sp 0 + .ra: lr
STACK CFI 37c0 .cfa: sp 8 + .ra: .cfa -4 + ^ r3: .cfa -8 + ^
STACK CFI INIT 37dc 20 .cfa: sp 0 + .ra: lr
STACK CFI 37e0 .cfa: sp 8 + .ra: .cfa -4 + ^ r3: .cfa -8 + ^
STACK CFI INIT 37fc 20 .cfa: sp 0 + .ra: lr
STACK CFI 3800 .cfa: sp 8 + .ra: .cfa -4 + ^ r3: .cfa -8 + ^
STACK CFI INIT 381c 20 .cfa: sp 0 + .ra: lr
STACK CFI 3820 .cfa: sp 8 + .ra: .cfa -4 + ^ r3: .cfa -8 + ^
STACK CFI INIT 383c 18 .cfa: sp 0 + .ra: lr
STACK CFI 3840 .cfa: sp 8 + .ra: .cfa -4 + ^ r3: .cfa -8 + ^
STACK CFI INIT 3854 20 .cfa: sp 0 + .ra: lr
STACK CFI 3858 .cfa: sp 8 + .ra: .cfa -4 + ^ r3: .cfa -8 + ^
STACK CFI INIT 3874 1c .cfa: sp 0 + .ra: lr
STACK CFI 3878 .cfa: sp 8 + .ra: .cfa -4 + ^ r4: .cfa -8 + ^
STACK CFI INIT 3890 8c .cfa: sp 0 + .ra: lr
STACK CFI 3898 .cfa: sp 8 + .ra: .cfa -4 + ^ r4: .cfa -8 + ^
STACK CFI INIT 391c 20 .cfa: sp 0 + .ra: lr
STACK CFI 3928 .cfa: sp 8 + .ra: .cfa -4 + ^ r3: .cfa -8 + ^
STACK CFI INIT 393c 1c .cfa: sp 0 + .ra: lr
STACK CFI 3940 .cfa: sp 8 + .ra: .cfa -4 + ^ r3: .cfa -8 + ^
STACK CFI INIT 3958 28 .cfa: sp 0 + .ra: lr
STACK CFI 3960 .cfa: sp 8 + .ra: .cfa -4 + ^ r3: .cfa -8 + ^
STACK CFI INIT 3980 2c .cfa: sp 0 + .ra: lr
STACK CFI 3984 .cfa: sp 4 + r4: .cfa -4 + ^
STACK CFI INIT 39ac e4 .cfa: sp 0 + .ra: lr
STACK CFI 39b8 .cfa: sp 20 + .ra: .cfa -4 + ^ r4: .cfa -20 + ^ r5: .cfa -16 + ^ r6: .cfa -12 + ^ r7: .cfa -8 + ^
STACK CFI 39c0 .cfa: sp 32 +
STACK CFI INIT 3a90 44 .cfa: sp 0 + .ra: lr
STACK CFI 3a9c .cfa: sp 4 + r4: .cfa -4 + ^
STACK CFI INIT 3ad4 11c .cfa: sp 0 + .ra: lr
STACK CFI 3adc .cfa: sp 24 + .ra: .cfa -4 + ^ r4: .cfa -24 + ^ r5: .cfa -20 + ^ r6: .cfa -16 + ^ r7: .cfa -12 + ^ r8: .cfa -8 + ^
STACK CFI 3ae4 .cfa: sp 40 +
STACK CFI INIT 3bf0 74 .cfa: sp 0 + .ra: lr
STACK CFI 3bf8 .cfa: sp 8 + .ra: .cfa -4 + ^ r3: .cfa -8 + ^
STACK CFI INIT 3c64 e0 .cfa: sp 0 + .ra: lr
STACK CFI 3c68 .cfa: sp 24 + .ra: .cfa -4 + ^ r3: .cfa -24 + ^ r4: .cfa -20 + ^ r5: .cfa -16 + ^ r6: .cfa -12 + ^ r7: .cfa -8 + ^
STACK CFI INIT 3d44 668 .cfa: sp 0 + .ra: lr
STACK CFI 3d4c .cfa: sp 36 + .ra: .cfa -4 + ^ r10: .cfa -12 + ^ r11: .cfa -8 + ^ r4: .cfa -36 + ^ r5: .cfa -32 + ^ r6: .cfa -28 + ^ r7: .cfa -24 + ^ r8: .cfa -20 + ^ r9: .cfa -16 + ^
STACK CFI 3d54 .cfa: sp 128 +
STACK CFI INIT 43ac 8 .cfa: sp 0 + .ra: lr
STACK CFI INIT 43b4 e0 .cfa: sp 0 + .ra: lr
STACK CFI 43b8 .cfa: sp 8 + .ra: .cfa -4 + ^ r4: .cfa -8 + ^
STACK CFI INIT 4494 d8 .cfa: sp 0 + .ra: lr
STACK CFI 4498 .cfa: sp 8 + .ra: .cfa -4 + ^ r3: .cfa -8 + ^
STACK CFI INIT 456c 18 .cfa: sp 0 + .ra: lr
STACK CFI 4570 .cfa: sp 8 + .ra: .cfa -4 + ^ r3: .cfa -8 + ^
STACK CFI INIT 4584 a4 .cfa: sp 0 + .ra: lr
STACK CFI 458c .cfa: sp 16 + .ra: .cfa -4 + ^ r4: .cfa -16 + ^ r5: .cfa -12 + ^ r6: .cfa -8 + ^
STACK CFI INIT 4628 70 .cfa: sp 0 + .ra: lr
STACK CFI INIT 4698 2c .cfa: sp 0 + .ra: lr
STACK CFI 469c .cfa: sp 8 + .ra: .cfa -4 + ^ r4: .cfa -8 + ^
STACK CFI INIT 46c4 168 .cfa: sp 0 + .ra: lr
STACK CFI 46c8 .cfa: sp 36 + .ra: .cfa -4 + ^ r10: .cfa -12 + ^ r11: .cfa -8 + ^ r4: .cfa -36 + ^ r5: .cfa -32 + ^ r6: .cfa -28 + ^ r7: .cfa -24 + ^ r8: .cfa -20 + ^ r9: .cfa -16 + ^
STACK CFI 46cc .cfa: sp 64 +
STACK CFI INIT 482c 34 .cfa: sp 0 + .ra: lr
STACK CFI 4830 .cfa: sp 8 + .ra: .cfa -4 + ^ r4: .cfa -8 + ^
STACK CFI INIT 4860 3c .cfa: sp 0 + .ra: lr
STACK CFI 4864 .cfa: sp 16 + .ra: .cfa -4 + ^ r3: .cfa -16 + ^ r4: .cfa -12 + ^ r5: .cfa -8 + ^
STACK CFI INIT 489c 48 .cfa: sp 0 + .ra: lr
STACK CFI 48a0 .cfa: sp 8 + .ra: .cfa -4 + ^ r3: .cfa -8 + ^
STACK CFI INIT 48e4 90 .cfa: sp 0 + .ra: lr
STACK CFI 48ec .cfa: sp 8 + .ra: .cfa -4 + ^ r4: .cfa -8 + ^
STACK CFI INIT 346c 5c .cfa: sp 0 + .ra: lr
STACK CFI 3470 .cfa: sp 8 + .ra: .cfa -4 + ^ r4: .cfa -8 + ^
STACK CFI INIT 4974 5c .cfa: sp 0 + .ra: lr
STACK CFI 497c .cfa: sp 12 + .ra: .cfa -4 + ^ r4: .cfa -12 + ^ r5: .cfa -8 + ^
STACK CFI 4980 .cfa: sp 32 +
STACK CFI INIT 49d0 14 .cfa: sp 0 + .ra: lr
STACK CFI INIT 49e4 28 .cfa: sp 0 + .ra: lr
STACK CFI 49ec .cfa: sp 8 + .ra: .cfa -4 + ^ r4: .cfa -8 + ^
STACK CFI INIT 4a0c 1c .cfa: sp 0 + .ra: lr
STACK CFI 4a10 .cfa: sp 8 + .ra: .cfa -4 + ^ r4: .cfa -8 + ^
STACK CFI INIT 4a28 2c .cfa: sp 0 + .ra: lr
STACK CFI 4a2c .cfa: sp 16 + .ra: .cfa -4 + ^ r3: .cfa -16 + ^ r4: .cfa -12 + ^ r5: .cfa -8 + ^
STACK CFI INIT 4a54 44 .cfa: sp 0 + .ra: lr
STACK CFI 4a58 .cfa: sp 24 + .ra: .cfa -4 + ^ r3: .cfa -24 + ^ r4: .cfa -20 + ^ r5: .cfa -16 + ^ r6: .cfa -12 + ^ r7: .cfa -8 + ^
STACK CFI INIT 4a98 78 .cfa: sp 0 + .ra: lr
STACK CFI 4a9c .cfa: sp 16 + .ra: .cfa -4 + ^ r4: .cfa -16 + ^ r5: .cfa -12 + ^ r6: .cfa -8 + ^
STACK CFI 4aa0 .cfa: sp 24 +
STACK CFI INIT 4b10 60 .cfa: sp 0 + .ra: lr
STACK CFI 4b18 .cfa: sp 8 + .ra: .cfa -4 + ^ r4: .cfa -8 + ^
STACK CFI INIT 4b70 b8 .cfa: sp 0 + .ra: lr
STACK CFI 4b74 .cfa: sp 32 + .ra: .cfa -4 + ^ r3: .cfa -32 + ^ r4: .cfa -28 + ^ r5: .cfa -24 + ^ r6: .cfa -20 + ^ r7: .cfa -16 + ^ r8: .cfa -12 + ^ r9: .cfa -8 + ^
STACK CFI INIT 4c28 b0 .cfa: sp 0 + .ra: lr
STACK CFI 4c2c .cfa: sp 8 + .ra: .cfa -4 + ^ r4: .cfa -8 + ^
STACK CFI INIT 4cd8 18 .cfa: sp 0 + .ra: lr
STACK CFI INIT 4cf0 28 .cfa: sp 0 + .ra: lr
STACK CFI 4cf8 .cfa: sp 8 + .ra: .cfa -4 + ^ r4: .cfa -8 + ^
STACK CFI INIT 4d18 18 .cfa: sp 0 + .ra: lr
STACK CFI INIT 4d30 18 .cfa: sp 0 + .ra: lr
STACK CFI INIT 4d48 10 .cfa: sp 0 + .ra: lr
STACK CFI INIT 4d58 10 .cfa: sp 0 + .ra: lr
STACK CFI INIT 4d68 1c .cfa: sp 0 + .ra: lr
STACK CFI 4d6c .cfa: sp 8 + .ra: .cfa -4 + ^ r4: .cfa -8 + ^
STACK CFI INIT 4d84 1c .cfa: sp 0 + .ra: lr
STACK CFI 4d88 .cfa: sp 8 + .ra: .cfa -4 + ^ r4: .cfa -8 + ^
STACK CFI INIT 4da0 1c .cfa: sp 0 + .ra: lr
STACK CFI 4da4 .cfa: sp 8 + .ra: .cfa -4 + ^ r4: .cfa -8 + ^
STACK CFI INIT 4dbc 1c .cfa: sp 0 + .ra: lr
STACK CFI 4dc0 .cfa: sp 8 + .ra: .cfa -4 + ^ r4: .cfa -8 + ^
STACK CFI INIT 4dd8 c .cfa: sp 0 + .ra: lr
STACK CFI INIT 4df4 144 .cfa: sp 0 + .ra: lr
STACK CFI 4df8 .cfa: sp 20 + .ra: .cfa -4 + ^ r4: .cfa -20 + ^ r5: .cfa -16 + ^ r6: .cfa -12 + ^ r7: .cfa -8 + ^
STACK CFI 4e04 .cfa: sp 32 +
STACK CFI INIT 4f38 b4 .cfa: sp 0 + .ra: lr
STACK CFI 4f3c .cfa: sp 8 + .ra: .cfa -4 + ^ r4: .cfa -8 + ^
STACK CFI INIT 4fec b4 .cfa: sp 0 + .ra: lr
STACK CFI 4ff0 .cfa: sp 8 + .ra: .cfa -4 + ^ r3: .cfa -8 + ^
STACK CFI INIT 50a0 34 .cfa: sp 0 + .ra: lr
STACK CFI 50a4 .cfa: sp 8 + .ra: .cfa -4 + ^ r3: .cfa -8 + ^
STACK CFI INIT 50d4 18 .cfa: sp 0 + .ra: lr
STACK CFI 50d8 .cfa: sp 8 + .ra: .cfa -4 + ^ r3: .cfa -8 + ^
STACK CFI INIT 50ec c .cfa: sp 0 + .ra: lr
STACK CFI 50f0 .cfa: sp 8 + .ra: .cfa -4 + ^ r3: .cfa -8 + ^
STACK CFI INIT 50f8 18 .cfa: sp 0 + .ra: lr
STACK CFI 50fc .cfa: sp 8 + .ra: .cfa -4 + ^ r3: .cfa -8 + ^
STACK CFI INIT 5110 1c .cfa: sp 0 + .ra: lr
STACK CFI INIT 512c 1c .cfa: sp 0 + .ra: lr
STACK CFI INIT 5148 10 .cfa: sp 0 + .ra: lr
STACK CFI INIT 5158 10 .cfa: sp 0 + .ra: lr
STACK CFI INIT 5168 28 .cfa: sp 0 + .ra: lr
STACK CFI 5170 .cfa: sp 8 + .ra: .cfa -4 + ^ r4: .cfa -8 + ^
STACK CFI INIT 5190 28 .cfa: sp 0 + .ra: lr
STACK CFI 5198 .cfa: sp 8 + .ra: .cfa -4 + ^ r4: .cfa -8 + ^
STACK CFI INIT 51b8 30 .cfa: sp 0 + .ra: lr
STACK CFI 51c0 .cfa: sp 8 + .ra: .cfa -4 + ^ r4: .cfa -8 + ^
STACK CFI INIT 51e8 30 .cfa: sp 0 + .ra: lr
STACK CFI 51f0 .cfa: sp 8 + .ra: .cfa -4 + ^ r4: .cfa -8 + ^
STACK CFI INIT 5218 3c .cfa: sp 0 + .ra: lr
STACK CFI 521c .cfa: sp 8 + .ra: .cfa -4 + ^ r3: .cfa -8 + ^
STACK CFI INIT 5254 3c .cfa: sp 0 + .ra: lr
STACK CFI 5258 .cfa: sp 8 + .ra: .cfa -4 + ^ r3: .cfa -8 + ^
STACK CFI INIT 5290 e0 .cfa: sp 0 + .ra: lr
STACK CFI 5294 .cfa: sp 16 + .ra: .cfa -4 + ^ r3: .cfa -16 + ^ r4: .cfa -12 + ^ r5: .cfa -8 + ^
STACK CFI INIT 5370 a0 .cfa: sp 0 + .ra: lr
STACK CFI 5378 .cfa: sp 8 + .ra: .cfa -4 + ^ r4: .cfa -8 + ^
STACK CFI INIT 5410 dc .cfa: sp 0 + .ra: lr
STACK CFI 5414 .cfa: sp 8 + .ra: .cfa -4 + ^ r4: .cfa -8 + ^
STACK CFI INIT 54ec a8 .cfa: sp 0 + .ra: lr
STACK CFI 54f4 .cfa: sp 8 + .ra: .cfa -4 + ^ r4: .cfa -8 + ^
STACK CFI INIT 34c8 18 .cfa: sp 0 + .ra: lr
STACK CFI INIT 5594 10 .cfa: sp 0 + .ra: lr
STACK CFI INIT 55a4 1c .cfa: sp 0 + .ra: lr
STACK CFI INIT 55c0 20 .cfa: sp 0 + .ra: lr
STACK CFI 55cc .cfa: sp 8 + .ra: .cfa -4 + ^ r3: .cfa -8 + ^
STACK CFI INIT 55e0 20 .cfa: sp 0 + .ra: lr
STACK CFI 55ec .cfa: sp 8 + .ra: .cfa -4 + ^ r3: .cfa -8 + ^
STACK CFI INIT 5600 10 .cfa: sp 0 + .ra: lr
STACK CFI INIT 5610 28 .cfa: sp 0 + .ra: lr
STACK CFI 5618 .cfa: sp 8 + .ra: .cfa -4 + ^ r4: .cfa -8 + ^
STACK CFI INIT 5638 1c .cfa: sp 0 + .ra: lr
STACK CFI 563c .cfa: sp 8 + .ra: .cfa -4 + ^ r4: .cfa -8 + ^
STACK CFI INIT 5654 18 .cfa: sp 0 + .ra: lr
STACK CFI INIT 566c 8 .cfa: sp 0 + .ra: lr
STACK CFI INIT 5674 8 .cfa: sp 0 + .ra: lr
STACK CFI INIT 567c 8 .cfa: sp 0 + .ra: lr
STACK CFI INIT 5684 28 .cfa: sp 0 + .ra: lr
STACK CFI 568c .cfa: sp 8 + .ra: .cfa -4 + ^ r4: .cfa -8 + ^
STACK CFI INIT 56ac 4c .cfa: sp 0 + .ra: lr
STACK CFI 56b4 .cfa: sp 8 + .ra: .cfa -4 + ^ r3: .cfa -8 + ^
STACK CFI INIT 56f8 4 .cfa: sp 0 + .ra: lr
STACK CFI INIT 56fc 28 .cfa: sp 0 + .ra: lr
STACK CFI 5704 .cfa: sp 8 + .ra: .cfa -4 + ^ r4: .cfa -8 + ^
STACK CFI INIT 5724 1c .cfa: sp 0 + .ra: lr
STACK CFI 5728 .cfa: sp 8 + .ra: .cfa -4 + ^ r4: .cfa -8 + ^
STACK CFI INIT 5740 64 .cfa: sp 0 + .ra: lr
STACK CFI 5744 .cfa: sp 16 + .ra: .cfa -4 + ^ r4: .cfa -16 + ^ r5: .cfa -12 + ^ r6: .cfa -8 + ^
STACK CFI 5748 .cfa: sp 32 +
STACK CFI INIT 57a4 e0 .cfa: sp 0 + .ra: lr
STACK CFI 57a8 .cfa: sp 36 + .ra: .cfa -4 + ^ r10: .cfa -12 + ^ r11: .cfa -8 + ^ r4: .cfa -36 + ^ r5: .cfa -32 + ^ r6: .cfa -28 + ^ r7: .cfa -24 + ^ r8: .cfa -20 + ^ r9: .cfa -16 + ^
STACK CFI 57ac .cfa: sp 56 +
STACK CFI INIT 5884 40 .cfa: sp 0 + .ra: lr
STACK CFI 5888 .cfa: sp 24 + .ra: .cfa -4 + ^ r3: .cfa -24 + ^ r4: .cfa -20 + ^ r5: .cfa -16 + ^ r6: .cfa -12 + ^ r7: .cfa -8 + ^
STACK CFI INIT 58c4 1b4 .cfa: sp 0 + .ra: lr
STACK CFI 58cc .cfa: sp 20 + .ra: .cfa -4 + ^ r4: .cfa -20 + ^ r5: .cfa -16 + ^ r6: .cfa -12 + ^ r7: .cfa -8 + ^
STACK CFI 58d8 .cfa: sp 32 +
STACK CFI INIT 5a78 1d0 .cfa: sp 0 + .ra: lr
STACK CFI 5a80 .cfa: sp 12 + r4: .cfa -12 + ^ r5: .cfa -8 + ^ r6: .cfa -4 + ^
STACK CFI INIT 5c48 6c .cfa: sp 0 + .ra: lr
STACK CFI 5c54 .cfa: sp 12 + r4: .cfa -12 + ^ r5: .cfa -8 + ^ r6: .cfa -4 + ^
STACK CFI INIT 5cb4 13c .cfa: sp 0 + .ra: lr
STACK CFI 5cb8 .cfa: sp 32 + .ra: .cfa -4 + ^ r3: .cfa -32 + ^ r4: .cfa -28 + ^ r5: .cfa -24 + ^ r6: .cfa -20 + ^ r7: .cfa -16 + ^ r8: .cfa -12 + ^ r9: .cfa -8 + ^
STACK CFI INIT 5df0 58 .cfa: sp 0 + .ra: lr
STACK CFI INIT 5e48 f4 .cfa: sp 0 + .ra: lr
STACK CFI 5e4c .cfa: sp 24 + .ra: .cfa -4 + ^ r4: .cfa -24 + ^ r5: .cfa -20 + ^ r6: .cfa -16 + ^ r7: .cfa -12 + ^ r8: .cfa -8 + ^
STACK CFI INIT 5f3c 244 .cfa: sp 0 + .ra: lr
STACK CFI 5f44 .cfa: sp 24 + r4: .cfa -24 + ^ r5: .cfa -20 + ^ r6: .cfa -16 + ^ r7: .cfa -12 + ^ r8: .cfa -8 + ^ r9: .cfa -4 + ^
STACK CFI INIT 6180 5c .cfa: sp 0 + .ra: lr
STACK CFI 6188 .cfa: sp 16 + .ra: .cfa -4 + ^ r4: .cfa -16 + ^ r5: .cfa -12 + ^ r6: .cfa -8 + ^
STACK CFI INIT 61dc 7c .cfa: sp 0 + .ra: lr
STACK CFI 61e4 .cfa: sp 8 + r4: .cfa -8 + ^ r5: .cfa -4 + ^
STACK CFI INIT 6258 60 .cfa: sp 0 + .ra: lr
STACK CFI 6264 .cfa: sp 8 + .ra: .cfa -4 + ^ r4: .cfa -8 + ^
STACK CFI INIT 62b8 54 .cfa: sp 0 + .ra: lr
STACK CFI 62c0 .cfa: sp 8 + .ra: .cfa -4 + ^ r4: .cfa -8 + ^
STACK CFI INIT 630c 80 .cfa: sp 0 + .ra: lr
STACK CFI 6310 .cfa: sp 16 + .ra: .cfa -4 + ^ r3: .cfa -16 + ^ r4: .cfa -12 + ^ r5: .cfa -8 + ^
STACK CFI INIT 638c 34 .cfa: sp 0 + .ra: lr
STACK CFI 6390 .cfa: sp 8 + .ra: .cfa -4 + ^ r3: .cfa -8 + ^
STACK CFI INIT 63c0 f8 .cfa: sp 0 + .ra: lr
STACK CFI 63c4 .cfa: sp 16 + .ra: .cfa -4 + ^ r4: .cfa -16 + ^ r5: .cfa -12 + ^ r6: .cfa -8 + ^
STACK CFI INIT 64b8 9c .cfa: sp 0 + .ra: lr
STACK CFI 64c0 .cfa: sp 16 + .ra: .cfa -4 + ^ r3: .cfa -16 + ^ r4: .cfa -12 + ^ r5: .cfa -8 + ^
STACK CFI INIT 6554 88 .cfa: sp 0 + .ra: lr
STACK CFI INIT 65dc 19c .cfa: sp 0 + .ra: lr
STACK CFI 65e0 .cfa: sp 16 + .ra: .cfa -4 + ^ r3: .cfa -16 + ^ r4: .cfa -12 + ^ r5: .cfa -8 + ^
STACK CFI INIT 6778 cc .cfa: sp 0 + .ra: lr
STACK CFI 6780 .cfa: sp 24 + .ra: .cfa -4 + ^ r4: .cfa -24 + ^ r5: .cfa -20 + ^ r6: .cfa -16 + ^ r7: .cfa -12 + ^ r8: .cfa -8 + ^
STACK CFI INIT 6844 158 .cfa: sp 0 + .ra: lr
STACK CFI 6848 .cfa: sp 24 + .ra: .cfa -4 + ^ r3: .cfa -24 + ^ r4: .cfa -20 + ^ r5: .cfa -16 + ^ r6: .cfa -12 + ^ r7: .cfa -8 + ^
STACK CFI INIT 699c 170 .cfa: sp 0 + .ra: lr
STACK CFI 69a4 .cfa: sp 16 + .ra: .cfa -4 + ^ r4: .cfa -16 + ^ r5: .cfa -12 + ^ r6: .cfa -8 + ^
STACK CFI 69ac .cfa: sp 24 +
STACK CFI INIT 6b0c 4b0 .cfa: sp 0 + .ra: lr
STACK CFI 6b14 .cfa: sp 24 + .ra: .cfa -4 + ^ r4: .cfa -24 + ^ r5: .cfa -20 + ^ r6: .cfa -16 + ^ r7: .cfa -12 + ^ r8: .cfa -8 + ^
STACK CFI 6b1c .cfa: sp 32 +
STACK CFI INIT 6fbc b88 .cfa: sp 0 + .ra: lr
STACK CFI 6fc4 .cfa: sp 20 + .ra: .cfa -4 + ^ r4: .cfa -20 + ^ r5: .cfa -16 + ^ r6: .cfa -12 + ^ r7: .cfa -8 + ^
STACK CFI 6fcc .cfa: sp 32 +
STACK CFI INIT 7b44 108 .cfa: sp 0 + .ra: lr
STACK CFI 7b4c .cfa: sp 12 + .ra: .cfa -4 + ^ r4: .cfa -12 + ^ r5: .cfa -8 + ^
STACK CFI 7b54 .cfa: sp 24 +
STACK CFI INIT 7c4c 68 .cfa: sp 0 + .ra: lr
STACK CFI 7c54 .cfa: sp 16 + .ra: .cfa -4 + ^ r4: .cfa -16 + ^ r5: .cfa -12 + ^ r6: .cfa -8 + ^
STACK CFI INIT 7cb4 874 .cfa: sp 0 + .ra: lr
STACK CFI 7cbc .cfa: sp 32 + .ra: .cfa -4 + ^ r10: .cfa -8 + ^ r4: .cfa -32 + ^ r5: .cfa -28 + ^ r6: .cfa -24 + ^ r7: .cfa -20 + ^ r8: .cfa -16 + ^ r9: .cfa -12 + ^
STACK CFI INIT 8528 194 .cfa: sp 0 + .ra: lr
STACK CFI 8530 .cfa: sp 24 + .ra: .cfa -4 + ^ r4: .cfa -24 + ^ r5: .cfa -20 + ^ r6: .cfa -16 + ^ r7: .cfa -12 + ^ r8: .cfa -8 + ^
STACK CFI INIT 86bc 468 .cfa: sp 0 + .ra: lr
STACK CFI 86c4 .cfa: sp 24 + .ra: .cfa -4 + ^ r4: .cfa -24 + ^ r5: .cfa -20 + ^ r6: .cfa -16 + ^ r7: .cfa -12 + ^ r8: .cfa -8 + ^
STACK CFI INIT 8b24 61c .cfa: sp 0 + .ra: lr
STACK CFI 8b2c .cfa: sp 24 + .ra: .cfa -4 + ^ r4: .cfa -24 + ^ r5: .cfa -20 + ^ r6: .cfa -16 + ^ r7: .cfa -12 + ^ r8: .cfa -8 + ^
STACK CFI INIT 9140 ac .cfa: sp 0 + .ra: lr
STACK CFI 9148 .cfa: sp 16 + .ra: .cfa -4 + ^ r4: .cfa -16 + ^ r5: .cfa -12 + ^ r6: .cfa -8 + ^
STACK CFI 9154 .cfa: sp 24 +
STACK CFI INIT 91ec 84 .cfa: sp 0 + .ra: lr
STACK CFI 91f0 .cfa: sp 24 + .ra: .cfa -4 + ^ r4: .cfa -24 + ^ r5: .cfa -20 + ^ r6: .cfa -16 + ^ r7: .cfa -12 + ^ r8: .cfa -8 + ^
STACK CFI INIT 9270 3554 .cfa: sp 0 + .ra: lr
STACK CFI 9278 .cfa: sp 36 + .ra: .cfa -4 + ^ r10: .cfa -12 + ^ r11: .cfa -8 + ^ r4: .cfa -36 + ^ r5: .cfa -32 + ^ r6: .cfa -28 + ^ r7: .cfa -24 + ^ r8: .cfa -20 + ^ r9: .cfa -16 + ^
STACK CFI 9280 .cfa: sp 128 +
STACK CFI INIT c7c4 20 .cfa: sp 0 + .ra: lr
STACK CFI INIT c7e4 778 .cfa: sp 0 + .ra: lr
STACK CFI c7ec .cfa: sp 32 + .ra: .cfa -4 + ^ r10: .cfa -8 + ^ r4: .cfa -32 + ^ r5: .cfa -28 + ^ r6: .cfa -24 + ^ r7: .cfa -20 + ^ r8: .cfa -16 + ^ r9: .cfa -12 + ^
STACK CFI INIT cf5c 398 .cfa: sp 0 + .ra: lr
STACK CFI cf60 .cfa: sp 36 + .ra: .cfa -4 + ^ r10: .cfa -12 + ^ r11: .cfa -8 + ^ r4: .cfa -36 + ^ r5: .cfa -32 + ^ r6: .cfa -28 + ^ r7: .cfa -24 + ^ r8: .cfa -20 + ^ r9: .cfa -16 + ^
STACK CFI cf68 .cfa: sp 72 +
STACK CFI INIT d2f4 264 .cfa: sp 0 + .ra: lr
STACK CFI d2f8 .cfa: sp 40 + .ra: .cfa -4 + ^ r10: .cfa -12 + ^ r11: .cfa -8 + ^ r3: .cfa -40 + ^ r4: .cfa -36 + ^ r5: .cfa -32 + ^ r6: .cfa -28 + ^ r7: .cfa -24 + ^ r8: .cfa -20 + ^ r9: .cfa -16 + ^
STACK CFI INIT d558 2d8 .cfa: sp 0 + .ra: lr
STACK CFI d55c .cfa: sp 32 + .ra: .cfa -4 + ^ r3: .cfa -32 + ^ r4: .cfa -28 + ^ r5: .cfa -24 + ^ r6: .cfa -20 + ^ r7: .cfa -16 + ^ r8: .cfa -12 + ^ r9: .cfa -8 + ^
STACK CFI INIT d830 238 .cfa: sp 0 + .ra: lr
STACK CFI d834 .cfa: sp 24 + .ra: .cfa -4 + ^ r4: .cfa -24 + ^ r5: .cfa -20 + ^ r6: .cfa -16 + ^ r7: .cfa -12 + ^ r8: .cfa -8 + ^
STACK CFI d840 .cfa: sp 32 +
STACK CFI INIT da68 a4 .cfa: sp 0 + .ra: lr
STACK CFI da70 .cfa: sp 32 + .ra: .cfa -4 + ^ r3: .cfa -32 + ^ r4: .cfa -28 + ^ r5: .cfa -24 + ^ r6: .cfa -20 + ^ r7: .cfa -16 + ^ r8: .cfa -12 + ^ r9: .cfa -8 + ^
STACK CFI INIT db0c 110 .cfa: sp 0 + .ra: lr
STACK CFI db10 .cfa: sp 24 + .ra: .cfa -4 + ^ r3: .cfa -24 + ^ r4: .cfa -20 + ^ r5: .cfa -16 + ^ r6: .cfa -12 + ^ r7: .cfa -8 + ^
STACK CFI INIT dc1c 31c .cfa: sp 0 + .ra: lr
STACK CFI dc20 .cfa: sp 32 + .ra: .cfa -4 + ^ r11: .cfa -8 + ^ r4: .cfa -32 + ^ r5: .cfa -28 + ^ r6: .cfa -24 + ^ r7: .cfa -20 + ^ r8: .cfa -16 + ^ r9: .cfa -12 + ^
STACK CFI dc24 .cfa: r11 4 +
STACK CFI INIT df38 14c .cfa: sp 0 + .ra: lr
STACK CFI df40 .cfa: sp 24 + .ra: .cfa -4 + ^ r4: .cfa -24 + ^ r5: .cfa -20 + ^ r6: .cfa -16 + ^ r7: .cfa -12 + ^ r8: .cfa -8 + ^
STACK CFI df48 .cfa: sp 40 +
STACK CFI INIT e084 2c .cfa: sp 0 + .ra: lr
STACK CFI e090 .cfa: sp 8 + .ra: .cfa -4 + ^ r3: .cfa -8 + ^
STACK CFI INIT e0b0 2c .cfa: sp 0 + .ra: lr
STACK CFI e0b4 .cfa: sp 8 + .ra: .cfa -4 + ^ r3: .cfa -8 + ^
STACK CFI INIT e0dc 18 .cfa: sp 0 + .ra: lr
STACK CFI INIT e0f4 ac .cfa: sp 0 + .ra: lr
STACK CFI e0f8 .cfa: sp 48 + .ra: .cfa -4 + ^ r0: .cfa -48 + ^ r1: .cfa -44 + ^ r10: .cfa -12 + ^ r11: .cfa -8 + ^ r2: .cfa -40 + ^ r4: .cfa -36 + ^ r5: .cfa -32 + ^ r6: .cfa -28 + ^ r7: .cfa -24 + ^ r8: .cfa -20 + ^ r9: .cfa -16 + ^
STACK CFI INIT e1a0 50 .cfa: sp 0 + .ra: lr
STACK CFI INIT e1f0 10c .cfa: sp 0 + .ra: lr
STACK CFI e1f8 .cfa: sp 24 + .ra: .cfa -4 + ^ r0: .cfa -24 + ^ r1: .cfa -20 + ^ r2: .cfa -16 + ^ r4: .cfa -12 + ^ r5: .cfa -8 + ^
STACK CFI INIT e2fc 6c .cfa: sp 0 + .ra: lr
STACK CFI e304 .cfa: sp 8 + .ra: .cfa -4 + ^ r4: .cfa -8 + ^
STACK CFI INIT e368 14 .cfa: sp 0 + .ra: lr
STACK CFI INIT e37c 8 .cfa: sp 0 + .ra: lr
STACK CFI INIT e384 4 .cfa: sp 0 + .ra: lr
STACK CFI INIT e388 64 .cfa: sp 0 + .ra: lr
STACK CFI e38c .cfa: sp 16 + .ra: .cfa -4 + ^ r4: .cfa -16 + ^ r5: .cfa -12 + ^ r6: .cfa -8 + ^
STACK CFI INIT e3ec 124 .cfa: sp 0 + .ra: lr
STACK CFI e3f0 .cfa: sp 36 + .ra: .cfa -4 + ^ r10: .cfa -12 + ^ r11: .cfa -8 + ^ r4: .cfa -36 + ^ r5: .cfa -32 + ^ r6: .cfa -28 + ^ r7: .cfa -24 + ^ r8: .cfa -20 + ^ r9: .cfa -16 + ^
STACK CFI e40c .cfa: sp 1008 +
STACK CFI INIT e510 8 .cfa: sp 0 + .ra: lr
STACK CFI INIT e518 a4 .cfa: sp 0 + .ra: lr
STACK CFI e520 .cfa: sp 20 + .ra: .cfa -4 + ^ r4: .cfa -20 + ^ r5: .cfa -16 + ^ r6: .cfa -12 + ^ r7: .cfa -8 + ^
STACK CFI e534 .cfa: sp 504 +
STACK CFI INIT e5bc 1c .cfa: sp 0 + .ra: lr
STACK CFI INIT e5d8 74 .cfa: sp 0 + .ra: lr
STACK CFI e5dc .cfa: sp 16 + .ra: .cfa -4 + ^ r4: .cfa -16 + ^ r5: .cfa -12 + ^ r6: .cfa -8 + ^
STACK CFI INIT e64c 20 .cfa: sp 0 + .ra: lr
STACK CFI INIT e66c 4 .cfa: sp 0 + .ra: lr
STACK CFI INIT e670 20 .cfa: sp 0 + .ra: lr
STACK CFI e674 .cfa: sp 8 + .ra: .cfa -4 + ^ r3: .cfa -8 + ^
STACK CFI INIT e690 5c .cfa: sp 0 + .ra: lr
STACK CFI INIT e6ec 28 .cfa: sp 0 + .ra: lr
STACK CFI e6f0 .cfa: sp 24 + .ra: .cfa -4 + ^ r0: .cfa -24 + ^ r1: .cfa -20 + ^ r2: .cfa -16 + ^ r3: .cfa -12 + ^ r4: .cfa -8 + ^
STACK CFI INIT e714 5c .cfa: sp 0 + .ra: lr
STACK CFI INIT e770 2c .cfa: sp 0 + .ra: lr
STACK CFI e774 .cfa: sp 24 + .ra: .cfa -4 + ^ r0: .cfa -24 + ^ r1: .cfa -20 + ^ r2: .cfa -16 + ^ r3: .cfa -12 + ^ r4: .cfa -8 + ^
STACK CFI INIT e79c c4 .cfa: sp 0 + .ra: lr
STACK CFI e7a4 .cfa: sp 24 + .ra: .cfa -4 + ^ r4: .cfa -24 + ^ r5: .cfa -20 + ^ r6: .cfa -16 + ^ r7: .cfa -12 + ^ r8: .cfa -8 + ^
STACK CFI e7b8 .cfa: sp 592 +
STACK CFI INIT e860 3f0 .cfa: sp 0 + .ra: lr
STACK CFI e864 .cfa: sp 36 + .ra: .cfa -4 + ^ r10: .cfa -12 + ^ r11: .cfa -8 + ^ r4: .cfa -36 + ^ r5: .cfa -32 + ^ r6: .cfa -28 + ^ r7: .cfa -24 + ^ r8: .cfa -20 + ^ r9: .cfa -16 + ^
STACK CFI e870 .cfa: sp 72 +
STACK CFI INIT ec50 8 .cfa: sp 0 + .ra: lr
STACK CFI INIT ec58 8 .cfa: sp 0 + .ra: lr
STACK CFI INIT ec60 8 .cfa: sp 0 + .ra: lr
STACK CFI INIT ec68 34c .cfa: sp 0 + .ra: lr
STACK CFI ec6c .cfa: sp 28 + .ra: .cfa -4 + ^ r4: .cfa -28 + ^ r5: .cfa -24 + ^ r6: .cfa -20 + ^ r7: .cfa -16 + ^ r8: .cfa -12 + ^ r9: .cfa -8 + ^
STACK CFI ec74 .cfa: sp 296 +
STACK CFI INIT f15c 60 .cfa: sp 0 + .ra: lr
STACK CFI INIT f1bc 28 .cfa: sp 0 + .ra: lr
STACK CFI f1c0 .cfa: sp 24 + .ra: .cfa -4 + ^ r0: .cfa -24 + ^ r1: .cfa -20 + ^ r2: .cfa -16 + ^ r3: .cfa -12 + ^ r4: .cfa -8 + ^
STACK CFI INIT f1e4 4 .cfa: sp 0 + .ra: lr
STACK CFI INIT f1e8 37c .cfa: sp 0 + .ra: lr
STACK CFI f1ec .cfa: sp 48 + .ra: .cfa -4 + ^ r0: .cfa -48 + ^ r1: .cfa -44 + ^ r10: .cfa -8 + ^ r2: .cfa -40 + ^ r3: .cfa -36 + ^ r4: .cfa -32 + ^ r5: .cfa -28 + ^ r6: .cfa -24 + ^ r7: .cfa -20 + ^ r8: .cfa -16 + ^ r9: .cfa -12 + ^
STACK CFI INIT f564 40 .cfa: sp 0 + .ra: lr
STACK CFI f568 .cfa: sp 24 + .ra: .cfa -4 + ^ r0: .cfa -24 + ^ r1: .cfa -20 + ^ r2: .cfa -16 + ^ r3: .cfa -12 + ^ r4: .cfa -8 + ^
STACK CFI INIT f5a4 10 .cfa: sp 0 + .ra: lr
STACK CFI f5a8 .cfa: sp 8 + .ra: .cfa -4 + ^ r3: .cfa -8 + ^
STACK CFI INIT f5b4 1c .cfa: sp 0 + .ra: lr
STACK CFI f5b8 .cfa: sp 8 + .ra: .cfa -4 + ^ r3: .cfa -8 + ^
STACK CFI INIT f5d0 8 .cfa: sp 0 + .ra: lr
STACK CFI f5d4 .cfa: sp 8 + .ra: .cfa -4 + ^ r3: .cfa -8 + ^
STACK CFI INIT f5d8 8 .cfa: sp 0 + .ra: lr
STACK CFI f5dc .cfa: sp 8 + .ra: .cfa -4 + ^ r3: .cfa -8 + ^
