MODULE Linux arm 03311D3FD12A8FE77CD194593A59577D0 lib_imaging.so
FUNC 5dee4 18 0 selfrel_offset31
FUNC 5defc ac 0 search_EIT_table
FUNC 5dfa8 50 0 __gnu_unwind_get_pr_addr
FUNC 5dff8 110 0 get_eit_entry
FUNC 5e108 6c 0 restore_non_core_regs
FUNC 5e174 14 0 _Unwind_decode_typeinfo_ptr
FUNC 5e188 8 0 __gnu_unwind_24bit
FUNC 5e190 4 0 _Unwind_DebugHook
FUNC 5e194 64 0 unwind_phase2
FUNC 5e1f8 124 0 unwind_phase2_forced
FUNC 5e31c 8 0 _Unwind_GetCFA
FUNC 5e324 a4 0 __gnu_Unwind_RaiseException
FUNC 5e3c8 1c 0 __gnu_Unwind_ForcedUnwind
FUNC 5e3e4 74 0 __gnu_Unwind_Resume
FUNC 5e458 20 0 __gnu_Unwind_Resume_or_Rethrow
FUNC 5e478 4 0 _Unwind_Complete
FUNC 5e47c 20 0 _Unwind_DeleteException
FUNC 5e49c 5c 0 _Unwind_VRS_Get
FUNC 5e4f8 28 0 _Unwind_GetGR
FUNC 5e520 5c 0 _Unwind_VRS_Set
FUNC 5e57c 2c 0 _Unwind_SetGR
FUNC 5e5a8 c4 0 __gnu_Unwind_Backtrace
FUNC 5e66c 3f4 0 __gnu_unwind_pr_common
FUNC 5ea60 8 0 __aeabi_unwind_cpp_pr0
FUNC 5ea68 8 0 __aeabi_unwind_cpp_pr1
FUNC 5ea70 8 0 __aeabi_unwind_cpp_pr2
FUNC 5ea78 358 0 _Unwind_VRS_Pop
FUNC 5ef78 60 0 next_unwind_byte
FUNC 5efd8 28 0 _Unwind_GetGR
FUNC 5f000 4 0 unwind_UCB_from_context
FUNC 5f004 37c 0 __gnu_unwind_execute
FUNC 5f380 40 0 __gnu_unwind_frame
FUNC 5f3c0 10 0 _Unwind_GetRegionStart
FUNC 5f3d0 1c 0 _Unwind_GetLanguageSpecificData
FUNC 5f3ec 8 0 _Unwind_GetDataRelBase
FUNC 5f3f4 8 0 _Unwind_GetTextRelBase
PUBLIC bab8 0 PyImagingNew
PUBLIC d1e4 0 PyImaging_AsImaging
PUBLIC d364 0 ImagingSectionEnter
PUBLIC d378 0 ImagingSectionLeave
PUBLIC d380 0 PyImaging_CheckBuffer
PUBLIC d384 0 PyImaging_ReadBuffer
PUBLIC d3a4 0 ImagingError_IOError
PUBLIC d3d0 0 ImagingError_MemoryError
PUBLIC d3d4 0 ImagingError_Mismatch
PUBLIC d400 0 ImagingError_ModeError
PUBLIC d42c 0 ImagingError_ValueError
PUBLIC d820 0 ImagingError_Clear
PUBLIC d824 0 init_imaging
PUBLIC dc0c 0 get_unpacker
PUBLIC dc8c 0 PyImaging_BitDecoderNew
PUBLIC dd90 0 PyImaging_FliDecoderNew
PUBLIC ddb8 0 PyImaging_GifDecoderNew
PUBLIC de9c 0 PyImaging_HexDecoderNew
PUBLIC df08 0 PyImaging_TiffLzwDecoderNew
PUBLIC df98 0 PyImaging_MspDecoderNew
PUBLIC dfe8 0 PyImaging_PackbitsDecoderNew
PUBLIC e054 0 PyImaging_PcdDecoderNew
PUBLIC e0ac 0 PyImaging_PcxDecoderNew
PUBLIC e130 0 PyImaging_RawDecoderNew
PUBLIC e1d8 0 PyImaging_SunRleDecoderNew
PUBLIC e244 0 PyImaging_TgaRleDecoderNew
PUBLIC e2f8 0 PyImaging_XbmDecoderNew
PUBLIC e350 0 PyImaging_ZipDecoderNew
PUBLIC e3e0 0 PyImaging_JpegDecoderNew
PUBLIC e968 0 get_packer
PUBLIC e9e8 0 PyImaging_EpsEncoderNew
PUBLIC ea10 0 PyImaging_GifEncoderNew
PUBLIC eab8 0 PyImaging_PcxEncoderNew
PUBLIC eb3c 0 PyImaging_RawEncoderNew
PUBLIC ebe0 0 PyImaging_XbmEncoderNew
PUBLIC ec38 0 PyImaging_ZipEncoderNew
PUBLIC ed04 0 PyImaging_JpegEncoderNew
PUBLIC f234 0 PyImaging_MapperNew
PUBLIC f274 0 PyImaging_Mapper
PUBLIC f2ac 0 PyImaging_MapBuffer
PUBLIC f758 0 PyOutline_AsOutline
PUBLIC f77c 0 PyOutline_Create
PUBLIC 10004 0 PyPath_Flatten
PUBLIC 10510 0 PyPath_Create
PUBLIC 108ac 0 ImagingAccessInit
PUBLIC 10b7c 0 ImagingAccessNew
PUBLIC 10bf0 0 _ImagingAccessDelete
PUBLIC 10dbc 0 ImagingStretch
PUBLIC 11678 0 ImagingGetBand
PUBLIC 11750 0 ImagingPutBand
PUBLIC 1184c 0 ImagingFillBand
PUBLIC 118e8 0 ImagingBitDecode
PUBLIC 11ad8 0 ImagingBlend
PUBLIC 11d88 0 ImagingChopLighter
PUBLIC 11e18 0 ImagingChopDarker
PUBLIC 11ea8 0 ImagingChopDifference
PUBLIC 11f3c 0 ImagingChopMultiply
PUBLIC 11fe8 0 ImagingChopScreen
PUBLIC 1209c 0 ImagingChopAdd
PUBLIC 1216c 0 ImagingChopSubtract
PUBLIC 1223c 0 ImagingChopAnd
PUBLIC 122cc 0 ImagingChopOr
PUBLIC 12360 0 ImagingChopXor
PUBLIC 123f0 0 ImagingChopAddModulo
PUBLIC 12468 0 ImagingChopSubtractModulo
PUBLIC 13f38 0 ImagingConvert
PUBLIC 13f68 0 ImagingConvert2
PUBLIC 13f84 0 ImagingConvertInPlace
PUBLIC 1406c 0 ImagingConvertRGB2YCbCr
PUBLIC 1413c 0 ImagingConvertYCbCr2RGB
PUBLIC 142d8 0 ImagingCopy
PUBLIC 142e4 0 ImagingCopy2
PUBLIC 142e8 0 ImagingCRC32
PUBLIC 1432c 0 ImagingCrop
PUBLIC 15910 0 ImagingDrawPoint
PUBLIC 15964 0 ImagingDrawLine
PUBLIC 159c8 0 ImagingDrawWideLine
PUBLIC 15bf4 0 ImagingDrawRectangle
PUBLIC 15d44 0 ImagingDrawPolygon
PUBLIC 15ee8 0 ImagingDrawBitmap
PUBLIC 15f24 0 ImagingDrawArc
PUBLIC 15f6c 0 ImagingDrawChord
PUBLIC 15fb8 0 ImagingDrawEllipse
PUBLIC 16000 0 ImagingDrawPieslice
PUBLIC 1604c 0 ImagingOutlineDelete
PUBLIC 16074 0 ImagingOutlineMove
PUBLIC 1608c 0 ImagingOutlineNew
PUBLIC 160d0 0 ImagingOutlineLine
PUBLIC 16144 0 ImagingOutlineCurve
PUBLIC 16268 0 ImagingOutlineCurve2
PUBLIC 162dc 0 ImagingOutlineClose
PUBLIC 16318 0 ImagingOutlineTransform
PUBLIC 1644c 0 ImagingDrawOutline
PUBLIC 164b8 0 ImagingEffectMandelbrot
PUBLIC 16654 0 ImagingEffectNoise
PUBLIC 16764 0 ImagingEffectPerlinTurbulence
PUBLIC 1676c 0 ImagingEffectSpread
PUBLIC 16950 0 ImagingEpsEncode
PUBLIC 16a80 0 ImagingOpenPPM
PUBLIC 16cbc 0 ImagingSaveRaw
PUBLIC 16d8c 0 ImagingSavePPM
PUBLIC 16e70 0 ImagingFill
PUBLIC 16fac 0 ImagingFillLinearGradient
PUBLIC 1700c 0 ImagingFillRadialGradient
PUBLIC 170b4 0 ImagingExpand
PUBLIC 175c8 0 ImagingFilter
PUBLIC 17c9c 0 ImagingFliDecode
PUBLIC 1aa30 0 ImagingFlipLeftRight
PUBLIC 1ab70 0 ImagingFlipTopBottom
PUBLIC 1ac30 0 ImagingRotate90
PUBLIC 1ad70 0 ImagingRotate180
PUBLIC 1aecc 0 ImagingRotate270
PUBLIC 1b010 0 ImagingTransform
PUBLIC 1b17c 0 ImagingTransformAffine
PUBLIC 1b904 0 ImagingTransformPerspective
PUBLIC 1b9a0 0 ImagingTransformQuad
PUBLIC 1ba3c 0 ImagingResize
PUBLIC 1bb48 0 ImagingRotate
PUBLIC 1bc58 0 ImagingGetBBox
PUBLIC 1bdb4 0 ImagingGetProjection
PUBLIC 1becc 0 ImagingGetExtrema
PUBLIC 1c0e4 0 ImagingGetColors
PUBLIC 1c324 0 ImagingGifDecode
PUBLIC 1c8d4 0 ImagingGifEncode
PUBLIC 1d1b4 0 ImagingHexDecode
PUBLIC 1d2c8 0 ImagingHistogramDelete
PUBLIC 1d2ec 0 ImagingHistogramNew
PUBLIC 1d32c 0 ImagingGetHistogram
PUBLIC 1d820 0 jpeg_buffer_src
PUBLIC 1d878 0 ImagingJpegDecode
PUBLIC 1dd00 0 jpeg_buffer_dest
PUBLIC 1dd2c 0 ImagingJpegEncode
PUBLIC 1e1bc 0 ImagingJpegVersion
PUBLIC 1e1f0 0 ImagingLzwDecode
PUBLIC 1e528 0 ImagingConvertMatrix
PUBLIC 1e7f0 0 ImagingModeFilter
PUBLIC 1e9b0 0 ImagingMspDecode
PUBLIC 1eae0 0 ImagingNegative
PUBLIC 1eb58 0 ImagingOffset
PUBLIC 1ef8c 0 ImagingPackRGB
PUBLIC 1efc4 0 ImagingPackXRGB
PUBLIC 1f008 0 ImagingPackBGR
PUBLIC 1f03c 0 ImagingPackBGRX
PUBLIC 1f07c 0 ImagingPackXBGR
PUBLIC 1f0bc 0 ImagingPackBGRA
PUBLIC 1f0fc 0 ImagingPackABGR
PUBLIC 1f318 0 ImagingFindPacker
PUBLIC 1f3a8 0 ImagingPackbitsDecode
PUBLIC 1f4f8 0 ImagingPaletteNew
PUBLIC 1f598 0 ImagingPaletteNewBrowser
PUBLIC 1f658 0 ImagingPaletteDuplicate
PUBLIC 1f6a0 0 ImagingPaletteDelete
PUBLIC 1f6c8 0 ImagingPaletteCacheUpdate
PUBLIC 1f9fc 0 ImagingPaletteCachePrepare
PUBLIC 1fa54 0 ImagingPaletteCacheDelete
PUBLIC 1fa7c 0 ImagingPaste
PUBLIC 20288 0 ImagingFill2
PUBLIC 21784 0 quantize
PUBLIC 222bc 0 quantize2
PUBLIC 2263c 0 ImagingQuantize
PUBLIC 22dc0 0 hashtable_new
PUBLIC 22e38 0 hashtable_insert_or_update_computed
PUBLIC 22f48 0 hashtable_update
PUBLIC 22f4c 0 hashtable_insert
PUBLIC 22f50 0 hashtable_foreach_update
PUBLIC 22fb4 0 hashtable_foreach
PUBLIC 23014 0 hashtable_free
PUBLIC 23094 0 hashtable_set_value_destroy_func
PUBLIC 230a4 0 hashtable_set_key_destroy_func
PUBLIC 230b4 0 hashtable_remove
PUBLIC 23160 0 hashtable_delete
PUBLIC 23224 0 hashtable_rehash_compute
PUBLIC 2322c 0 hashtable_rehash
PUBLIC 23238 0 hashtable_lookup_or_insert
PUBLIC 232e8 0 hashtable_lookup
PUBLIC 23358 0 hashtable_get_count
PUBLIC 23360 0 hashtable_get_user_data
PUBLIC 23368 0 hashtable_set_user_data
PUBLIC 23410 0 ImagingQuantHeapFree
PUBLIC 2342c 0 ImagingQuantHeapRemove
PUBLIC 23504 0 ImagingQuantHeapAdd
PUBLIC 235e0 0 ImagingQuantHeapTop
PUBLIC 23600 0 ImagingQuantHeapNew
PUBLIC 2365c 0 ImagingPcdDecode
PUBLIC 237a8 0 ImagingPcxDecode
PUBLIC 238bc 0 ImagingPcxEncode
PUBLIC 23d90 0 ImagingPoint
PUBLIC 23f10 0 ImagingPointTransform
PUBLIC 24154 0 ImagingRankFilter
PUBLIC 24698 0 ImagingRawDecode
PUBLIC 247c4 0 ImagingRawEncode
PUBLIC 24954 0 ImagingNewPrologueSubtype
PUBLIC 24d94 0 ImagingNewPrologue
PUBLIC 24d9c 0 ImagingNewEpilogue
PUBLIC 24de4 0 ImagingDelete
PUBLIC 24e30 0 ImagingNewArray
PUBLIC 24ec0 0 ImagingNewBlock
PUBLIC 24f3c 0 ImagingNew
PUBLIC 24fac 0 ImagingNew2
PUBLIC 25014 0 ImagingCopyInfo
PUBLIC 2504c 0 ImagingSunRleDecode
PUBLIC 251ac 0 ImagingTgaRleDecode
PUBLIC 25bc0 0 ImagingUnpackRGB
PUBLIC 25c04 0 unpackRGB16B
PUBLIC 25cec 0 ImagingUnpackBGR
PUBLIC 25d2c 0 ImagingUnpackBGR15
PUBLIC 25db0 0 ImagingUnpackBGR16
PUBLIC 260d8 0 unpackRGBA16B
PUBLIC 26cc4 0 ImagingFindUnpacker
PUBLIC 26d54 0 ImagingUnpackYCC
PUBLIC 26e2c 0 ImagingUnpackYCCA
PUBLIC 275b8 0 ImagingGaussianBlur
PUBLIC 2767c 0 ImagingUnsharpMask
PUBLIC 279d0 0 ImagingXbmDecode
PUBLIC 27b50 0 ImagingXbmEncode
PUBLIC 27d68 0 ImagingZipDecode
PUBLIC 2841c 0 ImagingZipEncode
PUBLIC 28b50 0 ImagingZipVersion
PUBLIC 28b60 0 jpeg_CreateCompress
PUBLIC 28c8c 0 jpeg_destroy_compress
PUBLIC 28c90 0 jpeg_abort_compress
PUBLIC 28c94 0 jpeg_suppress_tables
PUBLIC 28d28 0 jpeg_finish_compress
PUBLIC 28e8c 0 jpeg_write_marker
PUBLIC 28f20 0 jpeg_write_m_header
PUBLIC 28f88 0 jpeg_write_m_byte
PUBLIC 28f9c 0 jpeg_write_tables
PUBLIC 29018 0 jpeg_start_compress
PUBLIC 290bc 0 jpeg_write_scanlines
PUBLIC 291c0 0 jpeg_write_raw_data
PUBLIC 292d0 0 jinit_compress_master
PUBLIC 29504 0 jinit_c_main_controller
PUBLIC 2c338 0 jinit_marker_writer
PUBLIC 2d4f4 0 jpeg_calc_jpeg_dimensions
PUBLIC 2d510 0 jinit_c_master_control
PUBLIC 2d8c0 0 jpeg_abort
PUBLIC 2d904 0 jpeg_destroy
PUBLIC 2d930 0 jpeg_alloc_quant_table
PUBLIC 2d954 0 jpeg_alloc_huff_table
PUBLIC 2d978 0 jpeg_add_quant_table
PUBLIC 2dab8 0 jpeg_default_qtables
PUBLIC 2db08 0 jpeg_set_linear_quality
PUBLIC 2db5c 0 jpeg_quality_scaling
PUBLIC 2dba0 0 jpeg_set_quality
PUBLIC 2dbc8 0 jpeg_set_colorspace
PUBLIC 2def0 0 jpeg_default_colorspace
PUBLIC 2df98 0 jpeg_set_defaults
PUBLIC 2e3b8 0 jpeg_simple_progression
PUBLIC 3050c 0 jinit_phuff_encoder
PUBLIC 30ac8 0 jinit_c_prep_controller
PUBLIC 32480 0 jinit_downsampler
PUBLIC 326d8 0 jpeg_CreateDecompress
PUBLIC 327dc 0 jpeg_destroy_decompress
PUBLIC 327e0 0 jpeg_abort_decompress
PUBLIC 327e4 0 jpeg_consume_input
PUBLIC 32a94 0 jpeg_read_header
PUBLIC 32b1c 0 jpeg_input_complete
PUBLIC 32b5c 0 jpeg_has_multiple_scans
PUBLIC 32b9c 0 jpeg_finish_decompress
PUBLIC 32d84 0 jpeg_start_decompress
PUBLIC 32e9c 0 jpeg_read_scanlines
PUBLIC 32f74 0 jpeg_read_raw_data
PUBLIC 3305c 0 jpeg_start_output
PUBLIC 330cc 0 jpeg_finish_output
PUBLIC 33a48 0 jpeg_core_output_dimensions
PUBLIC 33b80 0 jinit_input_controller
PUBLIC 35c70 0 jpeg_resync_to_restart
PUBLIC 35dcc 0 jinit_marker_reader
PUBLIC 35eb8 0 jpeg_save_markers
PUBLIC 35fa0 0 jpeg_set_marker_processor
PUBLIC 362f8 0 jpeg_calc_output_dimensions
PUBLIC 365b8 0 jpeg_new_colormap
PUBLIC 3664c 0 jinit_master_decompress
PUBLIC 38894 0 jinit_merged_upsampler
PUBLIC 3a1fc 0 jinit_phuff_decoder
PUBLIC 3a618 0 jinit_d_post_controller
PUBLIC 3b630 0 jinit_upsampler
PUBLIC 3bba0 0 jpeg_std_error
PUBLIC 3c9e4 0 jinit_1pass_quantizer
PUBLIC 3eb40 0 jinit_2pass_quantizer
PUBLIC 3ecd8 0 jdiv_round_up
PUBLIC 3ecec 0 jround_up
PUBLIC 3ed08 0 jcopy_sample_rows
PUBLIC 3ee0c 0 jcopy_block_row
PUBLIC 3ee20 0 jzero_far
PUBLIC 40670 0 jinit_memory_mgr
PUBLIC 40824 0 jpeg_get_small
PUBLIC 4082c 0 jpeg_free_small
PUBLIC 40834 0 jpeg_get_large
PUBLIC 4083c 0 jpeg_free_large
PUBLIC 40844 0 jpeg_mem_available
PUBLIC 4084c 0 jpeg_open_backing_store
PUBLIC 40868 0 jpeg_mem_init
PUBLIC 40870 0 jpeg_mem_term
PUBLIC 42db8 0 jinit_arith_encoder
PUBLIC 43fac 0 jinit_arith_decoder
PUBLIC 4406c 0 jsimd_can_rgb_ycc
PUBLIC 44124 0 jsimd_can_rgb_gray
PUBLIC 441d0 0 jsimd_can_ycc_rgb
PUBLIC 44288 0 jsimd_rgb_ycc_convert
PUBLIC 44360 0 jsimd_rgb_gray_convert
PUBLIC 44364 0 jsimd_ycc_rgb_convert
PUBLIC 4443c 0 jsimd_can_h2v2_downsample
PUBLIC 444e8 0 jsimd_can_h2v1_downsample
PUBLIC 44594 0 jsimd_h2v2_downsample
PUBLIC 44598 0 jsimd_h2v1_downsample
PUBLIC 4459c 0 jsimd_can_h2v2_upsample
PUBLIC 44648 0 jsimd_can_h2v1_upsample
PUBLIC 446f4 0 jsimd_h2v2_upsample
PUBLIC 446f8 0 jsimd_h2v1_upsample
PUBLIC 446fc 0 jsimd_can_h2v2_fancy_upsample
PUBLIC 447a8 0 jsimd_can_h2v1_fancy_upsample
PUBLIC 44854 0 jsimd_h2v2_fancy_upsample
PUBLIC 44858 0 jsimd_h2v1_fancy_upsample
PUBLIC 4485c 0 jsimd_can_h2v2_merged_upsample
PUBLIC 44908 0 jsimd_can_h2v1_merged_upsample
PUBLIC 449b4 0 jsimd_h2v2_merged_upsample
PUBLIC 449b8 0 jsimd_h2v1_merged_upsample
PUBLIC 449bc 0 jsimd_can_convsamp
PUBLIC 44a74 0 jsimd_can_convsamp_float
PUBLIC 44b20 0 jsimd_convsamp
PUBLIC 44b3c 0 jsimd_convsamp_float
PUBLIC 44b40 0 jsimd_can_fdct_islow
PUBLIC 44bec 0 jsimd_can_fdct_ifast
PUBLIC 44ca4 0 jsimd_can_fdct_float
PUBLIC 44d50 0 jsimd_fdct_islow
PUBLIC 44d54 0 jsimd_fdct_ifast
PUBLIC 44d70 0 jsimd_fdct_float
PUBLIC 44d74 0 jsimd_can_quantize
PUBLIC 44e2c 0 jsimd_can_quantize_float
PUBLIC 44ed8 0 jsimd_quantize
PUBLIC 44ef4 0 jsimd_quantize_float
PUBLIC 44ef8 0 jsimd_can_idct_2x2
PUBLIC 44fb0 0 jsimd_can_idct_4x4
PUBLIC 45068 0 jsimd_idct_2x2
PUBLIC 45098 0 jsimd_idct_4x4
PUBLIC 450c8 0 jsimd_can_idct_islow
PUBLIC 45180 0 jsimd_can_idct_ifast
PUBLIC 45238 0 jsimd_can_idct_float
PUBLIC 452e4 0 jsimd_idct_islow
PUBLIC 45314 0 jsimd_idct_ifast
PUBLIC 45344 0 jsimd_idct_float
PUBLIC 46450 0 jinit_c_coef_controller
PUBLIC 482a4 0 jinit_color_converter
PUBLIC 49500 0 jinit_forward_dct
PUBLIC 4f520 0 jpeg_make_c_derived_tbl
PUBLIC 4fa04 0 jpeg_gen_optimal_table
PUBLIC 4ffd0 0 jinit_huff_encoder
PUBLIC 51750 0 jinit_d_coef_controller
PUBLIC 543c0 0 jinit_color_deconverter
PUBLIC 54db0 0 jinit_inverse_dct
PUBLIC 54e48 0 jpeg_make_d_derived_tbl
PUBLIC 556dc 0 jpeg_fill_bit_buffer
PUBLIC 5583c 0 jpeg_huff_decode
PUBLIC 56548 0 jinit_huff_decoder
PUBLIC 57240 0 jinit_d_main_controller
PUBLIC 57410 0 jpeg_fdct_float
PUBLIC 57618 0 jpeg_fdct_ifast
PUBLIC 57e90 0 jpeg_fdct_islow
PUBLIC 59304 0 jpeg_idct_float
PUBLIC 59788 0 jpeg_idct_ifast
PUBLIC 59e2c 0 jpeg_idct_islow
PUBLIC 5a5e4 0 jpeg_idct_4x4
PUBLIC 5aa90 0 jpeg_idct_2x2
PUBLIC 5adec 0 jpeg_idct_1x1
PUBLIC 5dd10 0 __aeabi_uidiv
PUBLIC 5ddb8 0 __aeabi_uidivmod
PUBLIC 5ddd8 0 __aeabi_idiv
PUBLIC 5deb4 0 __aeabi_idivmod
PUBLIC 5ded4 0 __aeabi_idiv0
PUBLIC 5e31c 0 _Unwind_GetCFA
PUBLIC 5e324 0 __gnu_Unwind_RaiseException
PUBLIC 5e3c8 0 __gnu_Unwind_ForcedUnwind
PUBLIC 5e3e4 0 __gnu_Unwind_Resume
PUBLIC 5e458 0 __gnu_Unwind_Resume_or_Rethrow
PUBLIC 5e478 0 _Unwind_Complete
PUBLIC 5e47c 0 _Unwind_DeleteException
PUBLIC 5e49c 0 _Unwind_VRS_Get
PUBLIC 5e520 0 _Unwind_VRS_Set
PUBLIC 5e5a8 0 __gnu_Unwind_Backtrace
PUBLIC 5ea60 0 __aeabi_unwind_cpp_pr0
PUBLIC 5ea68 0 __aeabi_unwind_cpp_pr1
PUBLIC 5ea70 0 __aeabi_unwind_cpp_pr2
PUBLIC 5ea78 0 _Unwind_VRS_Pop
PUBLIC 5edd0 0 restore_core_regs
PUBLIC 5ede4 0 __gnu_Unwind_Restore_VFP
PUBLIC 5edec 0 __gnu_Unwind_Save_VFP
PUBLIC 5edf4 0 __gnu_Unwind_Restore_VFP_D
PUBLIC 5edfc 0 __gnu_Unwind_Save_VFP_D
PUBLIC 5ee04 0 __gnu_Unwind_Restore_VFP_D_16_to_31
PUBLIC 5ee0c 0 __gnu_Unwind_Save_VFP_D_16_to_31
PUBLIC 5ee14 0 __gnu_Unwind_Restore_WMMXD
PUBLIC 5ee58 0 __gnu_Unwind_Save_WMMXD
PUBLIC 5ee9c 0 __gnu_Unwind_Restore_WMMXC
PUBLIC 5eeb0 0 __gnu_Unwind_Save_WMMXC
PUBLIC 5eec4 0 ___Unwind_RaiseException
PUBLIC 5eee8 0 ___Unwind_Resume
PUBLIC 5ef0c 0 ___Unwind_Resume_or_Rethrow
PUBLIC 5ef30 0 ___Unwind_ForcedUnwind
PUBLIC 5ef54 0 ___Unwind_Backtrace
PUBLIC 5f004 0 __gnu_unwind_execute
PUBLIC 5f380 0 __gnu_unwind_frame
PUBLIC 5f3c0 0 _Unwind_GetRegionStart
PUBLIC 5f3d0 0 _Unwind_GetLanguageSpecificData
PUBLIC 5f3ec 0 _Unwind_GetDataRelBase
PUBLIC 5f3f4 0 _Unwind_GetTextRelBase
STACK CFI INIT 5dd10 a8 .cfa: sp 0 + .ra: lr
STACK CFI INIT 5ddd8 dc .cfa: sp 0 + .ra: lr
STACK CFI INIT 5dee4 18 .cfa: sp 0 + .ra: lr
STACK CFI INIT 5defc ac .cfa: sp 0 + .ra: lr
STACK CFI 5df00 .cfa: sp 48 + .ra: .cfa -4 + ^ r0: .cfa -48 + ^ r1: .cfa -44 + ^ r10: .cfa -12 + ^ r11: .cfa -8 + ^ r2: .cfa -40 + ^ r4: .cfa -36 + ^ r5: .cfa -32 + ^ r6: .cfa -28 + ^ r7: .cfa -24 + ^ r8: .cfa -20 + ^ r9: .cfa -16 + ^
STACK CFI INIT 5dfa8 50 .cfa: sp 0 + .ra: lr
STACK CFI INIT 5dff8 110 .cfa: sp 0 + .ra: lr
STACK CFI 5e000 .cfa: sp 24 + .ra: .cfa -4 + ^ r0: .cfa -24 + ^ r1: .cfa -20 + ^ r2: .cfa -16 + ^ r4: .cfa -12 + ^ r5: .cfa -8 + ^
STACK CFI INIT 5e108 6c .cfa: sp 0 + .ra: lr
STACK CFI 5e110 .cfa: sp 8 + .ra: .cfa -4 + ^ r4: .cfa -8 + ^
STACK CFI INIT 5e174 14 .cfa: sp 0 + .ra: lr
STACK CFI INIT 5e188 8 .cfa: sp 0 + .ra: lr
STACK CFI INIT 5e190 4 .cfa: sp 0 + .ra: lr
STACK CFI INIT 5e194 64 .cfa: sp 0 + .ra: lr
STACK CFI 5e198 .cfa: sp 16 + .ra: .cfa -4 + ^ r4: .cfa -16 + ^ r5: .cfa -12 + ^ r6: .cfa -8 + ^
STACK CFI INIT 5e1f8 124 .cfa: sp 0 + .ra: lr
STACK CFI 5e1fc .cfa: sp 36 + .ra: .cfa -4 + ^ r10: .cfa -12 + ^ r11: .cfa -8 + ^ r4: .cfa -36 + ^ r5: .cfa -32 + ^ r6: .cfa -28 + ^ r7: .cfa -24 + ^ r8: .cfa -20 + ^ r9: .cfa -16 + ^
STACK CFI 5e218 .cfa: sp 1008 +
STACK CFI INIT 5e31c 8 .cfa: sp 0 + .ra: lr
STACK CFI INIT 5e324 a4 .cfa: sp 0 + .ra: lr
STACK CFI 5e328 .cfa: sp 20 + .ra: .cfa -4 + ^ r4: .cfa -20 + ^ r5: .cfa -16 + ^ r6: .cfa -12 + ^ r7: .cfa -8 + ^
STACK CFI 5e344 .cfa: sp 504 +
STACK CFI INIT 5e3c8 1c .cfa: sp 0 + .ra: lr
STACK CFI INIT 5e3e4 74 .cfa: sp 0 + .ra: lr
STACK CFI 5e3e8 .cfa: sp 16 + .ra: .cfa -4 + ^ r4: .cfa -16 + ^ r5: .cfa -12 + ^ r6: .cfa -8 + ^
STACK CFI INIT 5e458 20 .cfa: sp 0 + .ra: lr
STACK CFI INIT 5e478 4 .cfa: sp 0 + .ra: lr
STACK CFI INIT 5e47c 20 .cfa: sp 0 + .ra: lr
STACK CFI 5e480 .cfa: sp 8 + .ra: .cfa -4 + ^ r3: .cfa -8 + ^
STACK CFI INIT 5e49c 5c .cfa: sp 0 + .ra: lr
STACK CFI INIT 5e4f8 28 .cfa: sp 0 + .ra: lr
STACK CFI 5e4fc .cfa: sp 24 + .ra: .cfa -4 + ^ r0: .cfa -24 + ^ r1: .cfa -20 + ^ r2: .cfa -16 + ^ r3: .cfa -12 + ^ r4: .cfa -8 + ^
STACK CFI INIT 5e520 5c .cfa: sp 0 + .ra: lr
STACK CFI INIT 5e57c 2c .cfa: sp 0 + .ra: lr
STACK CFI 5e580 .cfa: sp 24 + .ra: .cfa -4 + ^ r0: .cfa -24 + ^ r1: .cfa -20 + ^ r2: .cfa -16 + ^ r3: .cfa -12 + ^ r4: .cfa -8 + ^
STACK CFI INIT 5e5a8 c4 .cfa: sp 0 + .ra: lr
STACK CFI 5e5ac .cfa: sp 24 + .ra: .cfa -4 + ^ r4: .cfa -24 + ^ r5: .cfa -20 + ^ r6: .cfa -16 + ^ r7: .cfa -12 + ^ r8: .cfa -8 + ^
STACK CFI 5e5c8 .cfa: sp 592 +
STACK CFI INIT 5e66c 3f4 .cfa: sp 0 + .ra: lr
STACK CFI 5e670 .cfa: sp 36 + .ra: .cfa -4 + ^ r10: .cfa -12 + ^ r11: .cfa -8 + ^ r4: .cfa -36 + ^ r5: .cfa -32 + ^ r6: .cfa -28 + ^ r7: .cfa -24 + ^ r8: .cfa -20 + ^ r9: .cfa -16 + ^
STACK CFI 5e67c .cfa: sp 72 +
STACK CFI INIT 5ea60 8 .cfa: sp 0 + .ra: lr
STACK CFI INIT 5ea68 8 .cfa: sp 0 + .ra: lr
STACK CFI INIT 5ea70 8 .cfa: sp 0 + .ra: lr
STACK CFI INIT 5ea78 358 .cfa: sp 0 + .ra: lr
STACK CFI 5ea7c .cfa: sp 28 + .ra: .cfa -4 + ^ r4: .cfa -28 + ^ r5: .cfa -24 + ^ r6: .cfa -20 + ^ r7: .cfa -16 + ^ r8: .cfa -12 + ^ r9: .cfa -8 + ^
STACK CFI 5ea84 .cfa: sp 296 +
STACK CFI INIT 5ef78 60 .cfa: sp 0 + .ra: lr
STACK CFI INIT 5efd8 28 .cfa: sp 0 + .ra: lr
STACK CFI 5efdc .cfa: sp 24 + .ra: .cfa -4 + ^ r0: .cfa -24 + ^ r1: .cfa -20 + ^ r2: .cfa -16 + ^ r3: .cfa -12 + ^ r4: .cfa -8 + ^
STACK CFI INIT 5f000 4 .cfa: sp 0 + .ra: lr
STACK CFI INIT 5f004 37c .cfa: sp 0 + .ra: lr
STACK CFI 5f008 .cfa: sp 48 + .ra: .cfa -4 + ^ r0: .cfa -48 + ^ r1: .cfa -44 + ^ r10: .cfa -8 + ^ r2: .cfa -40 + ^ r3: .cfa -36 + ^ r4: .cfa -32 + ^ r5: .cfa -28 + ^ r6: .cfa -24 + ^ r7: .cfa -20 + ^ r8: .cfa -16 + ^ r9: .cfa -12 + ^
STACK CFI INIT 5f380 40 .cfa: sp 0 + .ra: lr
STACK CFI 5f384 .cfa: sp 24 + .ra: .cfa -4 + ^ r0: .cfa -24 + ^ r1: .cfa -20 + ^ r2: .cfa -16 + ^ r3: .cfa -12 + ^ r4: .cfa -8 + ^
STACK CFI INIT 5f3c0 10 .cfa: sp 0 + .ra: lr
STACK CFI 5f3c4 .cfa: sp 8 + .ra: .cfa -4 + ^ r3: .cfa -8 + ^
STACK CFI INIT 5f3d0 1c .cfa: sp 0 + .ra: lr
STACK CFI 5f3d4 .cfa: sp 8 + .ra: .cfa -4 + ^ r3: .cfa -8 + ^
STACK CFI INIT 5f3ec 8 .cfa: sp 0 + .ra: lr
STACK CFI 5f3f0 .cfa: sp 8 + .ra: .cfa -4 + ^ r3: .cfa -8 + ^
STACK CFI INIT 5f3f4 8 .cfa: sp 0 + .ra: lr
STACK CFI 5f3f8 .cfa: sp 8 + .ra: .cfa -4 + ^ r3: .cfa -8 + ^
