MODULE Linux arm E8AEA3FD7CDEF14090FDD0EB184C83060 libxbmpeg2convert.so
FUNC 4dd8 18 0 selfrel_offset31
FUNC 4df0 ac 0 search_EIT_table
FUNC 4e9c 50 0 __gnu_unwind_get_pr_addr
FUNC 4eec 10c 0 get_eit_entry
FUNC 4ff8 6c 0 restore_non_core_regs
FUNC 5064 14 0 _Unwind_decode_typeinfo_ptr
FUNC 5078 8 0 __gnu_unwind_24bit
FUNC 5080 4 0 _Unwind_DebugHook
FUNC 5084 64 0 unwind_phase2
FUNC 50e8 124 0 unwind_phase2_forced
FUNC 520c 8 0 _Unwind_GetCFA
FUNC 5214 a4 0 __gnu_Unwind_RaiseException
FUNC 52b8 1c 0 __gnu_Unwind_ForcedUnwind
FUNC 52d4 74 0 __gnu_Unwind_Resume
FUNC 5348 20 0 __gnu_Unwind_Resume_or_Rethrow
FUNC 5368 4 0 _Unwind_Complete
FUNC 536c 20 0 _Unwind_DeleteException
FUNC 538c 5c 0 _Unwind_VRS_Get
FUNC 53e8 28 0 _Unwind_GetGR
FUNC 5410 5c 0 _Unwind_VRS_Set
FUNC 546c 2c 0 _Unwind_SetGR
FUNC 5498 c4 0 __gnu_Unwind_Backtrace
FUNC 555c 3f0 0 __gnu_unwind_pr_common
FUNC 594c 8 0 __aeabi_unwind_cpp_pr0
FUNC 5954 8 0 __aeabi_unwind_cpp_pr1
FUNC 595c 8 0 __aeabi_unwind_cpp_pr2
FUNC 5964 34c 0 _Unwind_VRS_Pop
FUNC 5e58 60 0 next_unwind_byte
FUNC 5eb8 28 0 _Unwind_GetGR
FUNC 5ee0 4 0 unwind_UCB_from_context
FUNC 5ee4 37c 0 __gnu_unwind_execute
FUNC 6260 40 0 __gnu_unwind_frame
FUNC 62a0 10 0 _Unwind_GetRegionStart
FUNC 62b0 1c 0 _Unwind_GetLanguageSpecificData
FUNC 62cc 8 0 _Unwind_GetDataRelBase
FUNC 62d4 8 0 _Unwind_GetTextRelBase
PUBLIC 4754 0 mpeg2convert_rgb32
PUBLIC 4780 0 mpeg2convert_rgb24
PUBLIC 47ac 0 mpeg2convert_rgb16
PUBLIC 47d8 0 mpeg2convert_rgb15
PUBLIC 4804 0 mpeg2convert_rgb8
PUBLIC 4830 0 mpeg2convert_bgr32
PUBLIC 485c 0 mpeg2convert_bgr24
PUBLIC 4888 0 mpeg2convert_bgr16
PUBLIC 48b4 0 mpeg2convert_bgr15
PUBLIC 48e0 0 mpeg2convert_bgr8
PUBLIC 490c 0 mpeg2convert_rgb
PUBLIC 4b78 0 mpeg2convert_uyvy
PUBLIC 4c04 0 __aeabi_uidiv
PUBLIC 4cac 0 __aeabi_uidivmod
PUBLIC 4ccc 0 __aeabi_idiv
PUBLIC 4da8 0 __aeabi_idivmod
PUBLIC 4dc8 0 __aeabi_idiv0
PUBLIC 520c 0 _Unwind_GetCFA
PUBLIC 5214 0 __gnu_Unwind_RaiseException
PUBLIC 52b8 0 __gnu_Unwind_ForcedUnwind
PUBLIC 52d4 0 __gnu_Unwind_Resume
PUBLIC 5348 0 __gnu_Unwind_Resume_or_Rethrow
PUBLIC 5368 0 _Unwind_Complete
PUBLIC 536c 0 _Unwind_DeleteException
PUBLIC 538c 0 _Unwind_VRS_Get
PUBLIC 5410 0 _Unwind_VRS_Set
PUBLIC 5498 0 __gnu_Unwind_Backtrace
PUBLIC 594c 0 __aeabi_unwind_cpp_pr0
PUBLIC 5954 0 __aeabi_unwind_cpp_pr1
PUBLIC 595c 0 __aeabi_unwind_cpp_pr2
PUBLIC 5964 0 _Unwind_VRS_Pop
PUBLIC 5cb0 0 restore_core_regs
PUBLIC 5cc4 0 __gnu_Unwind_Restore_VFP
PUBLIC 5ccc 0 __gnu_Unwind_Save_VFP
PUBLIC 5cd4 0 __gnu_Unwind_Restore_VFP_D
PUBLIC 5cdc 0 __gnu_Unwind_Save_VFP_D
PUBLIC 5ce4 0 __gnu_Unwind_Restore_VFP_D_16_to_31
PUBLIC 5cec 0 __gnu_Unwind_Save_VFP_D_16_to_31
PUBLIC 5cf4 0 __gnu_Unwind_Restore_WMMXD
PUBLIC 5d38 0 __gnu_Unwind_Save_WMMXD
PUBLIC 5d7c 0 __gnu_Unwind_Restore_WMMXC
PUBLIC 5d90 0 __gnu_Unwind_Save_WMMXC
PUBLIC 5da4 0 ___Unwind_RaiseException
PUBLIC 5dc8 0 ___Unwind_Resume
PUBLIC 5dec 0 ___Unwind_Resume_or_Rethrow
PUBLIC 5e10 0 ___Unwind_ForcedUnwind
PUBLIC 5e34 0 ___Unwind_Backtrace
PUBLIC 5ee4 0 __gnu_unwind_execute
PUBLIC 6260 0 __gnu_unwind_frame
PUBLIC 62a0 0 _Unwind_GetRegionStart
PUBLIC 62b0 0 _Unwind_GetLanguageSpecificData
PUBLIC 62cc 0 _Unwind_GetDataRelBase
PUBLIC 62d4 0 _Unwind_GetTextRelBase
STACK CFI INIT 4c04 a8 .cfa: sp 0 + .ra: lr
STACK CFI INIT 4ccc dc .cfa: sp 0 + .ra: lr
STACK CFI INIT 4dd8 18 .cfa: sp 0 + .ra: lr
STACK CFI INIT 4df0 ac .cfa: sp 0 + .ra: lr
STACK CFI 4df4 .cfa: sp 48 + .ra: .cfa -4 + ^ r0: .cfa -48 + ^ r1: .cfa -44 + ^ r10: .cfa -12 + ^ r11: .cfa -8 + ^ r2: .cfa -40 + ^ r4: .cfa -36 + ^ r5: .cfa -32 + ^ r6: .cfa -28 + ^ r7: .cfa -24 + ^ r8: .cfa -20 + ^ r9: .cfa -16 + ^
STACK CFI INIT 4e9c 50 .cfa: sp 0 + .ra: lr
STACK CFI INIT 4eec 10c .cfa: sp 0 + .ra: lr
STACK CFI 4ef4 .cfa: sp 24 + .ra: .cfa -4 + ^ r0: .cfa -24 + ^ r1: .cfa -20 + ^ r2: .cfa -16 + ^ r4: .cfa -12 + ^ r5: .cfa -8 + ^
STACK CFI INIT 4ff8 6c .cfa: sp 0 + .ra: lr
STACK CFI 5000 .cfa: sp 8 + .ra: .cfa -4 + ^ r4: .cfa -8 + ^
STACK CFI INIT 5064 14 .cfa: sp 0 + .ra: lr
STACK CFI INIT 5078 8 .cfa: sp 0 + .ra: lr
STACK CFI INIT 5080 4 .cfa: sp 0 + .ra: lr
STACK CFI INIT 5084 64 .cfa: sp 0 + .ra: lr
STACK CFI 5088 .cfa: sp 16 + .ra: .cfa -4 + ^ r4: .cfa -16 + ^ r5: .cfa -12 + ^ r6: .cfa -8 + ^
STACK CFI INIT 50e8 124 .cfa: sp 0 + .ra: lr
STACK CFI 50ec .cfa: sp 36 + .ra: .cfa -4 + ^ r10: .cfa -12 + ^ r11: .cfa -8 + ^ r4: .cfa -36 + ^ r5: .cfa -32 + ^ r6: .cfa -28 + ^ r7: .cfa -24 + ^ r8: .cfa -20 + ^ r9: .cfa -16 + ^
STACK CFI 5108 .cfa: sp 1008 +
STACK CFI INIT 520c 8 .cfa: sp 0 + .ra: lr
STACK CFI INIT 5214 a4 .cfa: sp 0 + .ra: lr
STACK CFI 521c .cfa: sp 20 + .ra: .cfa -4 + ^ r4: .cfa -20 + ^ r5: .cfa -16 + ^ r6: .cfa -12 + ^ r7: .cfa -8 + ^
STACK CFI 5230 .cfa: sp 504 +
STACK CFI INIT 52b8 1c .cfa: sp 0 + .ra: lr
STACK CFI INIT 52d4 74 .cfa: sp 0 + .ra: lr
STACK CFI 52d8 .cfa: sp 16 + .ra: .cfa -4 + ^ r4: .cfa -16 + ^ r5: .cfa -12 + ^ r6: .cfa -8 + ^
STACK CFI INIT 5348 20 .cfa: sp 0 + .ra: lr
STACK CFI INIT 5368 4 .cfa: sp 0 + .ra: lr
STACK CFI INIT 536c 20 .cfa: sp 0 + .ra: lr
STACK CFI 5370 .cfa: sp 8 + .ra: .cfa -4 + ^ r3: .cfa -8 + ^
STACK CFI INIT 538c 5c .cfa: sp 0 + .ra: lr
STACK CFI INIT 53e8 28 .cfa: sp 0 + .ra: lr
STACK CFI 53ec .cfa: sp 24 + .ra: .cfa -4 + ^ r0: .cfa -24 + ^ r1: .cfa -20 + ^ r2: .cfa -16 + ^ r3: .cfa -12 + ^ r4: .cfa -8 + ^
STACK CFI INIT 5410 5c .cfa: sp 0 + .ra: lr
STACK CFI INIT 546c 2c .cfa: sp 0 + .ra: lr
STACK CFI 5470 .cfa: sp 24 + .ra: .cfa -4 + ^ r0: .cfa -24 + ^ r1: .cfa -20 + ^ r2: .cfa -16 + ^ r3: .cfa -12 + ^ r4: .cfa -8 + ^
STACK CFI INIT 5498 c4 .cfa: sp 0 + .ra: lr
STACK CFI 54a0 .cfa: sp 24 + .ra: .cfa -4 + ^ r4: .cfa -24 + ^ r5: .cfa -20 + ^ r6: .cfa -16 + ^ r7: .cfa -12 + ^ r8: .cfa -8 + ^
STACK CFI 54b4 .cfa: sp 592 +
STACK CFI INIT 555c 3f0 .cfa: sp 0 + .ra: lr
STACK CFI 5560 .cfa: sp 36 + .ra: .cfa -4 + ^ r10: .cfa -12 + ^ r11: .cfa -8 + ^ r4: .cfa -36 + ^ r5: .cfa -32 + ^ r6: .cfa -28 + ^ r7: .cfa -24 + ^ r8: .cfa -20 + ^ r9: .cfa -16 + ^
STACK CFI 556c .cfa: sp 72 +
STACK CFI INIT 594c 8 .cfa: sp 0 + .ra: lr
STACK CFI INIT 5954 8 .cfa: sp 0 + .ra: lr
STACK CFI INIT 595c 8 .cfa: sp 0 + .ra: lr
STACK CFI INIT 5964 34c .cfa: sp 0 + .ra: lr
STACK CFI 5968 .cfa: sp 28 + .ra: .cfa -4 + ^ r4: .cfa -28 + ^ r5: .cfa -24 + ^ r6: .cfa -20 + ^ r7: .cfa -16 + ^ r8: .cfa -12 + ^ r9: .cfa -8 + ^
STACK CFI 5970 .cfa: sp 296 +
STACK CFI INIT 5e58 60 .cfa: sp 0 + .ra: lr
STACK CFI INIT 5eb8 28 .cfa: sp 0 + .ra: lr
STACK CFI 5ebc .cfa: sp 24 + .ra: .cfa -4 + ^ r0: .cfa -24 + ^ r1: .cfa -20 + ^ r2: .cfa -16 + ^ r3: .cfa -12 + ^ r4: .cfa -8 + ^
STACK CFI INIT 5ee0 4 .cfa: sp 0 + .ra: lr
STACK CFI INIT 5ee4 37c .cfa: sp 0 + .ra: lr
STACK CFI 5ee8 .cfa: sp 48 + .ra: .cfa -4 + ^ r0: .cfa -48 + ^ r1: .cfa -44 + ^ r10: .cfa -8 + ^ r2: .cfa -40 + ^ r3: .cfa -36 + ^ r4: .cfa -32 + ^ r5: .cfa -28 + ^ r6: .cfa -24 + ^ r7: .cfa -20 + ^ r8: .cfa -16 + ^ r9: .cfa -12 + ^
STACK CFI INIT 6260 40 .cfa: sp 0 + .ra: lr
STACK CFI 6264 .cfa: sp 24 + .ra: .cfa -4 + ^ r0: .cfa -24 + ^ r1: .cfa -20 + ^ r2: .cfa -16 + ^ r3: .cfa -12 + ^ r4: .cfa -8 + ^
STACK CFI INIT 62a0 10 .cfa: sp 0 + .ra: lr
STACK CFI 62a4 .cfa: sp 8 + .ra: .cfa -4 + ^ r3: .cfa -8 + ^
STACK CFI INIT 62b0 1c .cfa: sp 0 + .ra: lr
STACK CFI 62b4 .cfa: sp 8 + .ra: .cfa -4 + ^ r3: .cfa -8 + ^
STACK CFI INIT 62cc 8 .cfa: sp 0 + .ra: lr
STACK CFI 62d0 .cfa: sp 8 + .ra: .cfa -4 + ^ r3: .cfa -8 + ^
STACK CFI INIT 62d4 8 .cfa: sp 0 + .ra: lr
STACK CFI 62d8 .cfa: sp 8 + .ra: .cfa -4 + ^ r3: .cfa -8 + ^
