MODULE Linux arm E66E6182EAB3FB37B93691E3D365CA810 libXBMC_addon-arm.so
FUNC 10f0 80 0 XBMC_register_me
FUNC 1170 20 0 XBMC_unregister_me
FUNC 1190 24 0 XBMC_log
FUNC 11b4 2c 0 XBMC_get_setting
FUNC 11e0 24 0 XBMC_queue_notification
FUNC 1204 24 0 XBMC_wake_on_lan
FUNC 1228 24 0 XBMC_unknown_to_utf8
FUNC 124c 30 0 XBMC_get_localized_string
FUNC 127c 2c 0 XBMC_get_dvd_menu_language
FUNC 12a8 20 0 XBMC_free_string
FUNC 12c8 2c 0 XBMC_open_file
FUNC 12f4 2c 0 XBMC_open_file_for_write
FUNC 1320 30 0 XBMC_read_file
FUNC 1350 30 0 XBMC_read_file_string
FUNC 1380 30 0 XBMC_write_file
FUNC 13b0 20 0 XBMC_flush_file
FUNC 13d0 40 0 XBMC_seek_file
FUNC 1410 2c 0 XBMC_truncate_file
FUNC 143c 34 0 XBMC_get_file_position
FUNC 1470 34 0 XBMC_get_file_length
FUNC 14a4 20 0 XBMC_close_file
FUNC 14c4 28 0 XBMC_get_file_chunk_size
FUNC 14ec 2c 0 XBMC_file_exists
FUNC 1518 2c 0 XBMC_stat_file
FUNC 1544 28 0 XBMC_delete_file
FUNC 156c 28 0 XBMC_can_open_directory
FUNC 1594 28 0 XBMC_create_directory
FUNC 15bc 28 0 XBMC_directory_exists
FUNC 15e4 28 0 XBMC_remove_directory
FUNC 160c 18 0 selfrel_offset31
FUNC 1624 ac 0 search_EIT_table
FUNC 16d0 50 0 __gnu_unwind_get_pr_addr
FUNC 1720 10c 0 get_eit_entry
FUNC 182c 6c 0 restore_non_core_regs
FUNC 1898 14 0 _Unwind_decode_typeinfo_ptr
FUNC 18ac 8 0 __gnu_unwind_24bit
FUNC 18b4 4 0 _Unwind_DebugHook
FUNC 18b8 64 0 unwind_phase2
FUNC 191c 124 0 unwind_phase2_forced
FUNC 1a40 8 0 _Unwind_GetCFA
FUNC 1a48 a4 0 __gnu_Unwind_RaiseException
FUNC 1aec 1c 0 __gnu_Unwind_ForcedUnwind
FUNC 1b08 74 0 __gnu_Unwind_Resume
FUNC 1b7c 20 0 __gnu_Unwind_Resume_or_Rethrow
FUNC 1b9c 4 0 _Unwind_Complete
FUNC 1ba0 20 0 _Unwind_DeleteException
FUNC 1bc0 5c 0 _Unwind_VRS_Get
FUNC 1c1c 28 0 _Unwind_GetGR
FUNC 1c44 5c 0 _Unwind_VRS_Set
FUNC 1ca0 2c 0 _Unwind_SetGR
FUNC 1ccc c4 0 __gnu_Unwind_Backtrace
FUNC 1d90 3f0 0 __gnu_unwind_pr_common
FUNC 2180 8 0 __aeabi_unwind_cpp_pr0
FUNC 2188 8 0 __aeabi_unwind_cpp_pr1
FUNC 2190 8 0 __aeabi_unwind_cpp_pr2
FUNC 2198 34c 0 _Unwind_VRS_Pop
FUNC 268c 60 0 next_unwind_byte
FUNC 26ec 28 0 _Unwind_GetGR
FUNC 2714 4 0 unwind_UCB_from_context
FUNC 2718 37c 0 __gnu_unwind_execute
FUNC 2a94 40 0 __gnu_unwind_frame
FUNC 2ad4 10 0 _Unwind_GetRegionStart
FUNC 2ae4 1c 0 _Unwind_GetLanguageSpecificData
FUNC 2b00 8 0 _Unwind_GetDataRelBase
FUNC 2b08 8 0 _Unwind_GetTextRelBase
PUBLIC 10f0 0 XBMC_register_me
PUBLIC 1170 0 XBMC_unregister_me
PUBLIC 1190 0 XBMC_log
PUBLIC 11b4 0 XBMC_get_setting
PUBLIC 11e0 0 XBMC_queue_notification
PUBLIC 1204 0 XBMC_wake_on_lan
PUBLIC 1228 0 XBMC_unknown_to_utf8
PUBLIC 124c 0 XBMC_get_localized_string
PUBLIC 127c 0 XBMC_get_dvd_menu_language
PUBLIC 12a8 0 XBMC_free_string
PUBLIC 12c8 0 XBMC_open_file
PUBLIC 12f4 0 XBMC_open_file_for_write
PUBLIC 1320 0 XBMC_read_file
PUBLIC 1350 0 XBMC_read_file_string
PUBLIC 1380 0 XBMC_write_file
PUBLIC 13b0 0 XBMC_flush_file
PUBLIC 13d0 0 XBMC_seek_file
PUBLIC 1410 0 XBMC_truncate_file
PUBLIC 143c 0 XBMC_get_file_position
PUBLIC 1470 0 XBMC_get_file_length
PUBLIC 14a4 0 XBMC_close_file
PUBLIC 14c4 0 XBMC_get_file_chunk_size
PUBLIC 14ec 0 XBMC_file_exists
PUBLIC 1518 0 XBMC_stat_file
PUBLIC 1544 0 XBMC_delete_file
PUBLIC 156c 0 XBMC_can_open_directory
PUBLIC 1594 0 XBMC_create_directory
PUBLIC 15bc 0 XBMC_directory_exists
PUBLIC 15e4 0 XBMC_remove_directory
PUBLIC 1a40 0 _Unwind_GetCFA
PUBLIC 1a48 0 __gnu_Unwind_RaiseException
PUBLIC 1aec 0 __gnu_Unwind_ForcedUnwind
PUBLIC 1b08 0 __gnu_Unwind_Resume
PUBLIC 1b7c 0 __gnu_Unwind_Resume_or_Rethrow
PUBLIC 1b9c 0 _Unwind_Complete
PUBLIC 1ba0 0 _Unwind_DeleteException
PUBLIC 1bc0 0 _Unwind_VRS_Get
PUBLIC 1c44 0 _Unwind_VRS_Set
PUBLIC 1ccc 0 __gnu_Unwind_Backtrace
PUBLIC 2180 0 __aeabi_unwind_cpp_pr0
PUBLIC 2188 0 __aeabi_unwind_cpp_pr1
PUBLIC 2190 0 __aeabi_unwind_cpp_pr2
PUBLIC 2198 0 _Unwind_VRS_Pop
PUBLIC 24e4 0 restore_core_regs
PUBLIC 24f8 0 __gnu_Unwind_Restore_VFP
PUBLIC 2500 0 __gnu_Unwind_Save_VFP
PUBLIC 2508 0 __gnu_Unwind_Restore_VFP_D
PUBLIC 2510 0 __gnu_Unwind_Save_VFP_D
PUBLIC 2518 0 __gnu_Unwind_Restore_VFP_D_16_to_31
PUBLIC 2520 0 __gnu_Unwind_Save_VFP_D_16_to_31
PUBLIC 2528 0 __gnu_Unwind_Restore_WMMXD
PUBLIC 256c 0 __gnu_Unwind_Save_WMMXD
PUBLIC 25b0 0 __gnu_Unwind_Restore_WMMXC
PUBLIC 25c4 0 __gnu_Unwind_Save_WMMXC
PUBLIC 25d8 0 ___Unwind_RaiseException
PUBLIC 25fc 0 ___Unwind_Resume
PUBLIC 2620 0 ___Unwind_Resume_or_Rethrow
PUBLIC 2644 0 ___Unwind_ForcedUnwind
PUBLIC 2668 0 ___Unwind_Backtrace
PUBLIC 2718 0 __gnu_unwind_execute
PUBLIC 2a94 0 __gnu_unwind_frame
PUBLIC 2ad4 0 _Unwind_GetRegionStart
PUBLIC 2ae4 0 _Unwind_GetLanguageSpecificData
PUBLIC 2b00 0 _Unwind_GetDataRelBase
PUBLIC 2b08 0 _Unwind_GetTextRelBase
STACK CFI INIT 10f0 80 .cfa: sp 0 + .ra: lr
STACK CFI 10f8 .cfa: sp 8 + .ra: .cfa -4 + ^ r4: .cfa -8 + ^
STACK CFI INIT 1170 20 .cfa: sp 0 + .ra: lr
STACK CFI 117c .cfa: sp 8 + .ra: .cfa -4 + ^ r3: .cfa -8 + ^
STACK CFI INIT 1190 24 .cfa: sp 0 + .ra: lr
STACK CFI 1198 .cfa: sp 8 + .ra: .cfa -4 + ^ r3: .cfa -8 + ^
STACK CFI INIT 11b4 2c .cfa: sp 0 + .ra: lr
STACK CFI 11bc .cfa: sp 8 + .ra: .cfa -4 + ^ r3: .cfa -8 + ^
STACK CFI INIT 11e0 24 .cfa: sp 0 + .ra: lr
STACK CFI 11e8 .cfa: sp 8 + .ra: .cfa -4 + ^ r3: .cfa -8 + ^
STACK CFI INIT 1204 24 .cfa: sp 0 + .ra: lr
STACK CFI 120c .cfa: sp 8 + .ra: .cfa -4 + ^ r3: .cfa -8 + ^
STACK CFI INIT 1228 24 .cfa: sp 0 + .ra: lr
STACK CFI 1230 .cfa: sp 8 + .ra: .cfa -4 + ^ r3: .cfa -8 + ^
STACK CFI INIT 124c 30 .cfa: sp 0 + .ra: lr
STACK CFI 1254 .cfa: sp 8 + .ra: .cfa -4 + ^ r3: .cfa -8 + ^
STACK CFI INIT 127c 2c .cfa: sp 0 + .ra: lr
STACK CFI 1284 .cfa: sp 8 + .ra: .cfa -4 + ^ r3: .cfa -8 + ^
STACK CFI INIT 12a8 20 .cfa: sp 0 + .ra: lr
STACK CFI 12b0 .cfa: sp 8 + .ra: .cfa -4 + ^ r3: .cfa -8 + ^
STACK CFI INIT 12c8 2c .cfa: sp 0 + .ra: lr
STACK CFI 12d0 .cfa: sp 8 + .ra: .cfa -4 + ^ r3: .cfa -8 + ^
STACK CFI INIT 12f4 2c .cfa: sp 0 + .ra: lr
STACK CFI 12fc .cfa: sp 8 + .ra: .cfa -4 + ^ r3: .cfa -8 + ^
STACK CFI INIT 1320 30 .cfa: sp 0 + .ra: lr
STACK CFI 1328 .cfa: sp 8 + .ra: .cfa -4 + ^ r3: .cfa -8 + ^
STACK CFI INIT 1350 30 .cfa: sp 0 + .ra: lr
STACK CFI 1358 .cfa: sp 8 + .ra: .cfa -4 + ^ r3: .cfa -8 + ^
STACK CFI INIT 1380 30 .cfa: sp 0 + .ra: lr
STACK CFI 1388 .cfa: sp 8 + .ra: .cfa -4 + ^ r3: .cfa -8 + ^
STACK CFI INIT 13b0 20 .cfa: sp 0 + .ra: lr
STACK CFI 13b8 .cfa: sp 8 + .ra: .cfa -4 + ^ r3: .cfa -8 + ^
STACK CFI INIT 13d0 40 .cfa: sp 0 + .ra: lr
STACK CFI 13d8 .cfa: sp 12 + .ra: .cfa -4 + ^ r4: .cfa -12 + ^ r5: .cfa -8 + ^
STACK CFI 13e0 .cfa: sp 24 +
STACK CFI INIT 1410 2c .cfa: sp 0 + .ra: lr
STACK CFI 1418 .cfa: sp 16 + .ra: .cfa -4 + ^ r3: .cfa -16 + ^ r4: .cfa -12 + ^ r5: .cfa -8 + ^
STACK CFI INIT 143c 34 .cfa: sp 0 + .ra: lr
STACK CFI 1444 .cfa: sp 8 + .ra: .cfa -4 + ^ r3: .cfa -8 + ^
STACK CFI INIT 1470 34 .cfa: sp 0 + .ra: lr
STACK CFI 1478 .cfa: sp 8 + .ra: .cfa -4 + ^ r3: .cfa -8 + ^
STACK CFI INIT 14a4 20 .cfa: sp 0 + .ra: lr
STACK CFI 14ac .cfa: sp 8 + .ra: .cfa -4 + ^ r3: .cfa -8 + ^
STACK CFI INIT 14c4 28 .cfa: sp 0 + .ra: lr
STACK CFI 14cc .cfa: sp 8 + .ra: .cfa -4 + ^ r3: .cfa -8 + ^
STACK CFI INIT 14ec 2c .cfa: sp 0 + .ra: lr
STACK CFI 14f4 .cfa: sp 8 + .ra: .cfa -4 + ^ r3: .cfa -8 + ^
STACK CFI INIT 1518 2c .cfa: sp 0 + .ra: lr
STACK CFI 1520 .cfa: sp 8 + .ra: .cfa -4 + ^ r3: .cfa -8 + ^
STACK CFI INIT 1544 28 .cfa: sp 0 + .ra: lr
STACK CFI 154c .cfa: sp 8 + .ra: .cfa -4 + ^ r3: .cfa -8 + ^
STACK CFI INIT 156c 28 .cfa: sp 0 + .ra: lr
STACK CFI 1574 .cfa: sp 8 + .ra: .cfa -4 + ^ r3: .cfa -8 + ^
STACK CFI INIT 1594 28 .cfa: sp 0 + .ra: lr
STACK CFI 159c .cfa: sp 8 + .ra: .cfa -4 + ^ r3: .cfa -8 + ^
STACK CFI INIT 15bc 28 .cfa: sp 0 + .ra: lr
STACK CFI 15c4 .cfa: sp 8 + .ra: .cfa -4 + ^ r3: .cfa -8 + ^
STACK CFI INIT 15e4 28 .cfa: sp 0 + .ra: lr
STACK CFI 15ec .cfa: sp 8 + .ra: .cfa -4 + ^ r3: .cfa -8 + ^
STACK CFI INIT 160c 18 .cfa: sp 0 + .ra: lr
STACK CFI INIT 1624 ac .cfa: sp 0 + .ra: lr
STACK CFI 1628 .cfa: sp 48 + .ra: .cfa -4 + ^ r0: .cfa -48 + ^ r1: .cfa -44 + ^ r10: .cfa -12 + ^ r11: .cfa -8 + ^ r2: .cfa -40 + ^ r4: .cfa -36 + ^ r5: .cfa -32 + ^ r6: .cfa -28 + ^ r7: .cfa -24 + ^ r8: .cfa -20 + ^ r9: .cfa -16 + ^
STACK CFI INIT 16d0 50 .cfa: sp 0 + .ra: lr
STACK CFI INIT 1720 10c .cfa: sp 0 + .ra: lr
STACK CFI 1728 .cfa: sp 24 + .ra: .cfa -4 + ^ r0: .cfa -24 + ^ r1: .cfa -20 + ^ r2: .cfa -16 + ^ r4: .cfa -12 + ^ r5: .cfa -8 + ^
STACK CFI INIT 182c 6c .cfa: sp 0 + .ra: lr
STACK CFI 1834 .cfa: sp 8 + .ra: .cfa -4 + ^ r4: .cfa -8 + ^
STACK CFI INIT 1898 14 .cfa: sp 0 + .ra: lr
STACK CFI INIT 18ac 8 .cfa: sp 0 + .ra: lr
STACK CFI INIT 18b4 4 .cfa: sp 0 + .ra: lr
STACK CFI INIT 18b8 64 .cfa: sp 0 + .ra: lr
STACK CFI 18bc .cfa: sp 16 + .ra: .cfa -4 + ^ r4: .cfa -16 + ^ r5: .cfa -12 + ^ r6: .cfa -8 + ^
STACK CFI INIT 191c 124 .cfa: sp 0 + .ra: lr
STACK CFI 1920 .cfa: sp 36 + .ra: .cfa -4 + ^ r10: .cfa -12 + ^ r11: .cfa -8 + ^ r4: .cfa -36 + ^ r5: .cfa -32 + ^ r6: .cfa -28 + ^ r7: .cfa -24 + ^ r8: .cfa -20 + ^ r9: .cfa -16 + ^
STACK CFI 193c .cfa: sp 1008 +
STACK CFI INIT 1a40 8 .cfa: sp 0 + .ra: lr
STACK CFI INIT 1a48 a4 .cfa: sp 0 + .ra: lr
STACK CFI 1a50 .cfa: sp 20 + .ra: .cfa -4 + ^ r4: .cfa -20 + ^ r5: .cfa -16 + ^ r6: .cfa -12 + ^ r7: .cfa -8 + ^
STACK CFI 1a64 .cfa: sp 504 +
STACK CFI INIT 1aec 1c .cfa: sp 0 + .ra: lr
STACK CFI INIT 1b08 74 .cfa: sp 0 + .ra: lr
STACK CFI 1b0c .cfa: sp 16 + .ra: .cfa -4 + ^ r4: .cfa -16 + ^ r5: .cfa -12 + ^ r6: .cfa -8 + ^
STACK CFI INIT 1b7c 20 .cfa: sp 0 + .ra: lr
STACK CFI INIT 1b9c 4 .cfa: sp 0 + .ra: lr
STACK CFI INIT 1ba0 20 .cfa: sp 0 + .ra: lr
STACK CFI 1ba4 .cfa: sp 8 + .ra: .cfa -4 + ^ r3: .cfa -8 + ^
STACK CFI INIT 1bc0 5c .cfa: sp 0 + .ra: lr
STACK CFI INIT 1c1c 28 .cfa: sp 0 + .ra: lr
STACK CFI 1c20 .cfa: sp 24 + .ra: .cfa -4 + ^ r0: .cfa -24 + ^ r1: .cfa -20 + ^ r2: .cfa -16 + ^ r3: .cfa -12 + ^ r4: .cfa -8 + ^
STACK CFI INIT 1c44 5c .cfa: sp 0 + .ra: lr
STACK CFI INIT 1ca0 2c .cfa: sp 0 + .ra: lr
STACK CFI 1ca4 .cfa: sp 24 + .ra: .cfa -4 + ^ r0: .cfa -24 + ^ r1: .cfa -20 + ^ r2: .cfa -16 + ^ r3: .cfa -12 + ^ r4: .cfa -8 + ^
STACK CFI INIT 1ccc c4 .cfa: sp 0 + .ra: lr
STACK CFI 1cd4 .cfa: sp 24 + .ra: .cfa -4 + ^ r4: .cfa -24 + ^ r5: .cfa -20 + ^ r6: .cfa -16 + ^ r7: .cfa -12 + ^ r8: .cfa -8 + ^
STACK CFI 1ce8 .cfa: sp 592 +
STACK CFI INIT 1d90 3f0 .cfa: sp 0 + .ra: lr
STACK CFI 1d94 .cfa: sp 36 + .ra: .cfa -4 + ^ r10: .cfa -12 + ^ r11: .cfa -8 + ^ r4: .cfa -36 + ^ r5: .cfa -32 + ^ r6: .cfa -28 + ^ r7: .cfa -24 + ^ r8: .cfa -20 + ^ r9: .cfa -16 + ^
STACK CFI 1da0 .cfa: sp 72 +
STACK CFI INIT 2180 8 .cfa: sp 0 + .ra: lr
STACK CFI INIT 2188 8 .cfa: sp 0 + .ra: lr
STACK CFI INIT 2190 8 .cfa: sp 0 + .ra: lr
STACK CFI INIT 2198 34c .cfa: sp 0 + .ra: lr
STACK CFI 219c .cfa: sp 28 + .ra: .cfa -4 + ^ r4: .cfa -28 + ^ r5: .cfa -24 + ^ r6: .cfa -20 + ^ r7: .cfa -16 + ^ r8: .cfa -12 + ^ r9: .cfa -8 + ^
STACK CFI 21a4 .cfa: sp 296 +
STACK CFI INIT 268c 60 .cfa: sp 0 + .ra: lr
STACK CFI INIT 26ec 28 .cfa: sp 0 + .ra: lr
STACK CFI 26f0 .cfa: sp 24 + .ra: .cfa -4 + ^ r0: .cfa -24 + ^ r1: .cfa -20 + ^ r2: .cfa -16 + ^ r3: .cfa -12 + ^ r4: .cfa -8 + ^
STACK CFI INIT 2714 4 .cfa: sp 0 + .ra: lr
STACK CFI INIT 2718 37c .cfa: sp 0 + .ra: lr
STACK CFI 271c .cfa: sp 48 + .ra: .cfa -4 + ^ r0: .cfa -48 + ^ r1: .cfa -44 + ^ r10: .cfa -8 + ^ r2: .cfa -40 + ^ r3: .cfa -36 + ^ r4: .cfa -32 + ^ r5: .cfa -28 + ^ r6: .cfa -24 + ^ r7: .cfa -20 + ^ r8: .cfa -16 + ^ r9: .cfa -12 + ^
STACK CFI INIT 2a94 40 .cfa: sp 0 + .ra: lr
STACK CFI 2a98 .cfa: sp 24 + .ra: .cfa -4 + ^ r0: .cfa -24 + ^ r1: .cfa -20 + ^ r2: .cfa -16 + ^ r3: .cfa -12 + ^ r4: .cfa -8 + ^
STACK CFI INIT 2ad4 10 .cfa: sp 0 + .ra: lr
STACK CFI 2ad8 .cfa: sp 8 + .ra: .cfa -4 + ^ r3: .cfa -8 + ^
STACK CFI INIT 2ae4 1c .cfa: sp 0 + .ra: lr
STACK CFI 2ae8 .cfa: sp 8 + .ra: .cfa -4 + ^ r3: .cfa -8 + ^
STACK CFI INIT 2b00 8 .cfa: sp 0 + .ra: lr
STACK CFI 2b04 .cfa: sp 8 + .ra: .cfa -4 + ^ r3: .cfa -8 + ^
STACK CFI INIT 2b08 8 .cfa: sp 0 + .ra: lr
STACK CFI 2b0c .cfa: sp 8 + .ra: .cfa -4 + ^ r3: .cfa -8 + ^
