MODULE Linux arm 89C05F8B76C7DA6FA1C1052EB5D1AD9A0 libcurl.so
FUNC 4a43c 44 0 __fixdfdi
FUNC 4a480 68 0 __fixunsdfdi
PUBLIC bbfc 0 curl_formadd
PUBLIC c68c 0 curl_formfree
PUBLIC cce4 0 curl_formget
PUBLIC 1eda8 0 curl_version
PUBLIC 1ee78 0 curl_version_info
PUBLIC 1eeb8 0 curl_getenv
PUBLIC 1eef4 0 curl_easy_escape
PUBLIC 1f05c 0 curl_escape
PUBLIC 1f1cc 0 curl_easy_unescape
PUBLIC 1f224 0 curl_unescape
PUBLIC 1f23c 0 curl_free
PUBLIC 1f3b8 0 curl_msnprintf
PUBLIC 203a0 0 curl_mvsnprintf
PUBLIC 203f0 0 curl_maprintf
PUBLIC 204b4 0 curl_mvaprintf
PUBLIC 20564 0 curl_msprintf
PUBLIC 205ac 0 curl_mprintf
PUBLIC 205f0 0 curl_mfprintf
PUBLIC 20624 0 curl_mvsprintf
PUBLIC 20664 0 curl_mvprintf
PUBLIC 2068c 0 curl_mvfprintf
PUBLIC 247e0 0 curl_strequal
PUBLIC 247f4 0 curl_strnequal
PUBLIC 248bc 0 curl_global_init
PUBLIC 2499c 0 curl_global_init_mem
PUBLIC 24a38 0 curl_global_cleanup
PUBLIC 24a90 0 curl_easy_init
PUBLIC 24ae0 0 curl_easy_setopt
PUBLIC 24b14 0 curl_easy_perform
PUBLIC 24d30 0 curl_easy_cleanup
PUBLIC 24d80 0 curl_easy_getinfo
PUBLIC 24dac 0 curl_easy_duphandle
PUBLIC 24fa0 0 curl_easy_reset
PUBLIC 25038 0 curl_easy_pause
PUBLIC 25190 0 curl_easy_recv
PUBLIC 251ec 0 curl_easy_send
PUBLIC 2946c 0 curl_multi_init
PUBLIC 29494 0 curl_multi_fdset
PUBLIC 29598 0 curl_multi_wait
PUBLIC 29880 0 curl_multi_cleanup
PUBLIC 299f8 0 curl_multi_info_read
PUBLIC 29adc 0 curl_multi_setopt
PUBLIC 29c6c 0 curl_multi_timeout
PUBLIC 29e84 0 curl_multi_add_handle
PUBLIC 2a000 0 curl_multi_remove_handle
PUBLIC 2a2b0 0 curl_multi_assign
PUBLIC 2b320 0 curl_multi_perform
PUBLIC 2b6e4 0 curl_multi_socket
PUBLIC 2b720 0 curl_multi_socket_action
PUBLIC 2b760 0 curl_multi_socket_all
PUBLIC 2bf20 0 curl_share_init
PUBLIC 2bf54 0 curl_share_setopt
PUBLIC 2c14c 0 curl_share_cleanup
PUBLIC 2d020 0 curl_easy_strerror
PUBLIC 2d6c8 0 curl_multi_strerror
PUBLIC 2d79c 0 curl_share_strerror
PUBLIC 2da30 0 curl_getdate
PUBLIC 315a8 0 curl_slist_append
PUBLIC 31610 0 curl_slist_free_all
PUBLIC 42c30 0 SSLeay_version
PUBLIC 42d3c 0 SSLeay
PUBLIC 42fc8 0 ENGINE_set_default
PUBLIC 43100 0 ENGINE_set_default_string
PUBLIC 431a8 0 ENGINE_register_complete
PUBLIC 431fc 0 ENGINE_register_all_complete
PUBLIC 4324c 0 ENGINE_load_builtin_engines
PUBLIC 43ab8 0 ENGINE_load_dynamic
PUBLIC 43ba4 0 ENGINE_load_rsax
PUBLIC 43ba8 0 ENGINE_load_rdrand
PUBLIC 43bac 0 RAND_load_file
PUBLIC 43cd8 0 RAND_write_file
PUBLIC 43dcc 0 RAND_file_name
PUBLIC 43ee0 0 OPENSSL_add_all_algorithms_noconf
PUBLIC 43ef4 0 OpenSSL_add_all_ciphers
PUBLIC 44a88 0 EVP_rc4_hmac_md5
PUBLIC 44a98 0 X509_verify_cert_error_string
PUBLIC 45114 0 PKCS12_parse
PUBLIC 45740 0 PKCS12_gen_mac
PUBLIC 457c0 0 PKCS12_verify_mac
PUBLIC 458a0 0 PKCS12_setup_mac
PUBLIC 45a8c 0 PKCS12_set_mac
PUBLIC 45bc8 0 OPENSSL_issetugid
PUBLIC 45e84 0 EVP_bf_cbc
PUBLIC 45e94 0 EVP_bf_cfb64
PUBLIC 45ea8 0 EVP_bf_ofb
PUBLIC 45ebc 0 EVP_bf_ecb
PUBLIC 45fec 0 EVP_desx_cbc
PUBLIC 46280 0 EVP_cast5_cbc
PUBLIC 46290 0 EVP_cast5_cfb64
PUBLIC 462a4 0 EVP_cast5_ofb
PUBLIC 462b8 0 EVP_cast5_ecb
PUBLIC 462cc 0 PKCS12_add_localkeyid
PUBLIC 462fc 0 PKCS8_add_keyusage
PUBLIC 46334 0 PKCS12_add_friendlyname_asc
PUBLIC 46368 0 PKCS12_add_friendlyname_uni
PUBLIC 4639c 0 PKCS12_add_CSPName_asc
PUBLIC 463d4 0 PKCS12_get_attr_gen
PUBLIC 46448 0 PKCS12_get_friendlyname
PUBLIC 46488 0 DES_xcbc_encrypt
PUBLIC 46bac 0 BF_set_key
PUBLIC 46cac 0 BF_options
PUBLIC 46cbc 0 BF_ecb_encrypt
PUBLIC 46d70 0 BF_encrypt
PUBLIC 472dc 0 BF_decrypt
PUBLIC 47848 0 BF_cbc_encrypt
PUBLIC 47e2c 0 BF_cfb64_encrypt
PUBLIC 47ffc 0 BF_ofb64_encrypt
PUBLIC 4819c 0 CAST_set_key
PUBLIC 48f88 0 CAST_ecb_encrypt
PUBLIC 4903c 0 CAST_encrypt
PUBLIC 4955c 0 CAST_decrypt
PUBLIC 49aa4 0 CAST_cbc_encrypt
PUBLIC 4a088 0 CAST_cfb64_encrypt
PUBLIC 4a258 0 CAST_ofb64_encrypt
PUBLIC 4a3f8 0 __aeabi_ldivmod
PUBLIC 4a43c 0 __aeabi_d2lz
PUBLIC 4a480 0 __aeabi_d2ulz
PUBLIC 4a4e8 0 __aeabi_d2uiz
STACK CFI INIT 4a43c 44 .cfa: sp 0 + .ra: lr
STACK CFI 4a440 .cfa: sp 16 + .ra: .cfa -4 + ^ r3: .cfa -16 + ^ r4: .cfa -12 + ^ r5: .cfa -8 + ^
STACK CFI INIT 4a480 68 .cfa: sp 0 + .ra: lr
STACK CFI 4a484 .cfa: sp 16 + .ra: .cfa -4 + ^ r4: .cfa -16 + ^ r5: .cfa -12 + ^ r6: .cfa -8 + ^
