MODULE Linux arm FA7B05113BE331326D097C08B02F58BB0 lib_imagingft.so
FUNC 50918 18 0 selfrel_offset31
FUNC 50930 ac 0 search_EIT_table
FUNC 509dc 50 0 __gnu_unwind_get_pr_addr
FUNC 50a2c 110 0 get_eit_entry
FUNC 50b3c 6c 0 restore_non_core_regs
FUNC 50ba8 14 0 _Unwind_decode_typeinfo_ptr
FUNC 50bbc 8 0 __gnu_unwind_24bit
FUNC 50bc4 4 0 _Unwind_DebugHook
FUNC 50bc8 64 0 unwind_phase2
FUNC 50c2c 124 0 unwind_phase2_forced
FUNC 50d50 8 0 _Unwind_GetCFA
FUNC 50d58 a4 0 __gnu_Unwind_RaiseException
FUNC 50dfc 1c 0 __gnu_Unwind_ForcedUnwind
FUNC 50e18 74 0 __gnu_Unwind_Resume
FUNC 50e8c 20 0 __gnu_Unwind_Resume_or_Rethrow
FUNC 50eac 4 0 _Unwind_Complete
FUNC 50eb0 20 0 _Unwind_DeleteException
FUNC 50ed0 5c 0 _Unwind_VRS_Get
FUNC 50f2c 28 0 _Unwind_GetGR
FUNC 50f54 5c 0 _Unwind_VRS_Set
FUNC 50fb0 2c 0 _Unwind_SetGR
FUNC 50fdc c4 0 __gnu_Unwind_Backtrace
FUNC 510a0 3f4 0 __gnu_unwind_pr_common
FUNC 51494 8 0 __aeabi_unwind_cpp_pr0
FUNC 5149c 8 0 __aeabi_unwind_cpp_pr1
FUNC 514a4 8 0 __aeabi_unwind_cpp_pr2
FUNC 514ac 358 0 _Unwind_VRS_Pop
FUNC 519ac 60 0 next_unwind_byte
FUNC 51a0c 28 0 _Unwind_GetGR
FUNC 51a34 4 0 unwind_UCB_from_context
FUNC 51a38 37c 0 __gnu_unwind_execute
FUNC 51db4 40 0 __gnu_unwind_frame
FUNC 51df4 10 0 _Unwind_GetRegionStart
FUNC 51e04 1c 0 _Unwind_GetLanguageSpecificData
FUNC 51e20 8 0 _Unwind_GetDataRelBase
FUNC 51e28 8 0 _Unwind_GetTextRelBase
PUBLIC 9fb8 0 init_imagingft
PUBLIC a070 0 FT_Add_Default_Modules
PUBLIC a0a4 0 FT_Init_FreeType
PUBLIC a0ec 0 FT_Done_FreeType
PUBLIC a554 0 FT_RoundFix
PUBLIC a578 0 FT_CeilFix
PUBLIC a5a4 0 FT_FloorFix
PUBLIC a5c4 0 FT_Sqrt32
PUBLIC a5f8 0 FT_MulDiv
PUBLIC a71c 0 FT_MulDiv_No_Round
PUBLIC a7bc 0 FT_MulFix
PUBLIC a848 0 FT_DivFix
PUBLIC a8b8 0 FT_Matrix_Multiply
PUBLIC a964 0 FT_Matrix_Invert
PUBLIC a9ec 0 FT_Matrix_Multiply_Scaled
PUBLIC aabc 0 FT_Vector_Transform_Scaled
PUBLIC ab34 0 FT_SqrtFixed
PUBLIC ab84 0 ft_corner_orientation
PUBLIC ac4c 0 ft_corner_is_flat
PUBLIC acac 0 FT_GlyphLoader_Rewind
PUBLIC ace4 0 FT_GlyphLoader_Prepare
PUBLIC ad14 0 FT_GlyphLoader_Add
PUBLIC ad88 0 ft_service_list_lookup
PUBLIC add8 0 ft_validator_init
PUBLIC adf0 0 ft_validator_run
PUBLIC adf8 0 ft_validator_error
PUBLIC ae0c 0 FT_Set_Transform
PUBLIC aebc 0 FT_Reference_Face
PUBLIC aed4 0 FT_Match_Size
PUBLIC aff0 0 ft_synthesize_vertical_metrics
PUBLIC b060 0 FT_Select_Metrics
PUBLIC b0f8 0 FT_Request_Metrics
PUBLIC b32c 0 FT_Select_Size
PUBLIC b394 0 FT_Request_Size
PUBLIC b43c 0 FT_Set_Char_Size
PUBLIC b4b0 0 FT_Set_Pixel_Sizes
PUBLIC b528 0 FT_Get_Kerning
PUBLIC b624 0 FT_Get_Track_Kerning
PUBLIC b6a4 0 FT_Select_Charmap
PUBLIC b738 0 FT_Get_Charmap_Index
PUBLIC b794 0 FT_Get_Char_Index
PUBLIC b7bc 0 FT_Get_Next_Char
PUBLIC b840 0 FT_Get_First_Char
PUBLIC b8b8 0 FT_Get_Name_Index
PUBLIC b950 0 FT_Get_Glyph_Name
PUBLIC ba18 0 FT_Get_Postscript_Name
PUBLIC ba9c 0 FT_Get_Sfnt_Table
PUBLIC bb00 0 FT_Load_Sfnt_Table
PUBLIC bb88 0 FT_Sfnt_Table_Info
PUBLIC bc10 0 FT_Get_CMap_Language_ID
PUBLIC bc80 0 FT_Get_CMap_Format
PUBLIC bcf0 0 FT_Set_Charmap
PUBLIC bdd8 0 FT_Face_GetCharVariantIndex
PUBLIC be3c 0 FT_Face_GetCharVariantIsDefault
PUBLIC be7c 0 FT_Face_GetVariantSelectors
PUBLIC beb0 0 FT_Face_GetVariantsOfChar
PUBLIC beec 0 FT_Face_GetCharsOfVariant
PUBLIC bf28 0 FT_Activate_Size
PUBLIC bf5c 0 FT_Lookup_Renderer
PUBLIC bfb8 0 FT_Get_Renderer
PUBLIC bfc0 0 FT_Get_Module
PUBLIC c014 0 FT_Get_Module_Interface
PUBLIC c02c 0 ft_module_get_service
PUBLIC c0b4 0 FT_Reference_Library
PUBLIC c0c8 0 FT_Library_Version
PUBLIC c100 0 FT_Set_Debug_Hook
PUBLIC c11c 0 FT_Get_TrueType_Engine_Type
PUBLIC c168 0 ft_stub_set_char_sizes
PUBLIC c1d8 0 ft_stub_set_pixel_sizes
PUBLIC c228 0 FT_Get_SubGlyph_Info
PUBLIC c2a4 0 FT_Outline_Decompose
PUBLIC c678 0 FT_Outline_Check
PUBLIC c710 0 FT_Outline_Copy
PUBLIC c7ac 0 FT_Outline_Get_CBox
PUBLIC c838 0 FT_Outline_Translate
PUBLIC c884 0 FT_Outline_Reverse
PUBLIC c92c 0 FT_Vector_Transform
PUBLIC c990 0 FT_Outline_Transform
PUBLIC c9d0 0 FT_Outline_Get_Orientation
PUBLIC cce0 0 FT_Get_Sfnt_Name_Count
PUBLIC cd00 0 FT_Stream_OpenMemory
PUBLIC cd1c 0 FT_Stream_Close
PUBLIC cd3c 0 FT_Stream_Seek
PUBLIC cd8c 0 FT_Raccess_Guess
PUBLIC ce2c 0 FT_Stream_Skip
PUBLIC ce48 0 FT_Stream_Pos
PUBLIC ce50 0 FT_Stream_ReadAt
PUBLIC cec8 0 FT_Stream_Read
PUBLIC cedc 0 FT_Stream_TryRead
PUBLIC cf50 0 FT_Stream_GetChar
PUBLIC cf74 0 FT_Stream_GetUShort
PUBLIC cfa4 0 FT_Stream_GetUShortLE
PUBLIC cfd4 0 FT_Stream_GetUOffset
PUBLIC d010 0 FT_Stream_GetULong
PUBLIC d054 0 FT_Stream_GetULongLE
PUBLIC d098 0 FT_Stream_ReadChar
PUBLIC d11c 0 FT_Stream_ReadUShort
PUBLIC d1b4 0 FT_Raccess_Get_HeaderInfo
PUBLIC d350 0 FT_Stream_ReadUShortLE
PUBLIC d3e8 0 FT_Stream_ReadUOffset
PUBLIC d48c 0 FT_Stream_ReadULong
PUBLIC d6a4 0 FT_Stream_ReadULongLE
PUBLIC d750 0 FT_Cos
PUBLIC d78c 0 FT_Sin
PUBLIC d794 0 FT_Tan
PUBLIC d7c8 0 FT_Atan2
PUBLIC d7f8 0 FT_Vector_Unit
PUBLIC d830 0 FT_Vector_Rotate
PUBLIC d8dc 0 FT_Vector_Length
PUBLIC d954 0 FT_Vector_Polarize
PUBLIC d9b8 0 FT_Vector_From_Polar
PUBLIC d9cc 0 FT_Angle_Diff
PUBLIC d9f0 0 FT_Outline_Embolden
PUBLIC dbf4 0 ft_mem_qalloc
PUBLIC dc38 0 ft_mem_alloc
PUBLIC dc80 0 FT_GlyphLoader_New
PUBLIC df0c 0 ft_mem_free
PUBLIC df24 0 FT_GlyphLoader_Reset
PUBLIC dfa0 0 FT_GlyphLoader_Done
PUBLIC dfc4 0 FT_Stream_New
PUBLIC e0b0 0 FT_Stream_Free
PUBLIC e14c 0 FT_Attach_Stream
PUBLIC e1cc 0 FT_Attach_File
PUBLIC e204 0 ft_glyphslot_free_bitmap
PUBLIC e25c 0 ft_glyphslot_set_bitmap
PUBLIC e274 0 ft_glyphslot_alloc_bitmap
PUBLIC e348 0 FT_New_GlyphSlot
PUBLIC e46c 0 FT_Done_GlyphSlot
PUBLIC e88c 0 FT_New_Library
PUBLIC e928 0 FT_Outline_Done_Internal
PUBLIC e99c 0 FT_Outline_Done
PUBLIC e9b4 0 FT_Stream_ReleaseFrame
PUBLIC e9e8 0 FT_Stream_EnterFrame
PUBLIC eadc 0 FT_Stream_ExtractFrame
PUBLIC eb04 0 FT_Stream_ExitFrame
PUBLIC eb3c 0 FT_Stream_ReadFields
PUBLIC ed60 0 ft_mem_qrealloc
PUBLIC ee30 0 ft_mem_realloc
PUBLIC eea0 0 FT_GlyphLoader_CreateExtra
PUBLIC ef04 0 FT_GlyphLoader_CheckPoints
PUBLIC f098 0 FT_GlyphLoader_CopyPoints
PUBLIC f14c 0 FT_GlyphLoader_CheckSubGlyphs
PUBLIC f1cc 0 FT_CMap_Done
PUBLIC f2a0 0 FT_CMap_New
PUBLIC f398 0 FT_Outline_New_Internal
PUBLIC f48c 0 FT_Outline_New
PUBLIC f4a4 0 FT_Raccess_Get_DataOffsets
PUBLIC f6e8 0 FT_Get_Sfnt_Name
PUBLIC f810 0 ft_mem_dup
PUBLIC f864 0 ft_mem_strdup
PUBLIC f8a0 0 ft_mem_strcpyn
PUBLIC f8e0 0 FT_List_Find
PUBLIC f904 0 FT_List_Add
PUBLIC f928 0 FT_New_Size
PUBLIC fa20 0 FT_List_Insert
PUBLIC fa44 0 FT_List_Remove
PUBLIC fa68 0 FT_Done_Size
PUBLIC fb14 0 FT_List_Up
PUBLIC fb50 0 FT_Set_Renderer
PUBLIC fbf0 0 FT_Render_Glyph_Internal
PUBLIC fcdc 0 FT_Render_Glyph
PUBLIC fd0c 0 FT_Load_Glyph
PUBLIC 101e4 0 FT_Get_Advances
PUBLIC 10310 0 FT_Get_Advance
PUBLIC 103d0 0 FT_Load_Char
PUBLIC 10414 0 FT_Outline_Render
PUBLIC 104e8 0 FT_Outline_Get_Bitmap
PUBLIC 10530 0 FT_List_Iterate
PUBLIC 10568 0 FT_List_Finalize
PUBLIC 10698 0 FT_Done_Face
PUBLIC 1071c 0 FT_Open_Face
PUBLIC 10d70 0 FT_New_Face
PUBLIC 10da8 0 FT_New_Memory_Face
PUBLIC 116c4 0 FT_Remove_Module
PUBLIC 11868 0 FT_Add_Module
PUBLIC 11b24 0 FT_Done_Library
PUBLIC 11c38 0 ft_highpow2
PUBLIC 11c4c 0 FT_Alloc
PUBLIC 11c6c 0 FT_QAlloc
PUBLIC 11c8c 0 FT_Realloc
PUBLIC 11ccc 0 FT_QRealloc
PUBLIC 11d0c 0 FT_Free
PUBLIC 1641c 0 TT_RunIns
PUBLIC 1ad08 0 TT_New_Context
PUBLIC 3c58c 0 af_glyph_hints_dump_points
PUBLIC 3c590 0 af_glyph_hints_dump_segments
PUBLIC 3c594 0 af_glyph_hints_get_num_segments
PUBLIC 3c59c 0 af_glyph_hints_get_segment_offset
PUBLIC 3c5a4 0 af_glyph_hints_dump_edges
PUBLIC 3e188 0 ps_hints_apply
PUBLIC 41fe4 0 FT_Stream_OpenGzip
PUBLIC 42488 0 ft_lzwstate_reset
PUBLIC 424b4 0 ft_lzwstate_init
PUBLIC 42504 0 FT_Stream_OpenLZW
PUBLIC 42634 0 ft_lzwstate_done
PUBLIC 426d0 0 ft_lzwstate_io
PUBLIC 42f64 0 FT_Stream_OpenBzip2
PUBLIC 47070 0 FT_Stream_Open
PUBLIC 4712c 0 FT_New_Memory
PUBLIC 4717c 0 FT_Done_Memory
PUBLIC 476c4 0 BZ2_bzCompressInit
PUBLIC 478dc 0 BZ2_bzCompress
PUBLIC 47a74 0 BZ2_bzCompressEnd
PUBLIC 47b04 0 BZ2_bzDecompressInit
PUBLIC 47bd4 0 BZ2_indexIntoF
PUBLIC 47c0c 0 BZ2_bzDecompress
PUBLIC 489b4 0 BZ2_bzDecompressEnd
PUBLIC 48a44 0 BZ2_bzWriteOpen
PUBLIC 48b90 0 BZ2_bzWrite
PUBLIC 48cf0 0 BZ2_bzWriteClose64
PUBLIC 48eec 0 BZ2_bzWriteClose
PUBLIC 48f10 0 BZ2_bzReadOpen
PUBLIC 492b0 0 BZ2_bzReadClose
PUBLIC 49338 0 BZ2_bzRead
PUBLIC 49550 0 BZ2_bzReadGetUnused
PUBLIC 495dc 0 BZ2_bzBuffToBuffCompress
PUBLIC 496ec 0 BZ2_bzBuffToBuffDecompress
PUBLIC 497f0 0 BZ2_bzlibVersion
PUBLIC 49800 0 BZ2_bz__AssertH__fail
PUBLIC 49860 0 BZ2_bzopen
PUBLIC 49870 0 BZ2_bzdopen
PUBLIC 49888 0 BZ2_bzread
PUBLIC 498d0 0 BZ2_bzwrite
PUBLIC 4990c 0 BZ2_bzflush
PUBLIC 49914 0 BZ2_bzclose
PUBLIC 499b0 0 BZ2_bzerror
PUBLIC 49a98 0 BZ2_bsInitWrite
PUBLIC 49aa8 0 BZ2_compressBlock
PUBLIC 4bc88 0 BZ2_decompress
PUBLIC 4ff98 0 BZ2_blockSort
PUBLIC 50104 0 BZ2_hbMakeCodeLengths
PUBLIC 505c8 0 BZ2_hbAssignCodes
PUBLIC 5060c 0 BZ2_hbCreateDecodeTables
PUBLIC 50744 0 __aeabi_uidiv
PUBLIC 507ec 0 __aeabi_uidivmod
PUBLIC 5080c 0 __aeabi_idiv
PUBLIC 508e8 0 __aeabi_idivmod
PUBLIC 50908 0 __aeabi_idiv0
PUBLIC 50d50 0 _Unwind_GetCFA
PUBLIC 50d58 0 __gnu_Unwind_RaiseException
PUBLIC 50dfc 0 __gnu_Unwind_ForcedUnwind
PUBLIC 50e18 0 __gnu_Unwind_Resume
PUBLIC 50e8c 0 __gnu_Unwind_Resume_or_Rethrow
PUBLIC 50eac 0 _Unwind_Complete
PUBLIC 50eb0 0 _Unwind_DeleteException
PUBLIC 50ed0 0 _Unwind_VRS_Get
PUBLIC 50f54 0 _Unwind_VRS_Set
PUBLIC 50fdc 0 __gnu_Unwind_Backtrace
PUBLIC 51494 0 __aeabi_unwind_cpp_pr0
PUBLIC 5149c 0 __aeabi_unwind_cpp_pr1
PUBLIC 514a4 0 __aeabi_unwind_cpp_pr2
PUBLIC 514ac 0 _Unwind_VRS_Pop
PUBLIC 51804 0 restore_core_regs
PUBLIC 51818 0 __gnu_Unwind_Restore_VFP
PUBLIC 51820 0 __gnu_Unwind_Save_VFP
PUBLIC 51828 0 __gnu_Unwind_Restore_VFP_D
PUBLIC 51830 0 __gnu_Unwind_Save_VFP_D
PUBLIC 51838 0 __gnu_Unwind_Restore_VFP_D_16_to_31
PUBLIC 51840 0 __gnu_Unwind_Save_VFP_D_16_to_31
PUBLIC 51848 0 __gnu_Unwind_Restore_WMMXD
PUBLIC 5188c 0 __gnu_Unwind_Save_WMMXD
PUBLIC 518d0 0 __gnu_Unwind_Restore_WMMXC
PUBLIC 518e4 0 __gnu_Unwind_Save_WMMXC
PUBLIC 518f8 0 ___Unwind_RaiseException
PUBLIC 5191c 0 ___Unwind_Resume
PUBLIC 51940 0 ___Unwind_Resume_or_Rethrow
PUBLIC 51964 0 ___Unwind_ForcedUnwind
PUBLIC 51988 0 ___Unwind_Backtrace
PUBLIC 51a38 0 __gnu_unwind_execute
PUBLIC 51db4 0 __gnu_unwind_frame
PUBLIC 51df4 0 _Unwind_GetRegionStart
PUBLIC 51e04 0 _Unwind_GetLanguageSpecificData
PUBLIC 51e20 0 _Unwind_GetDataRelBase
PUBLIC 51e28 0 _Unwind_GetTextRelBase
STACK CFI INIT 50744 a8 .cfa: sp 0 + .ra: lr
STACK CFI INIT 5080c dc .cfa: sp 0 + .ra: lr
STACK CFI INIT 50918 18 .cfa: sp 0 + .ra: lr
STACK CFI INIT 50930 ac .cfa: sp 0 + .ra: lr
STACK CFI 50934 .cfa: sp 48 + .ra: .cfa -4 + ^ r0: .cfa -48 + ^ r1: .cfa -44 + ^ r10: .cfa -12 + ^ r11: .cfa -8 + ^ r2: .cfa -40 + ^ r4: .cfa -36 + ^ r5: .cfa -32 + ^ r6: .cfa -28 + ^ r7: .cfa -24 + ^ r8: .cfa -20 + ^ r9: .cfa -16 + ^
STACK CFI INIT 509dc 50 .cfa: sp 0 + .ra: lr
STACK CFI INIT 50a2c 110 .cfa: sp 0 + .ra: lr
STACK CFI 50a34 .cfa: sp 24 + .ra: .cfa -4 + ^ r0: .cfa -24 + ^ r1: .cfa -20 + ^ r2: .cfa -16 + ^ r4: .cfa -12 + ^ r5: .cfa -8 + ^
STACK CFI INIT 50b3c 6c .cfa: sp 0 + .ra: lr
STACK CFI 50b44 .cfa: sp 8 + .ra: .cfa -4 + ^ r4: .cfa -8 + ^
STACK CFI INIT 50ba8 14 .cfa: sp 0 + .ra: lr
STACK CFI INIT 50bbc 8 .cfa: sp 0 + .ra: lr
STACK CFI INIT 50bc4 4 .cfa: sp 0 + .ra: lr
STACK CFI INIT 50bc8 64 .cfa: sp 0 + .ra: lr
STACK CFI 50bcc .cfa: sp 16 + .ra: .cfa -4 + ^ r4: .cfa -16 + ^ r5: .cfa -12 + ^ r6: .cfa -8 + ^
STACK CFI INIT 50c2c 124 .cfa: sp 0 + .ra: lr
STACK CFI 50c30 .cfa: sp 36 + .ra: .cfa -4 + ^ r10: .cfa -12 + ^ r11: .cfa -8 + ^ r4: .cfa -36 + ^ r5: .cfa -32 + ^ r6: .cfa -28 + ^ r7: .cfa -24 + ^ r8: .cfa -20 + ^ r9: .cfa -16 + ^
STACK CFI 50c4c .cfa: sp 1008 +
STACK CFI INIT 50d50 8 .cfa: sp 0 + .ra: lr
STACK CFI INIT 50d58 a4 .cfa: sp 0 + .ra: lr
STACK CFI 50d5c .cfa: sp 20 + .ra: .cfa -4 + ^ r4: .cfa -20 + ^ r5: .cfa -16 + ^ r6: .cfa -12 + ^ r7: .cfa -8 + ^
STACK CFI 50d78 .cfa: sp 504 +
STACK CFI INIT 50dfc 1c .cfa: sp 0 + .ra: lr
STACK CFI INIT 50e18 74 .cfa: sp 0 + .ra: lr
STACK CFI 50e1c .cfa: sp 16 + .ra: .cfa -4 + ^ r4: .cfa -16 + ^ r5: .cfa -12 + ^ r6: .cfa -8 + ^
STACK CFI INIT 50e8c 20 .cfa: sp 0 + .ra: lr
STACK CFI INIT 50eac 4 .cfa: sp 0 + .ra: lr
STACK CFI INIT 50eb0 20 .cfa: sp 0 + .ra: lr
STACK CFI 50eb4 .cfa: sp 8 + .ra: .cfa -4 + ^ r3: .cfa -8 + ^
STACK CFI INIT 50ed0 5c .cfa: sp 0 + .ra: lr
STACK CFI INIT 50f2c 28 .cfa: sp 0 + .ra: lr
STACK CFI 50f30 .cfa: sp 24 + .ra: .cfa -4 + ^ r0: .cfa -24 + ^ r1: .cfa -20 + ^ r2: .cfa -16 + ^ r3: .cfa -12 + ^ r4: .cfa -8 + ^
STACK CFI INIT 50f54 5c .cfa: sp 0 + .ra: lr
STACK CFI INIT 50fb0 2c .cfa: sp 0 + .ra: lr
STACK CFI 50fb4 .cfa: sp 24 + .ra: .cfa -4 + ^ r0: .cfa -24 + ^ r1: .cfa -20 + ^ r2: .cfa -16 + ^ r3: .cfa -12 + ^ r4: .cfa -8 + ^
STACK CFI INIT 50fdc c4 .cfa: sp 0 + .ra: lr
STACK CFI 50fe0 .cfa: sp 24 + .ra: .cfa -4 + ^ r4: .cfa -24 + ^ r5: .cfa -20 + ^ r6: .cfa -16 + ^ r7: .cfa -12 + ^ r8: .cfa -8 + ^
STACK CFI 50ffc .cfa: sp 592 +
STACK CFI INIT 510a0 3f4 .cfa: sp 0 + .ra: lr
STACK CFI 510a4 .cfa: sp 36 + .ra: .cfa -4 + ^ r10: .cfa -12 + ^ r11: .cfa -8 + ^ r4: .cfa -36 + ^ r5: .cfa -32 + ^ r6: .cfa -28 + ^ r7: .cfa -24 + ^ r8: .cfa -20 + ^ r9: .cfa -16 + ^
STACK CFI 510b0 .cfa: sp 72 +
STACK CFI INIT 51494 8 .cfa: sp 0 + .ra: lr
STACK CFI INIT 5149c 8 .cfa: sp 0 + .ra: lr
STACK CFI INIT 514a4 8 .cfa: sp 0 + .ra: lr
STACK CFI INIT 514ac 358 .cfa: sp 0 + .ra: lr
STACK CFI 514b0 .cfa: sp 28 + .ra: .cfa -4 + ^ r4: .cfa -28 + ^ r5: .cfa -24 + ^ r6: .cfa -20 + ^ r7: .cfa -16 + ^ r8: .cfa -12 + ^ r9: .cfa -8 + ^
STACK CFI 514b8 .cfa: sp 296 +
STACK CFI INIT 519ac 60 .cfa: sp 0 + .ra: lr
STACK CFI INIT 51a0c 28 .cfa: sp 0 + .ra: lr
STACK CFI 51a10 .cfa: sp 24 + .ra: .cfa -4 + ^ r0: .cfa -24 + ^ r1: .cfa -20 + ^ r2: .cfa -16 + ^ r3: .cfa -12 + ^ r4: .cfa -8 + ^
STACK CFI INIT 51a34 4 .cfa: sp 0 + .ra: lr
STACK CFI INIT 51a38 37c .cfa: sp 0 + .ra: lr
STACK CFI 51a3c .cfa: sp 48 + .ra: .cfa -4 + ^ r0: .cfa -48 + ^ r1: .cfa -44 + ^ r10: .cfa -8 + ^ r2: .cfa -40 + ^ r3: .cfa -36 + ^ r4: .cfa -32 + ^ r5: .cfa -28 + ^ r6: .cfa -24 + ^ r7: .cfa -20 + ^ r8: .cfa -16 + ^ r9: .cfa -12 + ^
STACK CFI INIT 51db4 40 .cfa: sp 0 + .ra: lr
STACK CFI 51db8 .cfa: sp 24 + .ra: .cfa -4 + ^ r0: .cfa -24 + ^ r1: .cfa -20 + ^ r2: .cfa -16 + ^ r3: .cfa -12 + ^ r4: .cfa -8 + ^
STACK CFI INIT 51df4 10 .cfa: sp 0 + .ra: lr
STACK CFI 51df8 .cfa: sp 8 + .ra: .cfa -4 + ^ r3: .cfa -8 + ^
STACK CFI INIT 51e04 1c .cfa: sp 0 + .ra: lr
STACK CFI 51e08 .cfa: sp 8 + .ra: .cfa -4 + ^ r3: .cfa -8 + ^
STACK CFI INIT 51e20 8 .cfa: sp 0 + .ra: lr
STACK CFI 51e24 .cfa: sp 8 + .ra: .cfa -4 + ^ r3: .cfa -8 + ^
STACK CFI INIT 51e28 8 .cfa: sp 0 + .ra: lr
STACK CFI 51e2c .cfa: sp 8 + .ra: .cfa -4 + ^ r3: .cfa -8 + ^
