MODULE Linux arm B02AB928B6106A98A74D8BA392E2D7060 libxbmpeg2.so
FUNC e77c 18 0 selfrel_offset31
FUNC e794 ac 0 search_EIT_table
FUNC e840 50 0 __gnu_unwind_get_pr_addr
FUNC e890 10c 0 get_eit_entry
FUNC e99c 6c 0 restore_non_core_regs
FUNC ea08 14 0 _Unwind_decode_typeinfo_ptr
FUNC ea1c 8 0 __gnu_unwind_24bit
FUNC ea24 4 0 _Unwind_DebugHook
FUNC ea28 64 0 unwind_phase2
FUNC ea8c 124 0 unwind_phase2_forced
FUNC ebb0 8 0 _Unwind_GetCFA
FUNC ebb8 a4 0 __gnu_Unwind_RaiseException
FUNC ec5c 1c 0 __gnu_Unwind_ForcedUnwind
FUNC ec78 74 0 __gnu_Unwind_Resume
FUNC ecec 20 0 __gnu_Unwind_Resume_or_Rethrow
FUNC ed0c 4 0 _Unwind_Complete
FUNC ed10 20 0 _Unwind_DeleteException
FUNC ed30 5c 0 _Unwind_VRS_Get
FUNC ed8c 28 0 _Unwind_GetGR
FUNC edb4 5c 0 _Unwind_VRS_Set
FUNC ee10 2c 0 _Unwind_SetGR
FUNC ee3c c4 0 __gnu_Unwind_Backtrace
FUNC ef00 3f0 0 __gnu_unwind_pr_common
FUNC f2f0 8 0 __aeabi_unwind_cpp_pr0
FUNC f2f8 8 0 __aeabi_unwind_cpp_pr1
FUNC f300 8 0 __aeabi_unwind_cpp_pr2
FUNC f308 34c 0 _Unwind_VRS_Pop
FUNC f7fc 60 0 next_unwind_byte
FUNC f85c 28 0 _Unwind_GetGR
FUNC f884 4 0 unwind_UCB_from_context
FUNC f888 37c 0 __gnu_unwind_execute
FUNC fc04 40 0 __gnu_unwind_frame
FUNC fc44 10 0 _Unwind_GetRegionStart
FUNC fc54 1c 0 _Unwind_GetLanguageSpecificData
FUNC fc70 8 0 _Unwind_GetDataRelBase
FUNC fc78 8 0 _Unwind_GetTextRelBase
PUBLIC 17bc 0 mpeg2_malloc
PUBLIC 1820 0 mpeg2_free
PUBLIC 1864 0 mpeg2_malloc_hooks
PUBLIC 201c 0 mpeg2_header_state_init
PUBLIC 2180 0 mpeg2_reset_info
PUBLIC 2270 0 mpeg2_header_sequence
PUBLIC 24ac 0 mpeg2_guess_aspect
PUBLIC 269c 0 mpeg2_header_gop
PUBLIC 2740 0 mpeg2_header_gop_finalize
PUBLIC 277c 0 mpeg2_set_fbuf
PUBLIC 280c 0 mpeg2_header_picture
PUBLIC 29cc 0 mpeg2_header_picture_finalize
PUBLIC 2e24 0 mpeg2_header_extension
PUBLIC 2e78 0 mpeg2_header_user_data
PUBLIC 2eb0 0 mpeg2_header_slice_start
PUBLIC 3088 0 mpeg2_header_end
PUBLIC 3168 0 mpeg2_header_sequence_finalize
PUBLIC 35ac 0 mpeg2_parse_header
PUBLIC 3850 0 mpeg2_seek_header
PUBLIC 38e0 0 mpeg2_info
PUBLIC 38e8 0 mpeg2_buffer
PUBLIC 38fc 0 mpeg2_getpos
PUBLIC 3914 0 mpeg2_parse
PUBLIC 3b00 0 mpeg2_convert
PUBLIC 3b7c 0 mpeg2_stride
PUBLIC 3c0c 0 mpeg2_set_buf
PUBLIC 3cc0 0 mpeg2_custom_fbuf
PUBLIC 3ccc 0 mpeg2_skip
PUBLIC 3cf0 0 mpeg2_slice_region
PUBLIC 3d34 0 mpeg2_tag_picture
PUBLIC 3d80 0 mpeg2_accel
PUBLIC 3dd0 0 mpeg2_reset
PUBLIC 3e78 0 mpeg2_init
PUBLIC 3ef4 0 mpeg2_close
PUBLIC 9224 0 mpeg2_init_fbuf
PUBLIC 9648 0 mpeg2_slice
PUBLIC c294 0 mpeg2_mc_init
PUBLIC c89c 0 mpeg2_idct_init
PUBLIC dfbc 0 mpeg2_detect_accel
PUBLIC dfc0 0 mpeg2_cpu_state_init
PUBLIC e6a4 0 __aeabi_uidiv
PUBLIC e74c 0 __aeabi_uidivmod
PUBLIC e76c 0 __aeabi_idiv0
PUBLIC ebb0 0 _Unwind_GetCFA
PUBLIC ebb8 0 __gnu_Unwind_RaiseException
PUBLIC ec5c 0 __gnu_Unwind_ForcedUnwind
PUBLIC ec78 0 __gnu_Unwind_Resume
PUBLIC ecec 0 __gnu_Unwind_Resume_or_Rethrow
PUBLIC ed0c 0 _Unwind_Complete
PUBLIC ed10 0 _Unwind_DeleteException
PUBLIC ed30 0 _Unwind_VRS_Get
PUBLIC edb4 0 _Unwind_VRS_Set
PUBLIC ee3c 0 __gnu_Unwind_Backtrace
PUBLIC f2f0 0 __aeabi_unwind_cpp_pr0
PUBLIC f2f8 0 __aeabi_unwind_cpp_pr1
PUBLIC f300 0 __aeabi_unwind_cpp_pr2
PUBLIC f308 0 _Unwind_VRS_Pop
PUBLIC f654 0 restore_core_regs
PUBLIC f668 0 __gnu_Unwind_Restore_VFP
PUBLIC f670 0 __gnu_Unwind_Save_VFP
PUBLIC f678 0 __gnu_Unwind_Restore_VFP_D
PUBLIC f680 0 __gnu_Unwind_Save_VFP_D
PUBLIC f688 0 __gnu_Unwind_Restore_VFP_D_16_to_31
PUBLIC f690 0 __gnu_Unwind_Save_VFP_D_16_to_31
PUBLIC f698 0 __gnu_Unwind_Restore_WMMXD
PUBLIC f6dc 0 __gnu_Unwind_Save_WMMXD
PUBLIC f720 0 __gnu_Unwind_Restore_WMMXC
PUBLIC f734 0 __gnu_Unwind_Save_WMMXC
PUBLIC f748 0 ___Unwind_RaiseException
PUBLIC f76c 0 ___Unwind_Resume
PUBLIC f790 0 ___Unwind_Resume_or_Rethrow
PUBLIC f7b4 0 ___Unwind_ForcedUnwind
PUBLIC f7d8 0 ___Unwind_Backtrace
PUBLIC f888 0 __gnu_unwind_execute
PUBLIC fc04 0 __gnu_unwind_frame
PUBLIC fc44 0 _Unwind_GetRegionStart
PUBLIC fc54 0 _Unwind_GetLanguageSpecificData
PUBLIC fc70 0 _Unwind_GetDataRelBase
PUBLIC fc78 0 _Unwind_GetTextRelBase
STACK CFI INIT e6a4 a8 .cfa: sp 0 + .ra: lr
STACK CFI INIT e77c 18 .cfa: sp 0 + .ra: lr
STACK CFI INIT e794 ac .cfa: sp 0 + .ra: lr
STACK CFI e798 .cfa: sp 48 + .ra: .cfa -4 + ^ r0: .cfa -48 + ^ r1: .cfa -44 + ^ r10: .cfa -12 + ^ r11: .cfa -8 + ^ r2: .cfa -40 + ^ r4: .cfa -36 + ^ r5: .cfa -32 + ^ r6: .cfa -28 + ^ r7: .cfa -24 + ^ r8: .cfa -20 + ^ r9: .cfa -16 + ^
STACK CFI INIT e840 50 .cfa: sp 0 + .ra: lr
STACK CFI INIT e890 10c .cfa: sp 0 + .ra: lr
STACK CFI e898 .cfa: sp 24 + .ra: .cfa -4 + ^ r0: .cfa -24 + ^ r1: .cfa -20 + ^ r2: .cfa -16 + ^ r4: .cfa -12 + ^ r5: .cfa -8 + ^
STACK CFI INIT e99c 6c .cfa: sp 0 + .ra: lr
STACK CFI e9a4 .cfa: sp 8 + .ra: .cfa -4 + ^ r4: .cfa -8 + ^
STACK CFI INIT ea08 14 .cfa: sp 0 + .ra: lr
STACK CFI INIT ea1c 8 .cfa: sp 0 + .ra: lr
STACK CFI INIT ea24 4 .cfa: sp 0 + .ra: lr
STACK CFI INIT ea28 64 .cfa: sp 0 + .ra: lr
STACK CFI ea2c .cfa: sp 16 + .ra: .cfa -4 + ^ r4: .cfa -16 + ^ r5: .cfa -12 + ^ r6: .cfa -8 + ^
STACK CFI INIT ea8c 124 .cfa: sp 0 + .ra: lr
STACK CFI ea90 .cfa: sp 36 + .ra: .cfa -4 + ^ r10: .cfa -12 + ^ r11: .cfa -8 + ^ r4: .cfa -36 + ^ r5: .cfa -32 + ^ r6: .cfa -28 + ^ r7: .cfa -24 + ^ r8: .cfa -20 + ^ r9: .cfa -16 + ^
STACK CFI eaac .cfa: sp 1008 +
STACK CFI INIT ebb0 8 .cfa: sp 0 + .ra: lr
STACK CFI INIT ebb8 a4 .cfa: sp 0 + .ra: lr
STACK CFI ebc0 .cfa: sp 20 + .ra: .cfa -4 + ^ r4: .cfa -20 + ^ r5: .cfa -16 + ^ r6: .cfa -12 + ^ r7: .cfa -8 + ^
STACK CFI ebd4 .cfa: sp 504 +
STACK CFI INIT ec5c 1c .cfa: sp 0 + .ra: lr
STACK CFI INIT ec78 74 .cfa: sp 0 + .ra: lr
STACK CFI ec7c .cfa: sp 16 + .ra: .cfa -4 + ^ r4: .cfa -16 + ^ r5: .cfa -12 + ^ r6: .cfa -8 + ^
STACK CFI INIT ecec 20 .cfa: sp 0 + .ra: lr
STACK CFI INIT ed0c 4 .cfa: sp 0 + .ra: lr
STACK CFI INIT ed10 20 .cfa: sp 0 + .ra: lr
STACK CFI ed14 .cfa: sp 8 + .ra: .cfa -4 + ^ r3: .cfa -8 + ^
STACK CFI INIT ed30 5c .cfa: sp 0 + .ra: lr
STACK CFI INIT ed8c 28 .cfa: sp 0 + .ra: lr
STACK CFI ed90 .cfa: sp 24 + .ra: .cfa -4 + ^ r0: .cfa -24 + ^ r1: .cfa -20 + ^ r2: .cfa -16 + ^ r3: .cfa -12 + ^ r4: .cfa -8 + ^
STACK CFI INIT edb4 5c .cfa: sp 0 + .ra: lr
STACK CFI INIT ee10 2c .cfa: sp 0 + .ra: lr
STACK CFI ee14 .cfa: sp 24 + .ra: .cfa -4 + ^ r0: .cfa -24 + ^ r1: .cfa -20 + ^ r2: .cfa -16 + ^ r3: .cfa -12 + ^ r4: .cfa -8 + ^
STACK CFI INIT ee3c c4 .cfa: sp 0 + .ra: lr
STACK CFI ee44 .cfa: sp 24 + .ra: .cfa -4 + ^ r4: .cfa -24 + ^ r5: .cfa -20 + ^ r6: .cfa -16 + ^ r7: .cfa -12 + ^ r8: .cfa -8 + ^
STACK CFI ee58 .cfa: sp 592 +
STACK CFI INIT ef00 3f0 .cfa: sp 0 + .ra: lr
STACK CFI ef04 .cfa: sp 36 + .ra: .cfa -4 + ^ r10: .cfa -12 + ^ r11: .cfa -8 + ^ r4: .cfa -36 + ^ r5: .cfa -32 + ^ r6: .cfa -28 + ^ r7: .cfa -24 + ^ r8: .cfa -20 + ^ r9: .cfa -16 + ^
STACK CFI ef10 .cfa: sp 72 +
STACK CFI INIT f2f0 8 .cfa: sp 0 + .ra: lr
STACK CFI INIT f2f8 8 .cfa: sp 0 + .ra: lr
STACK CFI INIT f300 8 .cfa: sp 0 + .ra: lr
STACK CFI INIT f308 34c .cfa: sp 0 + .ra: lr
STACK CFI f30c .cfa: sp 28 + .ra: .cfa -4 + ^ r4: .cfa -28 + ^ r5: .cfa -24 + ^ r6: .cfa -20 + ^ r7: .cfa -16 + ^ r8: .cfa -12 + ^ r9: .cfa -8 + ^
STACK CFI f314 .cfa: sp 296 +
STACK CFI INIT f7fc 60 .cfa: sp 0 + .ra: lr
STACK CFI INIT f85c 28 .cfa: sp 0 + .ra: lr
STACK CFI f860 .cfa: sp 24 + .ra: .cfa -4 + ^ r0: .cfa -24 + ^ r1: .cfa -20 + ^ r2: .cfa -16 + ^ r3: .cfa -12 + ^ r4: .cfa -8 + ^
STACK CFI INIT f884 4 .cfa: sp 0 + .ra: lr
STACK CFI INIT f888 37c .cfa: sp 0 + .ra: lr
STACK CFI f88c .cfa: sp 48 + .ra: .cfa -4 + ^ r0: .cfa -48 + ^ r1: .cfa -44 + ^ r10: .cfa -8 + ^ r2: .cfa -40 + ^ r3: .cfa -36 + ^ r4: .cfa -32 + ^ r5: .cfa -28 + ^ r6: .cfa -24 + ^ r7: .cfa -20 + ^ r8: .cfa -16 + ^ r9: .cfa -12 + ^
STACK CFI INIT fc04 40 .cfa: sp 0 + .ra: lr
STACK CFI fc08 .cfa: sp 24 + .ra: .cfa -4 + ^ r0: .cfa -24 + ^ r1: .cfa -20 + ^ r2: .cfa -16 + ^ r3: .cfa -12 + ^ r4: .cfa -8 + ^
STACK CFI INIT fc44 10 .cfa: sp 0 + .ra: lr
STACK CFI fc48 .cfa: sp 8 + .ra: .cfa -4 + ^ r3: .cfa -8 + ^
STACK CFI INIT fc54 1c .cfa: sp 0 + .ra: lr
STACK CFI fc58 .cfa: sp 8 + .ra: .cfa -4 + ^ r3: .cfa -8 + ^
STACK CFI INIT fc70 8 .cfa: sp 0 + .ra: lr
STACK CFI fc74 .cfa: sp 8 + .ra: .cfa -4 + ^ r3: .cfa -8 + ^
STACK CFI INIT fc78 8 .cfa: sp 0 + .ra: lr
STACK CFI fc7c .cfa: sp 8 + .ra: .cfa -4 + ^ r3: .cfa -8 + ^
