MODULE Linux arm 280B0DFDA42C09134638C541E6E00DEA0 libImageLib-arm.so
FUNC 192d0 3c 0 checked_realloc
FUNC 19378 3c 0 std::basic_string<char, std::char_traits<char>, std::allocator<char> >::_Rep::_M_dispose
FUNC 193c4 5c 0 _GLOBAL__sub_I_eh_globals.cc
FUNC 19420 18 0 _GLOBAL__sub_I_eh_alloc.cc
FUNC 19438 84 0 _GLOBAL__sub_I_system_error.cc
FUNC 194f0 38c 0 GetImageType
FUNC 1987c b8 0 DetectFileType
FUNC 19934 fc 0 ResampleKeepAspect
FUNC 19a30 38 0 IsDir
FUNC 19a68 2c 0 ReleaseImage
FUNC 19a94 1c8 0 LoadImage
FUNC 19c5c 238 0 LoadImageFromMemory
FUNC 19e94 20c 0 CreateThumbnailFromSurface
FUNC 1a0a0 1f4 0 CreateThumbnailFromSurface2
FUNC 1a294 c 0 FreeMemory
FUNC 1a2a0 30 0 CxImage::~CxImage
FUNC 1a2d0 38 0 CxImage::~CxImage
FUNC 1a308 1e0 0 CxImage::Threshold
FUNC 1a4e8 2b0 0 CxImage::Threshold
FUNC 1a798 280 0 CxImage::Threshold2
FUNC 1aa18 54c 0 CxImage::SplitRGB
FUNC 1af64 4a0 0 CxImage::SplitCMYK
FUNC 1b404 14c 0 CxImage::RGBtoHSL
FUNC 1b550 56c 0 CxImage::SplitHSL
FUNC 1babc a0 0 CxImage::HueToRGB
FUNC 1bb5c 148 0 CxImage::HSLtoRGB
FUNC 1bca4 40 0 CxImage::HSLtoRGB
FUNC 1bce4 b8 0 CxImage::YUVtoRGB
FUNC 1bd9c d4 0 CxImage::RGBtoYUV
FUNC 1be70 56c 0 CxImage::SplitYUV
FUNC 1c3dc d4 0 CxImage::YIQtoRGB
FUNC 1c4b0 f0 0 CxImage::RGBtoYIQ
FUNC 1c5a0 56c 0 CxImage::SplitYIQ
FUNC 1cb0c 110 0 CxImage::XYZtoRGB
FUNC 1cc1c e0 0 CxImage::RGBtoXYZ
FUNC 1ccfc 56c 0 CxImage::SplitXYZ
FUNC 1d268 a0 0 CxImage::HuePalette
FUNC 1d308 3e4 0 CxImage::Colorize
FUNC 1d6ec 1cc 0 CxImage::Mean
FUNC 1d8b8 78c 0 CxImage::Filter
FUNC 1e044 308 0 CxImage::Erode
FUNC 1e34c 308 0 CxImage::Dilate
FUNC 1e654 390 0 CxImage::Edge
FUNC 1e9e4 89c 0 CxImage::Mix
FUNC 1f280 150 0 CxImage::MixFrom
FUNC 1f3d0 1fc 0 CxImage::ShiftRGB
FUNC 1f5cc 328 0 CxImage::Median
FUNC 1f8f4 1fc 0 CxImage::Noise
FUNC 1faf0 38 0 CxImage::IsPowerof2
FUNC 1fb28 360 0 CxImage::FFT
FUNC 1fe88 508 0 CxImage::DFT
FUNC 20390 1328 0 CxImage::FFT2
FUNC 216b8 21c 0 CxImage::Combine
FUNC 218d4 768 0 CxImage::RepairChannel
FUNC 2203c 310 0 CxImage::Repair
FUNC 2234c 2f0 0 CxImage::Contour
FUNC 2263c 2dc 0 CxImage::Jitter
FUNC 22918 4b8 0 CxImage::gen_convolve_matrix
FUNC 22dd0 150 0 CxImage::gen_lookup_table
FUNC 22f20 b3c 0 CxImage::blur_line
FUNC 23a5c 908 0 CxImage::blur_text
FUNC 24364 3c8 0 CxImage::TextBlur
FUNC 2472c 1174 0 CxImage::GaussianBlur
FUNC 258a0 4bc 0 CxImage::SelectiveBlur
FUNC 25d5c 3e4 0 CxImage::UnsharpMask
FUNC 26140 310 0 CxImage::Lut
FUNC 26450 b8 0 CxImage::Light
FUNC 26508 168 0 CxImage::Gamma
FUNC 26670 2e8 0 CxImage::Lut
FUNC 26958 398 0 CxImage::GammaRGB
FUNC 26cf0 1d4 0 CxImage::RedEyeRemove
FUNC 26ec4 3c8 0 CxImage::Saturate
FUNC 2728c 4a8 0 CxImage::Solarize
FUNC 27734 240 0 CxImage::ConvertColorSpace
FUNC 27974 a00 0 CxImage::OptimalThreshold
FUNC 28374 408 0 CxImage::AdaptiveThreshold
FUNC 2877c c 0 max
FUNC 28788 c 0 min
FUNC 28794 1120 0 CxImage::FloodFill
FUNC 298b8 d0 0 std::_Deque_base<tagPOINT, std::allocator<tagPOINT> >::~_Deque_base
FUNC 29988 170 0 std::_Deque_base<tagPOINT, std::allocator<tagPOINT> >::_M_initialize_map
FUNC 29af8 88 0 CxImage::Startup
FUNC 29b80 28 0 CxImage::CxImage
FUNC 29ba8 d4 0 CxImage::Destroy
FUNC 29c7c 8c 0 CxImage::DestroyFrames
FUNC 29d08 1c 0 CxImage::CopyInfo
FUNC 29d24 6c 0 CxImage::GetBits
FUNC 29d90 1c 0 CxImage::GetSize
FUNC 29dac 2cc 0 CxImage::Create
FUNC 2a078 5c 0 CxImage::CxImage
FUNC 2a0d4 38 0 CxImage::IsInside
FUNC 2a10c 60 0 CxImage::Clear
FUNC 2a16c 100 0 CxImage::Transfer
FUNC 2a26c 98 0 CxImage::Ghost
FUNC 2a304 1bc 0 CxImage::Copy
FUNC 2a4c0 68 0 CxImage::CxImage
FUNC 2a528 30 0 CxImage::operator=
FUNC 2a558 3b0 0 CxImage::Bitfield2RGB
FUNC 2a908 1bc 0 CxImage::CreateFromArray
FUNC 2aac4 1bc 0 CxImage::CreateFromMatrix
FUNC 2ac80 50 0 CxImage::CompareColors
FUNC 2acd0 c 0 CxImage::FreeMemory
FUNC 2acdc 9a4 0 CxImageICO::Decode
FUNC 2b680 b70 0 CxImageICO::Encode
FUNC 2c1f0 2fc 0 CxImageICO::Encode
FUNC 2c4ec 30 0 CxImageICO::~CxImageICO
FUNC 2c51c 38 0 CxImageICO::~CxImageICO
FUNC 2c558 8 0 CxImage::AlphaGetMax
FUNC 2c560 8 0 CxImage::AlphaSetMax
FUNC 2c568 10 0 CxImage::AlphaIsValid
FUNC 2c578 8 0 CxImage::AlphaPaletteEnable
FUNC 2c580 8 0 CxImage::AlphaPaletteIsEnabled
FUNC 2c588 24 0 CxImage::AlphaClear
FUNC 2c5ac 20 0 CxImage::AlphaSet
FUNC 2c5cc 54 0 CxImage::AlphaCreate
FUNC 2c620 24 0 CxImage::AlphaDelete
FUNC 2c644 408 0 CxImage::AlphaInvert
FUNC 2ca4c 94 0 CxImage::AlphaCopy
FUNC 2cae0 c0 0 CxImage::AlphaSet
FUNC 2cba0 3c 0 CxImage::AlphaSet
FUNC 2cbdc 44 0 CxImage::AlphaGet
FUNC 2cc20 44 0 CxImage::AlphaGetPointer
FUNC 2cc64 58 0 CxImage::BlindAlphaGet
FUNC 2ccbc 64 0 CxImage::AlphaPaletteClear
FUNC 2cd20 60 0 CxImage::AlphaPaletteIsValid
FUNC 2cd80 424 0 CxImage::AlphaStrip
FUNC 2d1a4 ac 0 CxImage::AlphaFlip
FUNC 2d250 3f8 0 CxImage::AlphaMirror
FUNC 2d648 158 0 CxImage::AlphaSplit
FUNC 2d7a0 164 0 CxImage::AlphaPaletteSplit
FUNC 2d904 c0 0 CxImage::AlphaFromTransparency
FUNC 2d9c8 c 0 CxImage::GetPaletteSize
FUNC 2d9d4 58 0 CxImage::SetPaletteColor
FUNC 2da2c 6c 0 CxImage::SetPaletteColor
FUNC 2da98 64 0 CxImage::SetPaletteColor
FUNC 2dafc 24 0 CxImage::GetPalette
FUNC 2db20 90 0 CxImage::GetPaletteColor
FUNC 2dbb0 114 0 CxImage::GetPixelIndex
FUNC 2dcc4 100 0 CxImage::BlindGetPixelIndex
FUNC 2ddc4 184 0 CxImage::GetPixelColor
FUNC 2df48 f0 0 CxImage::BlindGetPixelColor
FUNC 2e038 40 0 CxImage::GetPixelGray
FUNC 2e078 10c 0 CxImage::BlindSetPixelIndex
FUNC 2e184 f4 0 CxImage::SetPixelIndex
FUNC 2e278 108 0 CxImage::GetNearestIndex
FUNC 2e380 ec 0 CxImage::BlindSetPixelColor
FUNC 2e46c cc 0 CxImage::SetPixelColor
FUNC 2e538 134 0 CxImage::BlendPixelColor
FUNC 2e66c 68 0 CxImage::RGBtoBGR
FUNC 2e6d4 2c 0 CxImage::RGBtoRGBQUAD
FUNC 2e700 40 0 CxImage::SetPixelColor
FUNC 2e740 20 0 CxImage::RGBQUADtoRGB
FUNC 2e760 50 0 CxImage::GetPaletteColor
FUNC 2e7b0 9c 0 CxImage::SetPalette
FUNC 2e84c 8c 0 CxImage::SetPalette
FUNC 2e8d8 74 0 CxImage::SetPalette
FUNC 2e94c 78 0 CxImage::SetGrayPalette
FUNC 2e9c4 b0 0 CxImage::BlendPalette
FUNC 2ea74 98 0 CxImage::IsGrayScale
FUNC 2eb0c 118 0 CxImage::SwapIndex
FUNC 2ec24 b0 0 CxImage::SwapRGB2BGR
FUNC 2ecd4 9c 0 CxImage::IsTransparent
FUNC 2ed70 128 0 CxImage::IsSamePalette
FUNC 2ee98 8 0 CxImage::GetClrImportant
FUNC 2eea0 54 0 CxImage::SetClrImportant
FUNC 2eef4 78 0 CxImage::BlindGetPixelPointer
FUNC 2ef6c 100 0 CxImage::DrawLine
FUNC 2f06c 50 0 CxImage::DrawLine
FUNC 2f0bc 134 0 CxImage::SetStdPalette
FUNC 2f1f0 174 0 CxImage::GetTransparentMask
FUNC 2f364 ec 0 swab
FUNC 2f450 c1c 0 CxImageRAW::Decode
FUNC 3006c 638 0 CxImageRAW::GetExifThumbnail
FUNC 306a4 58 0 CxImageRAW::Encode
FUNC 306fc 18 0 CxFile::~CxFile
FUNC 30714 3c 0 CxFile::PutC
FUNC 30750 18 0 CxIOFile::Eof
FUNC 30768 18 0 CxIOFile::Error
FUNC 30780 14 0 CxImageRAW::CxFileRaw::raw_sfile_read
FUNC 30794 14 0 CxImageRAW::CxFileRaw::raw_sfile_write
FUNC 307a8 14 0 CxImageRAW::CxFileRaw::raw_sfile_seek
FUNC 307bc 8 0 CxImageRAW::CxFileRaw::raw_sfile_close
FUNC 307c4 14 0 CxImageRAW::CxFileRaw::raw_sfile_gets
FUNC 307d8 14 0 CxImageRAW::CxFileRaw::raw_sfile_eof
FUNC 307ec 14 0 CxImageRAW::CxFileRaw::raw_sfile_tell
FUNC 30800 14 0 CxImageRAW::CxFileRaw::raw_sfile_getc
FUNC 30814 14 0 CxImageRAW::CxFileRaw::raw_sfile_scanf
FUNC 30828 28 0 CxFile::~CxFile
FUNC 30850 44 0 CxIOFile::Close
FUNC 30894 28 0 CxIOFile::Read
FUNC 308bc 28 0 CxIOFile::Write
FUNC 308e4 20 0 CxIOFile::Seek
FUNC 30904 10 0 CxIOFile::Tell
FUNC 30914 58 0 CxIOFile::Size
FUNC 3096c 20 0 CxIOFile::Flush
FUNC 3098c 38 0 CxIOFile::PutC
FUNC 309c4 18 0 CxIOFile::GetC
FUNC 309dc 24 0 CxIOFile::GetS
FUNC 30a00 18 0 CxIOFile::Scanf
FUNC 30a18 5c 0 CxIOFile::~CxIOFile
FUNC 30a74 64 0 CxIOFile::~CxIOFile
FUNC 30ad8 1a4 0 CxImageTGA::ExpandUncompressedLine
FUNC 30c7c 720 0 CxImageTGA::ExpandCompressedLine
FUNC 3139c 6c 0 CxImageTGA::tga_toh
FUNC 31408 5e8 0 CxImageTGA::Decode
FUNC 319f0 5d4 0 CxImageTGA::Encode
FUNC 31fc8 80c 0 CxImage::GrayScale
FUNC 327d4 104 0 CxImage::Flip
FUNC 328d8 6e8 0 CxImage::Mirror
FUNC 32fc0 820 0 CxImage::RotateLeft
FUNC 337e0 804 0 CxImage::RotateRight
FUNC 33fe4 2a4 0 CxImage::Negative
FUNC 34288 7b0 0 CxImage::Rotate
FUNC 34a38 264 0 CxImage::Rotate180
FUNC 34c9c 68 0 CxImage::RotateExif
FUNC 34d04 b30 0 CxImage::Rotate2
FUNC 35834 1238 0 CxImage::Resample
FUNC 36a6c 554 0 CxImage::Resample2
FUNC 36fc0 520 0 CxImage::DecreaseBpp
FUNC 374e0 508 0 CxImage::IncreaseBpp
FUNC 379e8 158c 0 CxImage::Dither
FUNC 38f74 464 0 CxImage::Crop
FUNC 393d8 2a8 0 CxImage::CropRotatedRectangle
FUNC 39680 28 0 CxImage::Crop
FUNC 396a8 304 0 CxImage::Skew
FUNC 399ac 8a0 0 CxImage::Expand
FUNC 3a24c 94 0 CxImage::Expand
FUNC 3a2e0 1b0 0 CxImage::Thumbnail
FUNC 3a490 4b0 0 CxImage::CircleTransform
FUNC 3a940 6c0 0 CxImage::QIShrink
FUNC 3b000 1c 0 _tiffReadProcEx
FUNC 3b01c 1c 0 _tiffWriteProcEx
FUNC 3b038 8 0 _tiffCloseProcEx
FUNC 3b040 14 0 _tiffSizeProcEx
FUNC 3b054 8 0 _tiffMapProcEx
FUNC 3b05c 4 0 _tiffUnmapProcEx
FUNC 3b060 98 0 Win32WarningHandler
FUNC 3b0f8 7c 0 Win32ErrorHandler
FUNC 3b174 58 0 _tiffSeekProcEx
FUNC 3b1cc 90 0 _TIFFFdOpen
FUNC 3b25c 14 0 _TIFFOpenEx
FUNC 3b270 4 0 _TIFFmalloc
FUNC 3b274 4 0 _TIFFfree
FUNC 3b278 4 0 _TIFFrealloc
FUNC 3b27c 4 0 _TIFFmemset
FUNC 3b280 4 0 _TIFFmemcpy
FUNC 3b284 4 0 _TIFFmemcmp
FUNC 3b288 88 0 CxImage::EncodeSafeCheck
FUNC 3b310 348 0 CxImage::Encode
FUNC 3b658 8c 0 CxImage::Encode
FUNC 3b6e4 ec 0 CxImage::Encode2RGBA
FUNC 3b7d0 d0 0 CxImage::Encode2RGBA
FUNC 3b8a0 958 0 CxImage::Encode
FUNC 3c1f8 80 0 CxImage::Encode
FUNC 3c278 54 0 CxImage::Save
FUNC 3c2cc d0 0 CxImage::Encode
FUNC 3c39c 168c 0 CxImage::Decode
FUNC 3da28 64 0 CxImage::CxImage
FUNC 3da8c 90 0 CxImage::CxImage
FUNC 3db1c 98 0 CxImage::CheckFormat
FUNC 3dbb4 94 0 CxImage::CheckFormat
FUNC 3dc48 60 0 CxImage::Decode
FUNC 3dca8 8c 0 CxImage::Decode
FUNC 3dd34 150 0 CxImage::Load
FUNC 3de84 64 0 CxImage::CxImage
FUNC 3dee8 64 0 CxImage::CxImage
FUNC 3df4c f4 0 CxImage::GetExifThumbnail
FUNC 3e040 30 0 CxImageRAW::~CxImageRAW
FUNC 3e070 38 0 CxImageRAW::~CxImageRAW
FUNC 3e0a8 30 0 CxImageSKA::~CxImageSKA
FUNC 3e0d8 38 0 CxImageSKA::~CxImageSKA
FUNC 3e110 30 0 CxImageWBMP::~CxImageWBMP
FUNC 3e140 38 0 CxImageWBMP::~CxImageWBMP
FUNC 3e178 30 0 CxImagePCX::~CxImagePCX
FUNC 3e1a8 38 0 CxImagePCX::~CxImagePCX
FUNC 3e1e0 30 0 CxImageTGA::~CxImageTGA
FUNC 3e210 38 0 CxImageTGA::~CxImageTGA
FUNC 3e248 30 0 CxImageBMP::~CxImageBMP
FUNC 3e278 38 0 CxImageBMP::~CxImageBMP
FUNC 3e2b0 30 0 CxImagePNG::~CxImagePNG
FUNC 3e2e0 38 0 CxImagePNG::~CxImagePNG
FUNC 3e318 30 0 CxImageGIF::~CxImageGIF
FUNC 3e348 38 0 CxImageGIF::~CxImageGIF
FUNC 3e380 2c4 0 CxImageGIF::DecodeExtension
FUNC 3e644 78 0 CxImageGIF::get_byte
FUNC 3e6bc 278 0 CxImageGIF::out_line
FUNC 3e934 dc 0 CxImageGIF::EncodeExtension
FUNC 3ea10 ac 0 CxImageGIF::EncodeComment
FUNC 3eabc 5c 0 CxImageGIF::GifNextPixel
FUNC 3eb18 38 0 CxImageGIF::Putword
FUNC 3eb50 130 0 CxImageGIF::EncodeHeader
FUNC 3ec80 c0 0 CxImageGIF::EncodeLoopExtension
FUNC 3ed40 80 0 CxImageGIF::cl_hash
FUNC 3edc0 5c 0 CxImageGIF::flush_char
FUNC 3ee1c 38 0 CxImageGIF::char_out
FUNC 3ee54 1bc 0 CxImageGIF::output
FUNC 3f010 120 0 CxImageGIF::compressNONE
FUNC 3f130 1cc 0 CxImageGIF::compressLZW
FUNC 3f2fc bc 0 CxImageGIF::init_exp
FUNC 3f3b8 284 0 CxImageGIF::get_next_code
FUNC 3f63c 49c 0 CxImageGIF::decoder
FUNC 3fad8 a4 0 CxImageGIF::seek_next_image
FUNC 3fb7c 300 0 CxImageGIF::get_num_frames
FUNC 3fe7c c 0 CxImageGIF::SetLoops
FUNC 3fe88 c 0 CxImageGIF::GetLoops
FUNC 3fe94 18 0 CxImageGIF::SetComment
FUNC 3feac 1c 0 CxImageGIF::GetComment
FUNC 3fec8 12c 0 CxImageGIF::GifMix
FUNC 3fff4 d00 0 CxImageGIF::Decode
FUNC 40cf4 5c 0 CxImageGIF::rle_clear
FUNC 40d50 64 0 CxImageGIF::rle_isqrt
FUNC 40db4 a0 0 CxImageGIF::rle_compute_triangle_count
FUNC 40e54 5c 0 CxImageGIF::rle_write_block
FUNC 40eb0 24 0 CxImageGIF::rle_block_out
FUNC 40ed4 10 0 CxImageGIF::rle_block_flush
FUNC 40ee4 64 0 CxImageGIF::rle_output
FUNC 40f48 80 0 CxImageGIF::rle_output_plain
FUNC 40fc8 3c 0 CxImageGIF::rle_reset_out_clear
FUNC 41004 104 0 CxImageGIF::rle_flush_fromclear
FUNC 41108 160 0 CxImageGIF::rle_flush_withtable
FUNC 41268 78 0 CxImageGIF::rle_flush_clearorrep
FUNC 412e0 94 0 CxImageGIF::rle_flush
FUNC 41374 38 0 CxImageGIF::rle_output_flush
FUNC 413ac 114 0 CxImageGIF::compressRLE
FUNC 414c0 1cc 0 CxImageGIF::EncodeBody
FUNC 4168c 42c 0 CxImageGIF::Encode
FUNC 41ab8 354 0 CxImageGIF::EncodeRGB
FUNC 41e0c e0 0 CxImageGIF::Encode
FUNC 41ef0 68 0 CxImage::GetTransColor
FUNC 41f58 8 0 CxImage::GetTransIndex
FUNC 41f60 14 0 CxImage::SetTransIndex
FUNC 41f74 20 0 CxImage::SetTransColor
FUNC 41f94 10 0 CxImage::IsTransparent
FUNC 41fa4 10 0 CxImage::IsIndexed
FUNC 41fb4 28 0 CxImage::GetColorType
FUNC 41fdc 8 0 CxImage::GetXDPI
FUNC 41fe4 8 0 CxImage::GetYDPI
FUNC 41fec 7c 0 CxImage::SetXDPI
FUNC 42068 78 0 CxImage::SetYDPI
FUNC 420e0 8 0 CxImage::GetFlags
FUNC 420e8 10 0 CxImage::SetFlags
FUNC 420f8 8 0 CxImage::GetDIB
FUNC 42100 8 0 CxImage::GetHeight
FUNC 42108 8 0 CxImage::GetWidth
FUNC 42110 8 0 CxImage::GetEffWidth
FUNC 42118 8 0 CxImage::GetNumColors
FUNC 42120 8 0 CxImage::GetBpp
FUNC 42128 8 0 CxImage::GetType
FUNC 42130 3c 0 CxImage::SetType
FUNC 4216c 8 0 CxImage::GetNumTypes
FUNC 42174 3d0 0 CxImage::GetTypeIdFromName
FUNC 42544 80 0 CxImage::GetTypeIdFromIndex
FUNC 425c4 80 0 CxImage::GetTypeIndexFromId
FUNC 42644 30 0 CxImage::GetCodecOption
FUNC 42674 38 0 CxImage::SetCodecOption
FUNC 426ac 8 0 CxImage::GetFrameDelay
FUNC 426b4 8 0 CxImage::SetFrameDelay
FUNC 426bc 14 0 CxImage::GetOffset
FUNC 426d0 c 0 CxImage::SetOffset
FUNC 426dc 1c 0 CxImage::GetJpegQuality
FUNC 426f8 8 0 CxImage::GetJpegQualityF
FUNC 42700 10 0 CxImage::SetJpegQuality
FUNC 42710 20 0 CxImage::SetJpegQualityF
FUNC 42730 8 0 CxImage::GetJpegScale
FUNC 42738 8 0 CxImage::SetJpegScale
FUNC 42740 8 0 CxImage::GetProgress
FUNC 42748 8 0 CxImage::GetEscape
FUNC 42750 8 0 CxImage::SetProgress
FUNC 42758 8 0 CxImage::SetEscape
FUNC 42760 10 0 CxImage::IsValid
FUNC 42770 8 0 CxImage::IsEnabled
FUNC 42778 8 0 CxImage::Enable
FUNC 42780 8 0 CxImage::GetNumFrames
FUNC 42788 8 0 CxImage::GetFrame
FUNC 42790 8 0 CxImage::SetFrame
FUNC 42798 8 0 CxImage::SetDisposalMethod
FUNC 427a0 8 0 CxImage::GetDisposalMethod
FUNC 427a8 8 0 CxImage::GetRetreiveAllFrames
FUNC 427b0 8 0 CxImage::SetRetreiveAllFrames
FUNC 427b8 40 0 CxImage::GetFrame
FUNC 427f8 24 0 CxImage::my_ntohs
FUNC 4281c 1c 0 CxImage::my_ntohl
FUNC 42838 bc 0 CxImage::bihtoh
FUNC 428f4 8 0 CxImage::GetLastError
FUNC 428fc a8 0 CxImage::DumpSize
FUNC 429a4 1bc 0 CxImage::Dump
FUNC 42b60 224 0 CxImage::UnDump
FUNC 42d84 c 0 CxImage::GetVersionNumber
FUNC 42d90 10 0 CxImage::GetVersion
FUNC 42da0 120 0 CxImagePCX::PCX_PlanesToPixels
FUNC 42ec0 10c4 0 CxImagePCX::PCX_UnpackPixels
FUNC 43f84 f8 0 CxImagePCX::PCX_PackPixels
FUNC 4407c dc 0 CxImagePCX::PCX_PackPlanes
FUNC 44158 68 0 CxImagePCX::PCX_PixelsToPlanes
FUNC 441c0 8c 0 CxImagePCX::PCX_toh
FUNC 4424c 8b4 0 CxImagePCX::Decode
FUNC 44b00 6e8 0 CxImagePCX::Encode
FUNC 451e8 10 0 CxImage::SelectionIsValid
FUNC 451f8 2c 0 CxImage::SelectionGetBox
FUNC 45224 78 0 CxImage::SelectionClear
FUNC 4529c 44 0 CxImage::SelectionDelete
FUNC 452e0 30 0 CxImage::SelectionCreate
FUNC 45310 40 0 CxImage::SelectionIsInside
FUNC 45350 64 0 CxImage::BlindSelectionIsInside
FUNC 453b4 1dc 0 CxImage::SelectionAddRect
FUNC 45590 334 0 CxImage::SelectionAddEllipse
FUNC 458c4 ac 0 CxImage::SelectionCopy
FUNC 45970 d84 0 CxImage::SelectionAddPolygon
FUNC 466f4 160 0 CxImage::SelectionAddColor
FUNC 46854 9c 0 CxImage::SelectionAddPixel
FUNC 468f0 158 0 CxImage::SelectionSplit
FUNC 46a48 3c 0 CxImage::SelectionSet
FUNC 46a84 44 0 CxImage::SelectionGet
FUNC 46ac8 16c 0 CxImage::SelectionRebuildBox
FUNC 46c34 414 0 CxImage::SelectionInvert
FUNC 47048 12c 0 CxImage::SelectionSet
FUNC 47174 58 0 CxImage::BlindSelectionGet
FUNC 471cc 44 0 CxImage::SelectionGetPointer
FUNC 47210 c4 0 CxImage::SelectionFlip
FUNC 472d4 414 0 CxImage::SelectionMirror
FUNC 476e8 10 0 CxPoint2::CxPoint2
FUNC 476f8 c 0 CxPoint2::CxPoint2
FUNC 47704 c 0 CxPoint2::CxPoint2
FUNC 47710 54 0 CxPoint2::Distance
FUNC 47764 54 0 CxPoint2::Distance
FUNC 477b8 1c 0 CxRect2::CxRect2
FUNC 477d4 3c 0 CxRect2::CxRect2
FUNC 47810 38 0 CxRect2::CxRect2
FUNC 47848 24 0 CxRect2::Surface
FUNC 4786c d4 0 CxRect2::CrossSection
FUNC 47940 40 0 CxRect2::Center
FUNC 47980 14 0 CxRect2::Width
FUNC 47994 14 0 CxRect2::Height
FUNC 479a8 68 0 CxImageWBMP::ReadOctet
FUNC 47a10 294 0 CxImageWBMP::Decode
FUNC 47ca4 78 0 CxImageWBMP::WriteOctet
FUNC 47d1c 174 0 CxImageWBMP::Encode
FUNC 47e90 50 0 CxMemFile::Seek
FUNC 47ee0 14 0 CxMemFile::Tell
FUNC 47ef4 14 0 CxMemFile::Size
FUNC 47f08 10 0 CxMemFile::Flush
FUNC 47f18 2c 0 CxMemFile::Eof
FUNC 47f44 2c 0 CxMemFile::Error
FUNC 47f70 34 0 CxMemFile::GetC
FUNC 47fa4 70 0 CxMemFile::GetS
FUNC 48014 8 0 CxMemFile::Scanf
FUNC 4801c 38 0 CxMemFile::Close
FUNC 48054 3c 0 CxMemFile::~CxMemFile
FUNC 48090 1c 0 CxMemFile::~CxMemFile
FUNC 480ac 94 0 CxMemFile::Read
FUNC 48140 40 0 CxMemFile::CxMemFile
FUNC 48180 48 0 CxMemFile::Open
FUNC 481c8 14 0 CxMemFile::GetBuffer
FUNC 481dc 8c 0 CxMemFile::Alloc
FUNC 48268 90 0 CxMemFile::Write
FUNC 482f8 6c 0 CxMemFile::PutC
FUNC 48364 14 0 CxMemFile::Free
FUNC 48378 2ec 0 CxImageBMP::Encode
FUNC 48664 208 0 CxImageBMP::DibReadBitmapInfo
FUNC 4886c e44 0 CxImageBMP::Decode
FUNC 496b0 6c 0 CxImageJPG::CxExifInfo::CxExifInfo
FUNC 4971c 48 0 CxImageJPG::CxExifInfo::~CxExifInfo
FUNC 49764 10 0 CxImageJPG::CxExifInfo::Get16m
FUNC 49774 20 0 CxImageJPG::CxExifInfo::Get16u
FUNC 49794 3c 0 CxImageJPG::CxExifInfo::Get32s
FUNC 497d0 4 0 CxImageJPG::CxExifInfo::Get32u
FUNC 497d4 12c 0 CxImageJPG::CxExifInfo::ConvertAnyFormat
FUNC 49900 b3c 0 CxImageJPG::CxExifInfo::ProcessExifDir
FUNC 4a43c 244 0 CxImageJPG::CxExifInfo::process_EXIF
FUNC 4a680 c4 0 CxImageJPG::CxExifInfo::process_COM
FUNC 4a744 54 0 CxImageJPG::CxExifInfo::process_SOFn
FUNC 4a798 5b4 0 CxImageJPG::CxExifInfo::DecodeExif
FUNC 4ad4c 12c 0 CxImageJPG::CxExifInfo::DiscardAllButExif
FUNC 4ae78 6c 0 CxImageJPG::CxExifInfo::FindSection
FUNC 4aee4 174 0 CxImageJPG::CxExifInfo::EncodeExif
FUNC 4b058 1640 0 CxImage::Histogram
FUNC 4c698 f90 0 CxImage::HistogramStretch
FUNC 4d628 520 0 CxImage::HistogramEqualize
FUNC 4db48 3dc 0 CxImage::HistogramNormalize
FUNC 4df24 32c 0 CxImage::HistogramLog
FUNC 4e250 390 0 CxImage::HistogramRoot
FUNC 4e5e0 14c 0 CxImage::OverflowCoordinates
FUNC 4e72c 280 0 CxImage::OverflowCoordinates
FUNC 4e9ac 178 0 CxImage::GetPixelColorWithOverflow
FUNC 4eb24 70 0 CxImage::AddAveragingCont
FUNC 4eb94 bc 0 CxImage::KernelBSpline
FUNC 4ec50 48 0 CxImage::KernelLinear
FUNC 4ec98 5c 0 CxImage::KernelCubic
FUNC 4ecf4 98 0 CxImage::KernelGeneralizedCubic
FUNC 4ed8c 90 0 CxImage::KernelLanczosSinc
FUNC 4ee1c 40 0 CxImage::KernelBox
FUNC 4ee5c 7c 0 CxImage::KernelHermite
FUNC 4eed8 80 0 CxImage::KernelHanning
FUNC 4ef58 90 0 CxImage::KernelHamming
FUNC 4efe8 4c 0 CxImage::KernelSinc
FUNC 4f034 74 0 CxImage::KernelBlackman
FUNC 4f0a8 160 0 CxImage::KernelBessel_J1
FUNC 4f208 e8 0 CxImage::KernelBessel_P1
FUNC 4f2f0 f0 0 CxImage::KernelBessel_Q1
FUNC 4f3e0 130 0 CxImage::KernelBessel_Order1
FUNC 4f510 58 0 CxImage::KernelBessel
FUNC 4f568 40 0 CxImage::KernelGaussian
FUNC 4f5a8 94 0 CxImage::KernelQuadratic
FUNC 4f63c f4 0 CxImage::KernelMitchell
FUNC 4f730 f8 0 CxImage::KernelCatrom
FUNC 4f828 68 0 CxImage::KernelPower
FUNC 4f890 16fc 0 CxImage::GetPixelColorInterpolated
FUNC 50f8c 82c 0 CxImage::GetAreaColorInterpolated
FUNC 517b8 64 0 CxImageJPG::~CxImageJPG
FUNC 5181c 1c 0 CxImageJPG::~CxImageJPG
FUNC 51838 20 0 ima_jpeg_error_exit
FUNC 51858 40 0 CxImageJPG::CxImageJPG
FUNC 51898 a0 0 CxImageJPG::DecodeExif
FUNC 51938 200 0 CxImageJPG::GetExifThumbnail
FUNC 51b38 b48 0 CxImageJPG::Decode
FUNC 52680 5e0 0 CxImageJPG::Encode
FUNC 52c60 18 0 CxImageJPG::CxFileJpg::InitDestination
FUNC 52c78 60 0 CxImageJPG::CxFileJpg::EmptyOutputBuffer
FUNC 52cd8 18 0 CxImageJPG::CxFileJpg::InitSource
FUNC 52cf0 b4 0 CxImageJPG::CxFileJpg::FillInputBuffer
FUNC 52da4 4 0 CxImageJPG::CxFileJpg::TermSource
FUNC 52da8 98 0 CxImageJPG::CxFileJpg::TermDestination
FUNC 52e40 104 0 CxImageJPG::CxFileJpg::SkipInputData
FUNC 52f48 34 0 CxImagePNG::ima_png_error
FUNC 52f7c 7c 0 CxImagePNG::expand2to4bpp
FUNC 52ff8 d00 0 CxImagePNG::Decode
FUNC 53cf8 948 0 CxImagePNG::Encode
FUNC 54640 3c 0 CxImagePNG::user_error_fn
FUNC 5467c 50 0 CxImagePNG::user_read_data
FUNC 546cc 3c 0 CxImagePNG::user_flush_data
FUNC 54708 50 0 CxImagePNG::user_write_data
FUNC 54758 1ec 0 CxImageSKA::Decode
FUNC 54944 244 0 CxImageSKA::Encode
FUNC 54b88 58 0 CxImageTIF::~CxImageTIF
FUNC 54be0 1c 0 CxImageTIF::~CxImageTIF
FUNC 54bfc a0c 0 CxImageTIF::EncodeBody
FUNC 55608 210 0 CxImageTIF::Encode
FUNC 55818 208 0 CxImageTIF::Encode
FUNC 55a20 1ec 0 CxImageTIF::TileToStrip
FUNC 55c0c 18 0 CxImageTIF::TIFFOpenEx
FUNC 55c24 c 0 CxImageTIF::TIFFCloseEx
FUNC 55c30 3b0 0 CxImageTIF::MoveBits
FUNC 55fe0 158 0 CxImageTIF::MoveBitsPal
FUNC 56138 2638 0 CxImageTIF::Decode
FUNC 58770 240 0 dcr_rollei_load_raw
FUNC 589b0 18c 0 dcr_casio_qv5700_load_raw
FUNC 58b3c 4 0 dcr_kodak_jpeg_load_raw
FUNC 58b40 c 0 dcr_sfile_eof
FUNC 58b4c 18 0 dcr_sfile_write
FUNC 58b64 14 0 dcr_sfile_gets
FUNC 58b78 4 0 dcr_sfile_close
FUNC 58b7c 4 0 dcr_sfile_getc
FUNC 58b80 18 0 dcr_sfile_read
FUNC 58b98 4 0 dcr_sfile_scanf
FUNC 58b9c 4 0 dcr_sfile_tell
FUNC 58ba0 4 0 dcr_sfile_seek
FUNC 58ba4 68 0 dcr_fc
FUNC 58c0c 54 0 dcr_memmem
FUNC 58c60 80 0 dcr_merror
FUNC 58ce0 a4 0 dcr_ppm_thumb
FUNC 58d84 154 0 dcr_layer_thumb
FUNC 58ed8 c0 0 dcr_derror
FUNC 58f98 414 0 nokia_load_raw
FUNC 593ac 260 0 dcr_olympus_e300_load_raw
FUNC 5960c 2b0 0 dcr_minolta_rd175_load_raw
FUNC 598bc 16c 0 dcr_kodak_dc120_load_raw
FUNC 59a28 208 0 dcr_eight_bit_load_raw
FUNC 59c30 19c 0 dcr_kodak_yrgb_load_raw
FUNC 59dcc 28 0 dcr_sget2
FUNC 59df4 58 0 dcr_get2
FUNC 59e4c 5c 0 dcr_sget4
FUNC 59ea8 3d0 0 dcr_sony_arw2_load_raw
FUNC 5a278 54 0 dcr_get4
FUNC 5a2cc 368 0 dcr_packed_12_load_raw
FUNC 5a634 1c 0 dcr_getint
FUNC 5a650 4 0 dcr_int_to_float
FUNC 5a654 1a0 0 dcr_getreal
FUNC 5a7f4 64 0 dcr_read_shorts
FUNC 5a858 254 0 dcr_fuji_load_raw
FUNC 5aaac e0 0 dcr_rollei_thumb
FUNC 5ab8c 274 0 dcr_leaf_hdr_load_raw
FUNC 5ae00 74 0 dcr_imacon_full_load_raw
FUNC 5ae74 18c 0 dcr_unpacked_load_raw
FUNC 5b000 2a4 0 dcr_sinar_4shot_load_raw
FUNC 5b2a4 a4 0 dcr_kodak_thumb_load_raw
FUNC 5b348 158 0 dcr_canon_black
FUNC 5b4a0 1d0 0 dcr_canon_600_fixed_wb
FUNC 5b670 12c 0 dcr_canon_600_color
FUNC 5b79c 4a0 0 dcr_canon_600_auto_wb
FUNC 5bc3c 468 0 dcr_canon_600_coeff
FUNC 5c0a4 5d8 0 dcr_canon_600_load_raw
FUNC 5c67c 248 0 dcr_remove_zeroes
FUNC 5c8c4 218 0 dcr_canon_a5_load_raw
FUNC 5cadc 68 0 dcr_canon_s2is
FUNC 5cb44 158 0 dcr_getbits
FUNC 5cc9c 148 0 dcr_nikon_e900_load_raw
FUNC 5cde4 498 0 dcr_olympus_e410_load_raw
FUNC 5d27c 6b0 0 dcr_quicktake_100_load_raw
FUNC 5d92c 174 0 dcr_sony_arw_load_raw
FUNC 5daa0 28 0 dcr_init_decoder
FUNC 5dac8 27c 0 dcr_make_decoder
FUNC 5dd44 530 0 dcr_nikon_compressed_load_raw
FUNC 5e274 70 0 dcr_crw_init_tables
FUNC 5e2e4 8c 0 dcr_canon_has_lowbits
FUNC 5e370 578 0 dcr_canon_compressed_load_raw
FUNC 5e8e8 384 0 dcr_ljpeg_start
FUNC 5ec6c a0 0 dcr_ljpeg_diff
FUNC 5ed0c 198 0 dcr_pentax_k10_load_raw
FUNC 5eea4 3ac 0 dcr_kodak_262_load_raw
FUNC 5f250 30c 0 dcr_ljpeg_row
FUNC 5f55c 318 0 dcr_lossless_jpeg_load_raw
FUNC 5f874 590 0 dcr_canon_sraw_load_raw
FUNC 5fe04 1c4 0 dcr_adobe_copy_pixel
FUNC 5ffc8 1c0 0 dcr_adobe_dng_load_raw_lj
FUNC 60188 13c 0 dcr_adobe_dng_load_raw_nc
FUNC 602c4 118 0 dcr_nikon_is_compressed
FUNC 603dc f4 0 dcr_nikon_e995
FUNC 604d0 b4 0 dcr_nikon_e2100
FUNC 60584 148 0 dcr_nikon_3700
FUNC 606cc 7c 0 dcr_minolta_z2
FUNC 60748 8c 0 dcr_bayer
FUNC 607d4 560 0 dcr_phase_one_flat_field
FUNC 60d34 fc0 0 dcr_phase_one_correct
FUNC 61cf4 20 0 dcr_phase_one_correct
FUNC 61d14 22c 0 dcr_phase_one_load_raw
FUNC 61f40 d8 0 dcr_ph1_bits
FUNC 62018 6e0 0 dcr_phase_one_load_raw_c
FUNC 626f8 228 0 dcr_hasselblad_load_raw
FUNC 62920 d4 0 dcr_pana_bits
FUNC 629f4 234 0 dcr_panasonic_load_raw
FUNC 62c28 78 0 dcr_make_decoder_int
FUNC 62ca0 114 0 dcr_radc_token
FUNC 62db4 eb8 0 dcr_kodak_radc_load_raw
FUNC 63c6c 488 0 dcr_kodak_65000_decode
FUNC 640f4 21c 0 dcr_kodak_65000_load_raw
FUNC 64310 43c 0 dcr_kodak_ycbcr_load_raw
FUNC 6474c 1a0 0 dcr_kodak_rgb_load_raw
FUNC 648ec 434 0 dcr_sony_decrypt
FUNC 64d20 4c4 0 dcr_sony_load_raw
FUNC 651e4 86c 0 dcr_smal_decode_segment
FUNC 65a50 78 0 dcr_smal_v6_load_raw
FUNC 65ac8 64 0 dcr_median4
FUNC 65b2c 434 0 dcr_fill_holes
FUNC 65f60 164 0 dcr_smal_v9_load_raw
FUNC 660c4 444 0 dcr_bad_pixels
FUNC 66508 30c 0 dcr_subtract
FUNC 66814 2d4 0 dcr_pseudoinverse
FUNC 66ae8 538 0 dcr_cam_xyz_coeff
FUNC 67020 5e4 0 dcr_hat_transform
FUNC 67604 1098 0 dcr_wavelet_denoise
FUNC 6869c 1400 0 dcr_scale_colors
FUNC 69a9c 20c 0 dcr_pre_interpolate
FUNC 69ca8 38c 0 dcr_border_interpolate
FUNC 6a034 598 0 dcr_lin_interpolate
FUNC 6a5cc af8 0 dcr_vng_interpolate
FUNC 6b0c4 7f4 0 dcr_ppg_interpolate
FUNC 6b8b8 15c0 0 dcr_ahd_interpolate
FUNC 6ce78 338 0 dcr_median_filter
FUNC 6d1b0 94c 0 dcr_blend_highlights
FUNC 6dafc 81c 0 dcr_recover_highlights
FUNC 6e318 ac 0 dcr_tiff_get
FUNC 6e3c4 d0 0 dcr_parse_thumb_note
FUNC 6e494 120 0 dcr_get_timestamp
FUNC 6e5b4 1d0 0 dcr_parse_gps
FUNC 6e784 22c 0 dcr_romm_coeff
FUNC 6e9b0 520 0 dcr_parse_mos
FUNC 6eed0 f0 0 dcr_linear_table
FUNC 6efc0 2e4 0 dcr_parse_kodak_ifd
FUNC 6f2a4 27c 0 dcr_parse_minolta
FUNC 6f520 2614 0 dcr_parse_tiff_ifd
FUNC 71b34 1568 0 dcr_parse_makernote
FUNC 7309c 368 0 dcr_parse_exif
FUNC 73404 920 0 dcr_parse_tiff
FUNC 73d24 2bc 0 dcr_parse_external_jpeg
FUNC 73fe0 3a0 0 dcr_ciff_block_1030
FUNC 74380 880 0 dcr_parse_ciff
FUNC 74c00 324 0 dcr_parse_rollei
FUNC 74f24 210 0 dcr_parse_sinar_ia
FUNC 75134 51c 0 dcr_parse_phase_one
FUNC 75650 18c 0 dcr_parse_fuji
FUNC 757dc 168 0 dcr_parse_jpeg
FUNC 75944 3f8 0 dcr_parse_riff
FUNC 75d3c 25c 0 dcr_parse_smal
FUNC 75f98 398 0 dcr_parse_cine
FUNC 76330 88 0 dcr_foveon_gets
FUNC 763b8 590 0 dcr_parse_foveon
FUNC 76948 1e4 0 dcr_adobe_coeff
FUNC 76b2c 344 0 dcr_simple_coeff
FUNC 76e70 108 0 dcr_guess_byte_order
FUNC 76f78 5d78 0 dcr_identify
FUNC 7ccf0 c90 0 dcr_convert_to_rgb
FUNC 7d980 2e4 0 dcr_fuji_rotate
FUNC 7dc64 3ac 0 dcr_stretch
FUNC 7e010 48 0 dcr_flip_index
FUNC 7e058 1f0 0 dcr_gamma_lut
FUNC 7e248 90 0 dcr_tiff_set
FUNC 7e2d8 80c 0 dcr_tiff_head
FUNC 7eae4 124 0 dcr_jpeg_thumb
FUNC 7ec08 3c8 0 dcr_write_ppm_tiff
FUNC 7efd0 a8 0 dcr_init_dcraw
FUNC 7f078 48 0 dcr_cleanup_dcraw
FUNC 7f0c0 25c 0 dcr_print_manual
FUNC 7f31c 780 0 dcr_parse_command_line_options
FUNC 7faa0 38 0 checked_malloc
FUNC 7fad8 9c 0 jbg_buf_write
FUNC 7fb74 1c 0 jbg_ceil_half
FUNC 7fb90 31dc 0 encode_sde
FUNC 82d6c 3d4 0 resolution_reduction
FUNC 83140 29b0 0 decode_pscd
FUNC 85af0 268 0 jbg_enc_init
FUNC 85d58 d4 0 jbg_enc_lrlmax
FUNC 85e2c 88 0 jbg_enc_layers
FUNC 85eb4 44 0 jbg_enc_lrange
FUNC 85ef8 48 0 jbg_enc_options
FUNC 85f40 1e4 0 jbg_int2dppriv
FUNC 86124 1c4 0 jbg_dppriv2int
FUNC 862e8 924 0 jbg_enc_out
FUNC 86c0c 170 0 jbg_enc_free
FUNC 86d7c 4c 0 jbg_strerror
FUNC 86dc8 34 0 jbg_dec_init
FUNC 86dfc 14 0 jbg_dec_maxsize
FUNC 86e10 d14 0 jbg_dec_in
FUNC 87b24 60 0 jbg_dec_getwidth
FUNC 87b84 60 0 jbg_dec_getheight
FUNC 87be4 84 0 jbg_dec_getimage
FUNC 87c68 9c 0 jbg_dec_getsize
FUNC 87d04 b8 0 jbg_dec_getsize_merged
FUNC 87dbc 100 0 jbg_dec_free
FUNC 87ebc 3d8 0 jbg_split_planes
FUNC 88294 220 0 jbg_dec_merge_planes
FUNC 884b4 130 0 jbg_next_pscdms
FUNC 885e4 b0 0 jbg_newlen
FUNC fadec 44 0 read_sleb128
FUNC fae30 11c 0 read_encoded_value_with_base
FUNC faf4c 74 0 base_of_encoded_value
FUNC fafc0 e0 0 parse_lsda_header
FUNC fb0a0 668 0 __cxxabiv1::__gxx_personality_v0
FUNC fb708 8 0 __cxxabiv1::__cxa_get_exception_ptr
FUNC fb710 e0 0 __cxxabiv1::__cxa_begin_catch
FUNC fb7f0 d8 0 __cxxabiv1::__cxa_end_catch
FUNC fb8c8 18 0 std::uncaught_exception
FUNC fb8e0 a4 0 operator new
FUNC fb984 70 0 __cxxabiv1::__is_gxx_exception_class
FUNC fb9f4 2c 0 __cxa_call_terminate
FUNC fba20 168 0 __cxa_call_unexpected
FUNC fbb88 34 0 __eh_globals_init::~__eh_globals_init
FUNC fbbbc 3c 0 eh_globals_dtor
FUNC fbbf8 48 0 __cxxabiv1::__cxa_get_globals_fast
FUNC fbc40 90 0 __cxxabiv1::__cxa_get_globals
FUNC fbcd0 28 0 __cxxabiv1::__si_class_type_info::~__si_class_type_info
FUNC fbcf8 1c 0 __cxxabiv1::__si_class_type_info::~__si_class_type_info
FUNC fbd14 64 0 __cxxabiv1::__si_class_type_info::__do_find_public_src
FUNC fbd78 e0 0 __cxxabiv1::__si_class_type_info::__do_dyncast
FUNC fbe58 40 0 __cxxabiv1::__si_class_type_info::__do_upcast
FUNC fbe98 4 0 operator delete []
FUNC fbe9c 5c 0 __cxxabiv1::__class_type_info::__do_upcast
FUNC fbef8 14 0 __cxxabiv1::__class_type_info::__do_find_public_src
FUNC fbf0c 28 0 __cxxabiv1::__class_type_info::~__class_type_info
FUNC fbf34 1c 0 __cxxabiv1::__class_type_info::~__class_type_info
FUNC fbf50 2c 0 __cxxabiv1::__class_type_info::__do_upcast
FUNC fbf7c 44 0 __cxxabiv1::__class_type_info::__do_catch
FUNC fbfc0 78 0 __cxxabiv1::__class_type_info::__do_dyncast
FUNC fc038 60 0 __gxx_exception_cleanup
FUNC fc098 b8 0 __cxxabiv1::__cxa_throw
FUNC fc150 b0 0 __cxxabiv1::__cxa_rethrow
FUNC fc200 28 0 __cxxabiv1::__fundamental_type_info::~__fundamental_type_info
FUNC fc228 1c 0 __cxxabiv1::__fundamental_type_info::~__fundamental_type_info
FUNC fc244 18 0 std::exception::~exception
FUNC fc25c 28 0 std::bad_exception::~bad_exception
FUNC fc284 18 0 __cxxabiv1::__forced_unwind::~__forced_unwind
FUNC fc29c 18 0 __cxxabiv1::__foreign_exception::~__foreign_exception
FUNC fc2b4 10 0 std::exception::what
FUNC fc2c4 10 0 std::bad_exception::what
FUNC fc2d4 1c 0 std::exception::~exception
FUNC fc2f0 1c 0 std::bad_exception::~bad_exception
FUNC fc30c 1c 0 __cxxabiv1::__forced_unwind::~__forced_unwind
FUNC fc328 1c 0 __cxxabiv1::__foreign_exception::~__foreign_exception
FUNC fc344 c 0 operator delete
FUNC fc360 144 0 __cxa_type_match
FUNC fc4a4 b4 0 __cxa_begin_cleanup
FUNC fc558 b4 0 __gnu_end_cleanup
FUNC fc60c 34 0 __cxxabiv1::__terminate
FUNC fc640 18 0 std::terminate
FUNC fc658 c 0 __cxxabiv1::__unexpected
FUNC fc664 18 0 std::unexpected
FUNC fc67c 1c 0 std::set_terminate
FUNC fc698 1c 0 std::set_unexpected
FUNC fc6b4 1c 0 operator new []
FUNC fc6d0 10 0 __gnu_cxx::__concurrence_lock_error::what
FUNC fc6e0 10 0 __gnu_cxx::__concurrence_unlock_error::what
FUNC fc6f0 28 0 __gnu_cxx::__concurrence_unlock_error::~__concurrence_unlock_error
FUNC fc718 28 0 __gnu_cxx::__concurrence_lock_error::~__concurrence_lock_error
FUNC fc740 30 0 __gnu_cxx::__concurrence_unlock_error::~__concurrence_unlock_error
FUNC fc770 30 0 __gnu_cxx::__concurrence_lock_error::~__concurrence_lock_error
FUNC fc7a0 3c 0 __gnu_cxx::__throw_concurrence_lock_error
FUNC fc7dc 3c 0 __gnu_cxx::__throw_concurrence_unlock_error
FUNC fc818 e0 0 __cxxabiv1::__cxa_allocate_exception
FUNC fc8f8 a0 0 __cxxabiv1::__cxa_free_exception
FUNC fc998 dc 0 __cxxabiv1::__cxa_allocate_dependent_exception
FUNC fca74 a8 0 __cxxabiv1::__cxa_free_dependent_exception
FUNC fcb1c 10 0 __aeabiv1::__aeabi_atexit
FUNC fcb2c 1c 0 std::set_new_handler
FUNC fcb48 20 0 __cxxabiv1::__cxa_pure_virtual
FUNC fcb68 20 0 __cxxabiv1::__cxa_deleted_virtual
FUNC fcb88 10 0 std::bad_alloc::what
FUNC fcb98 28 0 std::bad_alloc::~bad_alloc
FUNC fcbc0 1c 0 std::bad_alloc::~bad_alloc
FUNC fcbdc 4c 0 std::__throw_bad_exception
FUNC fcc28 4c 0 std::__throw_bad_alloc
FUNC fcc74 4c 0 std::__throw_bad_cast
FUNC fccc0 4c 0 std::__throw_bad_typeid
FUNC fcd0c 88 0 std::__throw_logic_error
FUNC fcd94 88 0 std::__throw_domain_error
FUNC fce1c 88 0 std::__throw_invalid_argument
FUNC fcea4 88 0 std::__throw_length_error
FUNC fcf2c 88 0 std::__throw_out_of_range
FUNC fcfb4 88 0 std::__throw_runtime_error
FUNC fd03c 88 0 std::__throw_range_error
FUNC fd0c4 88 0 std::__throw_overflow_error
FUNC fd14c 88 0 std::__throw_underflow_error
FUNC fd1d4 74 0 std::__throw_ios_failure
FUNC fd248 b4 0 std::__throw_system_error
FUNC fd2fc b4 0 std::__throw_future_error
FUNC fd3b0 4c 0 std::__throw_bad_function_call
FUNC fd3fc 48 0 std::__throw_regex_error
FUNC fd444 10 0 std::bad_function_call::what
FUNC fd454 28 0 std::bad_function_call::~bad_function_call
FUNC fd47c 30 0 std::bad_function_call::~bad_function_call
FUNC fd4ac 4 0 std::__future_base::_State_base::_M_run_deferred
FUNC fd4b0 10 0 future_error_category::name
FUNC fd4c0 28 0 future_error_category::~future_error_category
FUNC fd4e8 30 0 future_error_category::~future_error_category
FUNC fd518 28 0 std::future_error::~future_error
FUNC fd540 30 0 std::future_error::~future_error
FUNC fd570 28 0 std::__future_base::_Result_base::~_Result_base
FUNC fd598 30 0 std::__future_base::_Result_base::~_Result_base
FUNC fd5c8 48 0 std::__future_base::_State_base::~_State_base
FUNC fd610 1c 0 std::__future_base::_State_base::~_State_base
FUNC fd62c 80 0 std::future_error::what
FUNC fd6ac f4 0 future_error_category::message
FUNC fd7a0 94 0 std::future_category
FUNC fd834 28 0 std::__future_base::_Result_base::_Result_base
FUNC fd85c 8 0 std::basic_string<char, std::char_traits<char>, std::allocator<char> >::data
FUNC fd864 c 0 std::basic_string<char, std::char_traits<char>, std::allocator<char> >::length
FUNC fd870 8 0 std::basic_string<char, std::char_traits<char>, std::allocator<char> >::_M_data
FUNC fd878 c 0 std::basic_string<char, std::char_traits<char>, std::allocator<char> >::_M_data
FUNC fd884 c 0 std::basic_string<char, std::char_traits<char>, std::allocator<char> >::_M_rep
FUNC fd890 8 0 std::basic_string<char, std::char_traits<char>, std::allocator<char> >::_M_ibegin
FUNC fd898 10 0 std::basic_string<char, std::char_traits<char>, std::allocator<char> >::_M_iend
FUNC fd8a8 24 0 std::basic_string<char, std::char_traits<char>, std::allocator<char> >::_M_check
FUNC fd8cc 2c 0 std::basic_string<char, std::char_traits<char>, std::allocator<char> >::_M_check_length
FUNC fd8f8 18 0 std::basic_string<char, std::char_traits<char>, std::allocator<char> >::_M_limit
FUNC fd910 2c 0 std::basic_string<char, std::char_traits<char>, std::allocator<char> >::_M_disjunct
FUNC fd93c 18 0 std::basic_string<char, std::char_traits<char>, std::allocator<char> >::_M_copy
FUNC fd954 18 0 std::basic_string<char, std::char_traits<char>, std::allocator<char> >::_M_move
FUNC fd96c 1c 0 std::basic_string<char, std::char_traits<char>, std::allocator<char> >::_M_assign
FUNC fd988 1c 0 std::basic_string<char, std::char_traits<char>, std::allocator<char> >::_S_copy_chars
FUNC fd9a4 1c 0 std::basic_string<char, std::char_traits<char>, std::allocator<char> >::_S_copy_chars
FUNC fd9c0 1c 0 std::basic_string<char, std::char_traits<char>, std::allocator<char> >::_S_copy_chars
FUNC fd9dc 1c 0 std::basic_string<char, std::char_traits<char>, std::allocator<char> >::_S_copy_chars
FUNC fd9f8 8 0 std::basic_string<char, std::char_traits<char>, std::allocator<char> >::_S_compare
FUNC fda00 10 0 std::basic_string<char, std::char_traits<char>, std::allocator<char> >::_S_empty_rep
FUNC fda10 18 0 std::basic_string<char, std::char_traits<char>, std::allocator<char> >::basic_string
FUNC fda28 20 0 std::basic_string<char, std::char_traits<char>, std::allocator<char> >::basic_string
FUNC fda48 8 0 std::basic_string<char, std::char_traits<char>, std::allocator<char> >::begin
FUNC fda50 10 0 std::basic_string<char, std::char_traits<char>, std::allocator<char> >::end
FUNC fda60 14 0 std::basic_string<char, std::char_traits<char>, std::allocator<char> >::rbegin
FUNC fda74 c 0 std::basic_string<char, std::char_traits<char>, std::allocator<char> >::rend
FUNC fda80 8 0 std::basic_string<char, std::char_traits<char>, std::allocator<char> >::cbegin
FUNC fda88 10 0 std::basic_string<char, std::char_traits<char>, std::allocator<char> >::cend
FUNC fda98 14 0 std::basic_string<char, std::char_traits<char>, std::allocator<char> >::crbegin
FUNC fdaac c 0 std::basic_string<char, std::char_traits<char>, std::allocator<char> >::crend
FUNC fdab8 c 0 std::basic_string<char, std::char_traits<char>, std::allocator<char> >::size
FUNC fdac4 8 0 std::basic_string<char, std::char_traits<char>, std::allocator<char> >::max_size
FUNC fdacc c 0 std::basic_string<char, std::char_traits<char>, std::allocator<char> >::capacity
FUNC fdad8 14 0 std::basic_string<char, std::char_traits<char>, std::allocator<char> >::empty
FUNC fdaec c 0 std::basic_string<char, std::char_traits<char>, std::allocator<char> >::operator[]
FUNC fdaf8 2c 0 std::basic_string<char, std::char_traits<char>, std::allocator<char> >::at
FUNC fdb24 8 0 std::basic_string<char, std::char_traits<char>, std::allocator<char> >::front
FUNC fdb2c 14 0 std::basic_string<char, std::char_traits<char>, std::allocator<char> >::back
FUNC fdb40 6c 0 std::basic_string<char, std::char_traits<char>, std::allocator<char> >::copy
FUNC fdbac 34 0 std::basic_string<char, std::char_traits<char>, std::allocator<char> >::swap
FUNC fdbe0 14 0 std::basic_string<char, std::char_traits<char>, std::allocator<char> >::operator=
FUNC fdbf4 14 0 std::basic_string<char, std::char_traits<char>, std::allocator<char> >::assign
FUNC fdc08 8 0 std::basic_string<char, std::char_traits<char>, std::allocator<char> >::c_str
FUNC fdc10 4 0 std::basic_string<char, std::char_traits<char>, std::allocator<char> >::get_allocator
FUNC fdc14 9c 0 std::basic_string<char, std::char_traits<char>, std::allocator<char> >::find
FUNC fdcb0 c 0 std::basic_string<char, std::char_traits<char>, std::allocator<char> >::find
FUNC fdcbc 30 0 std::basic_string<char, std::char_traits<char>, std::allocator<char> >::find
FUNC fdcec 3c 0 std::basic_string<char, std::char_traits<char>, std::allocator<char> >::find
FUNC fdd28 64 0 std::basic_string<char, std::char_traits<char>, std::allocator<char> >::rfind
FUNC fdd8c c 0 std::basic_string<char, std::char_traits<char>, std::allocator<char> >::rfind
FUNC fdd98 30 0 std::basic_string<char, std::char_traits<char>, std::allocator<char> >::rfind
FUNC fddc8 44 0 std::basic_string<char, std::char_traits<char>, std::allocator<char> >::rfind
FUNC fde0c 58 0 std::basic_string<char, std::char_traits<char>, std::allocator<char> >::find_first_of
FUNC fde64 c 0 std::basic_string<char, std::char_traits<char>, std::allocator<char> >::find_first_of
FUNC fde70 30 0 std::basic_string<char, std::char_traits<char>, std::allocator<char> >::find_first_of
FUNC fdea0 4 0 std::basic_string<char, std::char_traits<char>, std::allocator<char> >::find_first_of
FUNC fdea4 68 0 std::basic_string<char, std::char_traits<char>, std::allocator<char> >::find_last_of
FUNC fdf0c c 0 std::basic_string<char, std::char_traits<char>, std::allocator<char> >::find_last_of
FUNC fdf18 30 0 std::basic_string<char, std::char_traits<char>, std::allocator<char> >::find_last_of
FUNC fdf48 4 0 std::basic_string<char, std::char_traits<char>, std::allocator<char> >::find_last_of
FUNC fdf4c 58 0 std::basic_string<char, std::char_traits<char>, std::allocator<char> >::find_first_not_of
FUNC fdfa4 c 0 std::basic_string<char, std::char_traits<char>, std::allocator<char> >::find_first_not_of
FUNC fdfb0 30 0 std::basic_string<char, std::char_traits<char>, std::allocator<char> >::find_first_not_of
FUNC fdfe0 4c 0 std::basic_string<char, std::char_traits<char>, std::allocator<char> >::find_first_not_of
FUNC fe02c 64 0 std::basic_string<char, std::char_traits<char>, std::allocator<char> >::find_last_not_of
FUNC fe090 c 0 std::basic_string<char, std::char_traits<char>, std::allocator<char> >::find_last_not_of
FUNC fe09c 30 0 std::basic_string<char, std::char_traits<char>, std::allocator<char> >::find_last_not_of
FUNC fe0cc 44 0 std::basic_string<char, std::char_traits<char>, std::allocator<char> >::find_last_not_of
FUNC fe110 30 0 std::basic_string<char, std::char_traits<char>, std::allocator<char> >::compare
FUNC fe140 60 0 std::basic_string<char, std::char_traits<char>, std::allocator<char> >::compare
FUNC fe1a0 7c 0 std::basic_string<char, std::char_traits<char>, std::allocator<char> >::compare
FUNC fe21c 40 0 std::basic_string<char, std::char_traits<char>, std::allocator<char> >::compare
FUNC fe25c 6c 0 std::basic_string<char, std::char_traits<char>, std::allocator<char> >::compare
FUNC fe2c8 5c 0 std::basic_string<char, std::char_traits<char>, std::allocator<char> >::compare
FUNC fe324 8 0 std::basic_string<char, std::char_traits<char>, std::allocator<char> >::_Alloc_hider::_Alloc_hider
FUNC fe32c 10 0 std::basic_string<char, std::char_traits<char>, std::allocator<char> >::_Rep::_S_empty_rep
FUNC fe33c c 0 std::basic_string<char, std::char_traits<char>, std::allocator<char> >::_Rep::_M_is_leaked
FUNC fe348 14 0 std::basic_string<char, std::char_traits<char>, std::allocator<char> >::_Rep::_M_is_shared
FUNC fe35c c 0 std::basic_string<char, std::char_traits<char>, std::allocator<char> >::_Rep::_M_set_leaked
FUNC fe368 c 0 std::basic_string<char, std::char_traits<char>, std::allocator<char> >::_Rep::_M_set_sharable
FUNC fe374 28 0 std::basic_string<char, std::char_traits<char>, std::allocator<char> >::_Rep::_M_set_length_and_sharable
FUNC fe39c 8 0 std::basic_string<char, std::char_traits<char>, std::allocator<char> >::_Rep::_M_refdata
FUNC fe3a4 84 0 std::basic_string<char, std::char_traits<char>, std::allocator<char> >::_Rep::_S_create
FUNC fe428 84 0 std::basic_string<char, std::char_traits<char>, std::allocator<char> >::_S_construct
FUNC fe4ac 24 0 std::basic_string<char, std::char_traits<char>, std::allocator<char> >::basic_string
FUNC fe4d0 24 0 std::basic_string<char, std::char_traits<char>, std::allocator<char> >::basic_string
FUNC fe4f4 4 0 std::basic_string<char, std::char_traits<char>, std::allocator<char> >::_S_construct_aux_2
FUNC fe4f8 4 0 std::basic_string<char, std::char_traits<char>, std::allocator<char> >::_Rep::_M_destroy
FUNC fe4fc 18 0 std::basic_string<char, std::char_traits<char>, std::allocator<char> >::_Rep::_M_dispose
FUNC fe514 40 0 std::basic_string<char, std::char_traits<char>, std::allocator<char> >::~basic_string
FUNC fe554 164 0 std::basic_string<char, std::char_traits<char>, std::allocator<char> >::_M_mutate
FUNC fe6b8 50 0 std::basic_string<char, std::char_traits<char>, std::allocator<char> >::_M_leak_hard
FUNC fe708 14 0 std::basic_string<char, std::char_traits<char>, std::allocator<char> >::_M_leak
FUNC fe71c 28 0 std::basic_string<char, std::char_traits<char>, std::allocator<char> >::begin
FUNC fe744 34 0 std::basic_string<char, std::char_traits<char>, std::allocator<char> >::rend
FUNC fe778 2c 0 std::basic_string<char, std::char_traits<char>, std::allocator<char> >::end
FUNC fe7a4 2c 0 std::basic_string<char, std::char_traits<char>, std::allocator<char> >::operator[]
FUNC fe7d0 28 0 std::basic_string<char, std::char_traits<char>, std::allocator<char> >::front
FUNC fe7f8 30 0 std::basic_string<char, std::char_traits<char>, std::allocator<char> >::back
FUNC fe828 48 0 std::basic_string<char, std::char_traits<char>, std::allocator<char> >::at
FUNC fe870 3c 0 std::basic_string<char, std::char_traits<char>, std::allocator<char> >::rbegin
FUNC fe8ac 14 0 std::basic_string<char, std::char_traits<char>, std::allocator<char> >::clear
FUNC fe8c0 44 0 std::basic_string<char, std::char_traits<char>, std::allocator<char> >::erase
FUNC fe904 34 0 std::basic_string<char, std::char_traits<char>, std::allocator<char> >::erase
FUNC fe938 40 0 std::basic_string<char, std::char_traits<char>, std::allocator<char> >::erase
FUNC fe978 78 0 std::basic_string<char, std::char_traits<char>, std::allocator<char> >::_M_replace_aux
FUNC fe9f0 2c 0 std::basic_string<char, std::char_traits<char>, std::allocator<char> >::assign
FUNC fea1c 30 0 std::basic_string<char, std::char_traits<char>, std::allocator<char> >::operator=
FUNC fea4c 40 0 std::basic_string<char, std::char_traits<char>, std::allocator<char> >::insert
FUNC fea8c 40 0 std::basic_string<char, std::char_traits<char>, std::allocator<char> >::insert
FUNC feacc 40 0 std::basic_string<char, std::char_traits<char>, std::allocator<char> >::replace
FUNC feb0c 20 0 std::basic_string<char, std::char_traits<char>, std::allocator<char> >::replace
FUNC feb2c 2c 0 std::basic_string<char, std::char_traits<char>, std::allocator<char> >::insert
FUNC feb58 58 0 std::basic_string<char, std::char_traits<char>, std::allocator<char> >::_M_replace_safe
FUNC febb0 f4 0 std::basic_string<char, std::char_traits<char>, std::allocator<char> >::assign
FUNC feca4 28 0 std::basic_string<char, std::char_traits<char>, std::allocator<char> >::operator=
FUNC feccc 40 0 std::basic_string<char, std::char_traits<char>, std::allocator<char> >::assign
FUNC fed0c 28 0 std::basic_string<char, std::char_traits<char>, std::allocator<char> >::assign
FUNC fed34 18 0 std::basic_string<char, std::char_traits<char>, std::allocator<char> >::assign
FUNC fed4c 28 0 std::basic_string<char, std::char_traits<char>, std::allocator<char> >::operator=
FUNC fed74 184 0 std::basic_string<char, std::char_traits<char>, std::allocator<char> >::insert
FUNC feef8 28 0 std::basic_string<char, std::char_traits<char>, std::allocator<char> >::insert
FUNC fef20 44 0 std::basic_string<char, std::char_traits<char>, std::allocator<char> >::insert
FUNC fef64 30 0 std::basic_string<char, std::char_traits<char>, std::allocator<char> >::insert
FUNC fef94 c 0 std::basic_string<char, std::char_traits<char>, std::allocator<char> >::insert
FUNC fefa0 38 0 std::basic_string<char, std::char_traits<char>, std::allocator<char> >::pop_back
FUNC fefd8 40 0 std::basic_string<char, std::char_traits<char>, std::allocator<char> >::_Rep::_M_refcopy
FUNC ff018 84 0 std::basic_string<char, std::char_traits<char>, std::allocator<char> >::_Rep::_M_clone
FUNC ff09c 88 0 std::basic_string<char, std::char_traits<char>, std::allocator<char> >::reserve
FUNC ff124 30 0 std::basic_string<char, std::char_traits<char>, std::allocator<char> >::shrink_to_fit
FUNC ff154 ac 0 std::basic_string<char, std::char_traits<char>, std::allocator<char> >::append
FUNC ff200 4 0 std::basic_string<char, std::char_traits<char>, std::allocator<char> >::operator+=
FUNC ff204 d8 0 std::basic_string<char, std::char_traits<char>, std::allocator<char> >::append
FUNC ff2dc 104 0 std::basic_string<char, std::char_traits<char>, std::allocator<char> >::append
FUNC ff3e0 18 0 std::basic_string<char, std::char_traits<char>, std::allocator<char> >::operator+=
FUNC ff3f8 28 0 std::basic_string<char, std::char_traits<char>, std::allocator<char> >::append
FUNC ff420 18 0 std::basic_string<char, std::char_traits<char>, std::allocator<char> >::append
FUNC ff438 28 0 std::basic_string<char, std::char_traits<char>, std::allocator<char> >::operator+=
FUNC ff460 c0 0 std::basic_string<char, std::char_traits<char>, std::allocator<char> >::append
FUNC ff520 4c 0 std::basic_string<char, std::char_traits<char>, std::allocator<char> >::resize
FUNC ff56c 8 0 std::basic_string<char, std::char_traits<char>, std::allocator<char> >::resize
FUNC ff574 74 0 std::basic_string<char, std::char_traits<char>, std::allocator<char> >::push_back
FUNC ff5e8 78 0 std::basic_string<char, std::char_traits<char>, std::allocator<char> >::operator+=
FUNC ff660 58 0 std::basic_string<char, std::char_traits<char>, std::allocator<char> >::_Rep::_M_grab
FUNC ff6b8 88 0 std::basic_string<char, std::char_traits<char>, std::allocator<char> >::basic_string
FUNC ff740 c4 0 std::basic_string<char, std::char_traits<char>, std::allocator<char> >::assign
FUNC ff804 4 0 std::basic_string<char, std::char_traits<char>, std::allocator<char> >::operator=
FUNC ff808 98 0 std::operator+<char, std::char_traits<char>, std::allocator<char> >
FUNC ff8a0 88 0 std::operator+<char, std::char_traits<char>, std::allocator<char> >
FUNC ff928 54 0 std::operator+<char, std::char_traits<char>, std::allocator<char> >
FUNC ff97c 90 0 std::basic_string<char, std::char_traits<char>, std::allocator<char> >::_S_construct<__gnu_cxx::__normal_iterator<char*, std::basic_string<char> > >
FUNC ffa0c 28 0 std::basic_string<char, std::char_traits<char>, std::allocator<char> >::basic_string<__gnu_cxx::__normal_iterator<char*, std::basic_string<char> > >
FUNC ffa34 c4 0 std::basic_string<char, std::char_traits<char>, std::allocator<char> >::_S_construct<char*>
FUNC ffaf8 60 0 std::basic_string<char, std::char_traits<char>, std::allocator<char> >::basic_string
FUNC ffb58 34 0 std::basic_string<char, std::char_traits<char>, std::allocator<char> >::substr
FUNC ffb8c 58 0 std::basic_string<char, std::char_traits<char>, std::allocator<char> >::basic_string
FUNC ffbe4 28 0 std::basic_string<char, std::char_traits<char>, std::allocator<char> >::basic_string<char*>
FUNC ffc0c c4 0 std::basic_string<char, std::char_traits<char>, std::allocator<char> >::_S_construct<char const*>
FUNC ffcd0 28 0 std::basic_string<char, std::char_traits<char>, std::allocator<char> >::basic_string
FUNC ffcf8 1b4 0 std::basic_string<char, std::char_traits<char>, std::allocator<char> >::replace
FUNC ffeac 20 0 std::basic_string<char, std::char_traits<char>, std::allocator<char> >::replace
FUNC ffecc 48 0 std::basic_string<char, std::char_traits<char>, std::allocator<char> >::replace
FUNC fff14 40 0 std::basic_string<char, std::char_traits<char>, std::allocator<char> >::replace
FUNC fff54 10 0 std::basic_string<char, std::char_traits<char>, std::allocator<char> >::replace
FUNC fff64 2c 0 std::basic_string<char, std::char_traits<char>, std::allocator<char> >::replace
FUNC fff90 44 0 std::basic_string<char, std::char_traits<char>, std::allocator<char> >::replace
FUNC fffd4 24 0 std::basic_string<char, std::char_traits<char>, std::allocator<char> >::replace
FUNC ffff8 24 0 std::basic_string<char, std::char_traits<char>, std::allocator<char> >::replace
FUNC 10001c 1c 0 std::basic_string<char, std::char_traits<char>, std::allocator<char> >::replace
FUNC 100038 24 0 std::basic_string<char, std::char_traits<char>, std::allocator<char> >::replace
FUNC 10005c 24 0 std::basic_string<char, std::char_traits<char>, std::allocator<char> >::replace
FUNC 100080 40 0 std::basic_string<char, std::char_traits<char>, std::allocator<char> >::basic_string
FUNC 1000c0 3c 0 std::basic_string<char, std::char_traits<char>, std::allocator<char> >::basic_string
FUNC 1000fc 28 0 std::basic_string<char, std::char_traits<char>, std::allocator<char> >::basic_string<char const*>
FUNC 100124 18 0 __gnu_cxx::operator==<char*, std::basic_string<char> >
FUNC 10013c 18 0 __gnu_cxx::operator==<char const*, std::basic_string<char> >
FUNC 100154 e0 0 __cxxabiv1::__cxa_guard_acquire
FUNC 100234 58 0 __cxxabiv1::__cxa_guard_abort
FUNC 10028c 54 0 __cxxabiv1::__cxa_guard_release
FUNC 1002e0 18 0 std::type_info::~type_info
FUNC 1002f8 8 0 std::type_info::__is_pointer_p
FUNC 100300 8 0 std::type_info::__is_function_p
FUNC 100308 8 0 std::type_info::__do_upcast
FUNC 100310 28 0 std::type_info::~type_info
FUNC 100338 4c 0 std::type_info::operator==
FUNC 100384 4 0 std::type_info::__do_catch
FUNC 100388 10 0 std::bad_typeid::what
FUNC 100398 28 0 std::bad_typeid::~bad_typeid
FUNC 1003c0 1c 0 std::bad_typeid::~bad_typeid
FUNC 1003dc 8 0 __cxxabiv1::__pointer_type_info::__is_pointer_p
FUNC 1003e4 28 0 __cxxabiv1::__pointer_type_info::~__pointer_type_info
FUNC 10040c 1c 0 __cxxabiv1::__pointer_type_info::~__pointer_type_info
FUNC 100428 80 0 __cxxabiv1::__pointer_type_info::__pointer_catch
FUNC 1004a8 4 0 std::__exception_ptr::exception_ptr::_M_safe_bool_dummy
FUNC 1004ac 68 0 __gxx_dependent_exception_cleanup
FUNC 100514 c 0 std::__exception_ptr::exception_ptr::exception_ptr
FUNC 100520 1c 0 std::__exception_ptr::exception_ptr::exception_ptr
FUNC 10053c 30 0 std::__exception_ptr::exception_ptr::_M_addref
FUNC 10056c 18 0 std::__exception_ptr::exception_ptr::exception_ptr
FUNC 100584 1c 0 std::__exception_ptr::exception_ptr::exception_ptr
FUNC 1005a0 64 0 std::__exception_ptr::exception_ptr::_M_release
FUNC 100604 14 0 std::__exception_ptr::exception_ptr::~exception_ptr
FUNC 100618 8 0 std::__exception_ptr::exception_ptr::_M_get
FUNC 100620 14 0 std::__exception_ptr::exception_ptr::swap
FUNC 100634 38 0 std::__exception_ptr::exception_ptr::operator=
FUNC 10066c 10 0 std::__exception_ptr::exception_ptr::operator!
FUNC 10067c 34 0 std::__exception_ptr::exception_ptr::operator std::__exception_ptr::exception_ptr::__safe_bool
FUNC 1006b0 c 0 std::__exception_ptr::exception_ptr::__cxa_exception_type
FUNC 1006bc 18 0 std::__exception_ptr::operator==
FUNC 1006d4 14 0 std::__exception_ptr::operator!=
FUNC 1006e8 a0 0 std::current_exception
FUNC 100788 c0 0 std::rethrow_exception
FUNC 100848 10 0 std::bad_cast::what
FUNC 100858 28 0 std::bad_cast::~bad_cast
FUNC 100880 1c 0 std::bad_cast::~bad_cast
FUNC 10089c 8 0 std::logic_error::what
FUNC 1008a4 8 0 std::runtime_error::what
FUNC 1008ac 84 0 std::logic_error::~logic_error
FUNC 100930 1c 0 std::logic_error::~logic_error
FUNC 10094c 28 0 std::domain_error::~domain_error
FUNC 100974 30 0 std::domain_error::~domain_error
FUNC 1009a4 28 0 std::invalid_argument::~invalid_argument
FUNC 1009cc 30 0 std::invalid_argument::~invalid_argument
FUNC 1009fc 28 0 std::length_error::~length_error
FUNC 100a24 30 0 std::length_error::~length_error
FUNC 100a54 28 0 std::out_of_range::~out_of_range
FUNC 100a7c 30 0 std::out_of_range::~out_of_range
FUNC 100aac 84 0 std::runtime_error::~runtime_error
FUNC 100b30 1c 0 std::runtime_error::~runtime_error
FUNC 100b4c 28 0 std::range_error::~range_error
FUNC 100b74 30 0 std::range_error::~range_error
FUNC 100ba4 28 0 std::overflow_error::~overflow_error
FUNC 100bcc 30 0 std::overflow_error::~overflow_error
FUNC 100bfc 28 0 std::underflow_error::~underflow_error
FUNC 100c24 30 0 std::underflow_error::~underflow_error
FUNC 100c54 34 0 std::logic_error::logic_error
FUNC 100c88 28 0 std::domain_error::domain_error
FUNC 100cb0 28 0 std::invalid_argument::invalid_argument
FUNC 100cd8 28 0 std::length_error::length_error
FUNC 100d00 28 0 std::out_of_range::out_of_range
FUNC 100d28 34 0 std::runtime_error::runtime_error
FUNC 100d5c 28 0 std::range_error::range_error
FUNC 100d84 28 0 std::overflow_error::overflow_error
FUNC 100dac 28 0 std::underflow_error::underflow_error
FUNC 100dd4 8 0 std::ios_base::failure::what
FUNC 100ddc 84 0 std::ios_base::failure::~failure
FUNC 100e60 1c 0 std::ios_base::failure::~failure
FUNC 100e7c 4c 0 std::ios_base::failure::failure
FUNC 100ec8 c 0 std::condition_variable::condition_variable
FUNC 100ed4 14 0 std::condition_variable::~condition_variable
FUNC 100ee8 18 0 std::condition_variable::wait
FUNC 100f00 14 0 std::condition_variable::notify_one
FUNC 100f14 14 0 std::condition_variable::notify_all
FUNC 100f28 10 0 std::condition_variable_any::condition_variable_any
FUNC 100f38 14 0 std::condition_variable_any::~condition_variable_any
FUNC 100f4c 28 0 std::regex_error::~regex_error
FUNC 100f74 30 0 std::regex_error::~regex_error
FUNC 100fa4 c0 0 std::regex_error::regex_error
FUNC 101064 10 0 generic_error_category::name
FUNC 101074 10 0 system_error_category::name
FUNC 101084 18 0 std::error_category::~error_category
FUNC 10109c c 0 std::error_category::default_error_condition
FUNC 1010a8 60 0 std::error_category::equivalent
FUNC 101108 28 0 std::error_category::equivalent
FUNC 101130 18 0 system_error_category::~system_error_category
FUNC 101148 18 0 generic_error_category::~generic_error_category
FUNC 101160 28 0 std::error_category::~error_category
FUNC 101188 28 0 system_error_category::~system_error_category
FUNC 1011b0 28 0 generic_error_category::~generic_error_category
FUNC 1011d8 28 0 std::system_error::~system_error
FUNC 101200 30 0 std::system_error::~system_error
FUNC 101230 30 0 system_error_category::message
FUNC 101260 30 0 generic_error_category::message
FUNC 101290 18 0 std::error_category::error_category
FUNC 1012a8 10 0 std::system_category
FUNC 1012b8 10 0 std::generic_category
FUNC 1012c8 24 0 std::error_code::default_error_condition
FUNC 1012ec 1b4 0 __gnu_cxx::__verbose_terminate_handler
FUNC 1014a0 20 0 __cxxabiv1::__pbase_type_info::__pointer_catch
FUNC 1014c0 28 0 __cxxabiv1::__pbase_type_info::~__pbase_type_info
FUNC 1014e8 1c 0 __cxxabiv1::__pbase_type_info::~__pbase_type_info
FUNC 101504 90 0 __cxxabiv1::__pbase_type_info::__do_catch
FUNC 101594 4c 0 __cxxabiv1::__cxa_bad_cast
FUNC 1015e0 4c 0 __cxxabiv1::__cxa_bad_typeid
FUNC 10162c 1d0 0 d_make_comp
FUNC 1017fc 6c 0 d_make_name
FUNC 101868 13c 0 d_cv_qualifiers
FUNC 1019a4 58 0 d_ref_qualifier
FUNC 1019fc f4 0 d_clone_suffix
FUNC 101af0 244 0 d_substitution
FUNC 101d34 5c 0 d_append_char
FUNC 101d90 7c 0 d_number
FUNC 101e0c 60 0 d_number_component
FUNC 101e6c 54 0 d_compact_number
FUNC 101ec0 80 0 d_template_param
FUNC 101f40 34 0 d_discriminator
FUNC 101f74 f8 0 d_source_name
FUNC 10206c 9c 0 d_call_offset
FUNC 102108 88 0 d_lookup_template_argument
FUNC 102190 19c 0 d_find_pack
FUNC 10232c cc 0 d_growable_string_callback_adapter
FUNC 1023f8 158 0 d_expr_primary
FUNC 102550 170 0 d_template_args
FUNC 1026c0 4b0 0 d_name
FUNC 102b70 b88 0 d_type
FUNC 1036f8 108 0 d_parmlist
FUNC 103800 68 0 d_bare_function_type
FUNC 103868 874 0 d_encoding
FUNC 1040dc 194 0 d_operator_name
FUNC 104270 468 0 d_unqualified_name
FUNC 1046d8 61c 0 d_expression
FUNC 104cf4 ac 0 d_exprlist
FUNC 104da0 84 0 d_append_string
FUNC 104e24 3554 0 d_print_comp
FUNC 108378 20 0 d_print_comp
FUNC 108398 778 0 d_print_mod
FUNC 108b10 398 0 d_print_mod_list
FUNC 108ea8 264 0 d_print_array_type
FUNC 10910c 2d8 0 d_print_function_type
FUNC 1093e4 238 0 d_print_cast
FUNC 10961c a4 0 d_print_expr_op
FUNC 1096c0 110 0 d_print_subexpr
FUNC 1097d0 31c 0 d_demangle_callback
FUNC 109aec 14c 0 __cxa_demangle
FUNC 109c38 2c 0 __gcclibcxx_demangle_callback
FUNC 109c64 2c 0 __cxxabiv1::__cxa_current_exception_type
FUNC 109e64 18 0 selfrel_offset31
FUNC 109e7c ac 0 search_EIT_table
FUNC 109f28 50 0 __gnu_unwind_get_pr_addr
FUNC 109f78 10c 0 get_eit_entry
FUNC 10a084 6c 0 restore_non_core_regs
FUNC 10a0f0 14 0 _Unwind_decode_typeinfo_ptr
FUNC 10a104 8 0 __gnu_unwind_24bit
FUNC 10a10c 4 0 _Unwind_DebugHook
FUNC 10a110 64 0 unwind_phase2
FUNC 10a174 124 0 unwind_phase2_forced
FUNC 10a298 8 0 _Unwind_GetCFA
FUNC 10a2a0 a4 0 __gnu_Unwind_RaiseException
FUNC 10a344 1c 0 __gnu_Unwind_ForcedUnwind
FUNC 10a360 74 0 __gnu_Unwind_Resume
FUNC 10a3d4 20 0 __gnu_Unwind_Resume_or_Rethrow
FUNC 10a3f4 4 0 _Unwind_Complete
FUNC 10a3f8 20 0 _Unwind_DeleteException
FUNC 10a418 5c 0 _Unwind_VRS_Get
FUNC 10a474 28 0 _Unwind_GetGR
FUNC 10a49c 5c 0 _Unwind_VRS_Set
FUNC 10a4f8 2c 0 _Unwind_SetGR
FUNC 10a524 c4 0 __gnu_Unwind_Backtrace
FUNC 10a5e8 3f0 0 __gnu_unwind_pr_common
FUNC 10a9d8 8 0 __aeabi_unwind_cpp_pr0
FUNC 10a9e0 8 0 __aeabi_unwind_cpp_pr1
FUNC 10a9e8 8 0 __aeabi_unwind_cpp_pr2
FUNC 10a9f0 34c 0 _Unwind_VRS_Pop
FUNC 10aee4 60 0 next_unwind_byte
FUNC 10af44 28 0 _Unwind_GetGR
FUNC 10af6c 4 0 unwind_UCB_from_context
FUNC 10af70 37c 0 __gnu_unwind_execute
FUNC 10b2ec 40 0 __gnu_unwind_frame
FUNC 10b32c 10 0 _Unwind_GetRegionStart
FUNC 10b33c 1c 0 _Unwind_GetLanguageSpecificData
FUNC 10b358 8 0 _Unwind_GetDataRelBase
FUNC 10b360 8 0 _Unwind_GetTextRelBase
PUBLIC 194f0 0 GetImageType(char const*)
PUBLIC 1987c 0 DetectFileType(unsigned char const*, int)
PUBLIC 19934 0 ResampleKeepAspect(CxImage&, unsigned int, unsigned int)
PUBLIC 19a30 0 IsDir
PUBLIC 19a68 0 ReleaseImage
PUBLIC 19a94 0 LoadImage
PUBLIC 19c5c 0 LoadImageFromMemory
PUBLIC 19e94 0 CreateThumbnailFromSurface
PUBLIC 1a0a0 0 CreateThumbnailFromSurface2
PUBLIC 1a294 0 FreeMemory
PUBLIC 1a2a0 0 CxImage::~CxImage()
PUBLIC 1a2d0 0 CxImage::~CxImage()
PUBLIC 1a308 0 CxImage::Threshold(unsigned char)
PUBLIC 1a4e8 0 CxImage::Threshold(CxImage*)
PUBLIC 1a798 0 CxImage::Threshold2(unsigned char, bool, tagRGBQUAD, bool)
PUBLIC 1aa18 0 CxImage::SplitRGB(CxImage*, CxImage*, CxImage*)
PUBLIC 1af64 0 CxImage::SplitCMYK(CxImage*, CxImage*, CxImage*, CxImage*)
PUBLIC 1b404 0 CxImage::RGBtoHSL(tagRGBQUAD)
PUBLIC 1b550 0 CxImage::SplitHSL(CxImage*, CxImage*, CxImage*)
PUBLIC 1babc 0 CxImage::HueToRGB(float, float, float)
PUBLIC 1bb5c 0 CxImage::HSLtoRGB(tagRGBQUAD)
PUBLIC 1bca4 0 CxImage::HSLtoRGB(unsigned int)
PUBLIC 1bce4 0 CxImage::YUVtoRGB(tagRGBQUAD)
PUBLIC 1bd9c 0 CxImage::RGBtoYUV(tagRGBQUAD)
PUBLIC 1be70 0 CxImage::SplitYUV(CxImage*, CxImage*, CxImage*)
PUBLIC 1c3dc 0 CxImage::YIQtoRGB(tagRGBQUAD)
PUBLIC 1c4b0 0 CxImage::RGBtoYIQ(tagRGBQUAD)
PUBLIC 1c5a0 0 CxImage::SplitYIQ(CxImage*, CxImage*, CxImage*)
PUBLIC 1cb0c 0 CxImage::XYZtoRGB(tagRGBQUAD)
PUBLIC 1cc1c 0 CxImage::RGBtoXYZ(tagRGBQUAD)
PUBLIC 1ccfc 0 CxImage::SplitXYZ(CxImage*, CxImage*, CxImage*)
PUBLIC 1d268 0 CxImage::HuePalette(float)
PUBLIC 1d308 0 CxImage::Colorize(unsigned char, unsigned char, float)
PUBLIC 1d6ec 0 CxImage::Mean()
PUBLIC 1d8b8 0 CxImage::Filter(long*, long, long, long)
PUBLIC 1e044 0 CxImage::Erode(long)
PUBLIC 1e34c 0 CxImage::Dilate(long)
PUBLIC 1e654 0 CxImage::Edge(long)
PUBLIC 1e9e4 0 CxImage::Mix(CxImage&, CxImage::ImageOpType, long, long, bool)
PUBLIC 1f280 0 CxImage::MixFrom(CxImage&, long, long)
PUBLIC 1f3d0 0 CxImage::ShiftRGB(long, long, long)
PUBLIC 1f5cc 0 CxImage::Median(long)
PUBLIC 1f8f4 0 CxImage::Noise(long)
PUBLIC 1faf0 0 CxImage::IsPowerof2(long)
PUBLIC 1fb28 0 CxImage::FFT(int, int, double*, double*)
PUBLIC 1fe88 0 CxImage::DFT(int, long, double*, double*, double*, double*)
PUBLIC 20390 0 CxImage::FFT2(CxImage*, CxImage*, CxImage*, CxImage*, long, bool, bool)
PUBLIC 216b8 0 CxImage::Combine(CxImage*, CxImage*, CxImage*, CxImage*, long)
PUBLIC 218d4 0 CxImage::RepairChannel(CxImage*, float)
PUBLIC 2203c 0 CxImage::Repair(float, long, long)
PUBLIC 2234c 0 CxImage::Contour()
PUBLIC 2263c 0 CxImage::Jitter(long)
PUBLIC 22918 0 CxImage::gen_convolve_matrix(float, float**)
PUBLIC 22dd0 0 CxImage::gen_lookup_table(float*, int)
PUBLIC 22f20 0 CxImage::blur_line(float*, float*, int, unsigned char*, unsigned char*, int, long)
PUBLIC 23a5c 0 CxImage::blur_text(unsigned char, unsigned char, unsigned char, CxImage*, CxImage*, unsigned char)
PUBLIC 24364 0 CxImage::TextBlur(unsigned char, unsigned char, unsigned char, bool, bool, CxImage*)
PUBLIC 2472c 0 CxImage::GaussianBlur(float, CxImage*)
PUBLIC 258a0 0 CxImage::SelectiveBlur(float, unsigned char, CxImage*)
PUBLIC 25d5c 0 CxImage::UnsharpMask(float, float, int)
PUBLIC 26140 0 CxImage::Lut(unsigned char*)
PUBLIC 26450 0 CxImage::Light(long, long)
PUBLIC 26508 0 CxImage::Gamma(float)
PUBLIC 26670 0 CxImage::Lut(unsigned char*, unsigned char*, unsigned char*, unsigned char*)
PUBLIC 26958 0 CxImage::GammaRGB(float, float, float)
PUBLIC 26cf0 0 CxImage::RedEyeRemove(float)
PUBLIC 26ec4 0 CxImage::Saturate(long, long)
PUBLIC 2728c 0 CxImage::Solarize(unsigned char, bool)
PUBLIC 27734 0 CxImage::ConvertColorSpace(long, long)
PUBLIC 27974 0 CxImage::OptimalThreshold(long, tagRECT*, CxImage*)
PUBLIC 28374 0 CxImage::AdaptiveThreshold(long, long, CxImage*, long, float)
PUBLIC 2877c 0 max(int, int)
PUBLIC 28788 0 min(int, int)
PUBLIC 28794 0 CxImage::FloodFill(long, long, tagRGBQUAD, unsigned char, unsigned char, bool, unsigned char)
PUBLIC 298b8 0 std::_Deque_base<tagPOINT, std::allocator<tagPOINT> >::~_Deque_base()
PUBLIC 29988 0 std::_Deque_base<tagPOINT, std::allocator<tagPOINT> >::_M_initialize_map(unsigned int)
PUBLIC 29af8 0 CxImage::Startup(unsigned int)
PUBLIC 29b80 0 CxImage::CxImage(unsigned int)
PUBLIC 29ba8 0 CxImage::Destroy()
PUBLIC 29c7c 0 CxImage::DestroyFrames()
PUBLIC 29d08 0 CxImage::CopyInfo(CxImage const&)
PUBLIC 29d24 0 CxImage::GetBits(unsigned int)
PUBLIC 29d90 0 CxImage::GetSize()
PUBLIC 29dac 0 CxImage::Create(unsigned int, unsigned int, unsigned int, unsigned int)
PUBLIC 2a078 0 CxImage::CxImage(unsigned int, unsigned int, unsigned int, unsigned int)
PUBLIC 2a0d4 0 CxImage::IsInside(long, long)
PUBLIC 2a10c 0 CxImage::Clear(unsigned char)
PUBLIC 2a16c 0 CxImage::Transfer(CxImage&, bool)
PUBLIC 2a26c 0 CxImage::Ghost(CxImage const*)
PUBLIC 2a304 0 CxImage::Copy(CxImage const&, bool, bool, bool)
PUBLIC 2a4c0 0 CxImage::CxImage(CxImage const&, bool, bool, bool)
PUBLIC 2a528 0 CxImage::operator=(CxImage const&)
PUBLIC 2a558 0 CxImage::Bitfield2RGB(unsigned char*, unsigned int, unsigned int, unsigned int, unsigned char)
PUBLIC 2a908 0 CxImage::CreateFromArray(unsigned char*, unsigned int, unsigned int, unsigned int, unsigned int, bool)
PUBLIC 2aac4 0 CxImage::CreateFromMatrix(unsigned char**, unsigned int, unsigned int, unsigned int, unsigned int, bool)
PUBLIC 2ac80 0 CxImage::CompareColors(void const*, void const*)
PUBLIC 2acd0 0 CxImage::FreeMemory(void*)
PUBLIC 2acdc 0 CxImageICO::Decode(CxFile*)
PUBLIC 2b680 0 CxImageICO::Encode(CxFile*, bool, int)
PUBLIC 2c1f0 0 CxImageICO::Encode(CxFile*, CxImage**, int)
PUBLIC 2c4ec 0 CxImageICO::~CxImageICO()
PUBLIC 2c51c 0 CxImageICO::~CxImageICO()
PUBLIC 2c558 0 CxImage::AlphaGetMax() const
PUBLIC 2c560 0 CxImage::AlphaSetMax(unsigned char)
PUBLIC 2c568 0 CxImage::AlphaIsValid()
PUBLIC 2c578 0 CxImage::AlphaPaletteEnable(bool)
PUBLIC 2c580 0 CxImage::AlphaPaletteIsEnabled()
PUBLIC 2c588 0 CxImage::AlphaClear()
PUBLIC 2c5ac 0 CxImage::AlphaSet(unsigned char)
PUBLIC 2c5cc 0 CxImage::AlphaCreate()
PUBLIC 2c620 0 CxImage::AlphaDelete()
PUBLIC 2c644 0 CxImage::AlphaInvert()
PUBLIC 2ca4c 0 CxImage::AlphaCopy(CxImage&)
PUBLIC 2cae0 0 CxImage::AlphaSet(CxImage&)
PUBLIC 2cba0 0 CxImage::AlphaSet(long, long, unsigned char)
PUBLIC 2cbdc 0 CxImage::AlphaGet(long, long)
PUBLIC 2cc20 0 CxImage::AlphaGetPointer(long, long)
PUBLIC 2cc64 0 CxImage::BlindAlphaGet(long, long)
PUBLIC 2ccbc 0 CxImage::AlphaPaletteClear()
PUBLIC 2cd20 0 CxImage::AlphaPaletteIsValid()
PUBLIC 2cd80 0 CxImage::AlphaStrip()
PUBLIC 2d1a4 0 CxImage::AlphaFlip()
PUBLIC 2d250 0 CxImage::AlphaMirror()
PUBLIC 2d648 0 CxImage::AlphaSplit(CxImage*)
PUBLIC 2d7a0 0 CxImage::AlphaPaletteSplit(CxImage*)
PUBLIC 2d904 0 CxImage::AlphaFromTransparency()
PUBLIC 2d9c8 0 CxImage::GetPaletteSize()
PUBLIC 2d9d4 0 CxImage::SetPaletteColor(unsigned char, unsigned char, unsigned char, unsigned char, unsigned char)
PUBLIC 2da2c 0 CxImage::SetPaletteColor(unsigned char, tagRGBQUAD)
PUBLIC 2da98 0 CxImage::SetPaletteColor(unsigned char, unsigned int)
PUBLIC 2dafc 0 CxImage::GetPalette() const
PUBLIC 2db20 0 CxImage::GetPaletteColor(unsigned char)
PUBLIC 2dbb0 0 CxImage::GetPixelIndex(long, long)
PUBLIC 2dcc4 0 CxImage::BlindGetPixelIndex(long, long)
PUBLIC 2ddc4 0 CxImage::GetPixelColor(long, long, bool)
PUBLIC 2df48 0 CxImage::BlindGetPixelColor(long, long, bool)
PUBLIC 2e038 0 CxImage::GetPixelGray(long, long)
PUBLIC 2e078 0 CxImage::BlindSetPixelIndex(long, long, unsigned char)
PUBLIC 2e184 0 CxImage::SetPixelIndex(long, long, unsigned char)
PUBLIC 2e278 0 CxImage::GetNearestIndex(tagRGBQUAD)
PUBLIC 2e380 0 CxImage::BlindSetPixelColor(long, long, tagRGBQUAD, bool)
PUBLIC 2e46c 0 CxImage::SetPixelColor(long, long, tagRGBQUAD, bool)
PUBLIC 2e538 0 CxImage::BlendPixelColor(long, long, tagRGBQUAD, float, bool)
PUBLIC 2e66c 0 CxImage::RGBtoBGR(unsigned char*, int)
PUBLIC 2e6d4 0 CxImage::RGBtoRGBQUAD(unsigned int)
PUBLIC 2e700 0 CxImage::SetPixelColor(long, long, unsigned int)
PUBLIC 2e740 0 CxImage::RGBQUADtoRGB(tagRGBQUAD)
PUBLIC 2e760 0 CxImage::GetPaletteColor(unsigned char, unsigned char*, unsigned char*, unsigned char*)
PUBLIC 2e7b0 0 CxImage::SetPalette(unsigned int, unsigned char*, unsigned char*, unsigned char*)
PUBLIC 2e84c 0 CxImage::SetPalette(CxImage::rgb_color*, unsigned int)
PUBLIC 2e8d8 0 CxImage::SetPalette(tagRGBQUAD*, unsigned int)
PUBLIC 2e94c 0 CxImage::SetGrayPalette()
PUBLIC 2e9c4 0 CxImage::BlendPalette(unsigned int, long)
PUBLIC 2ea74 0 CxImage::IsGrayScale()
PUBLIC 2eb0c 0 CxImage::SwapIndex(unsigned char, unsigned char)
PUBLIC 2ec24 0 CxImage::SwapRGB2BGR()
PUBLIC 2ecd4 0 CxImage::IsTransparent(long, long)
PUBLIC 2ed70 0 CxImage::IsSamePalette(CxImage&, bool)
PUBLIC 2ee98 0 CxImage::GetClrImportant() const
PUBLIC 2eea0 0 CxImage::SetClrImportant(unsigned int)
PUBLIC 2eef4 0 CxImage::BlindGetPixelPointer(long, long)
PUBLIC 2ef6c 0 CxImage::DrawLine(int, int, int, int, tagRGBQUAD, bool)
PUBLIC 2f06c 0 CxImage::DrawLine(int, int, int, int, unsigned int)
PUBLIC 2f0bc 0 CxImage::SetStdPalette()
PUBLIC 2f1f0 0 CxImage::GetTransparentMask(CxImage*)
PUBLIC 2f364 0 swab
PUBLIC 2f450 0 CxImageRAW::Decode(CxFile*)
PUBLIC 3006c 0 CxImageRAW::GetExifThumbnail(char const*, char const*, int)
PUBLIC 306a4 0 CxImageRAW::Encode(CxFile*)
PUBLIC 306fc 0 CxFile::~CxFile()
PUBLIC 30714 0 CxFile::PutC(unsigned char)
PUBLIC 30750 0 CxIOFile::Eof()
PUBLIC 30768 0 CxIOFile::Error()
PUBLIC 30780 0 CxImageRAW::CxFileRaw::raw_sfile_read(void*, void*, int, int)
PUBLIC 30794 0 CxImageRAW::CxFileRaw::raw_sfile_write(void*, void*, int, int)
PUBLIC 307a8 0 CxImageRAW::CxFileRaw::raw_sfile_seek(void*, long, int)
PUBLIC 307bc 0 CxImageRAW::CxFileRaw::raw_sfile_close(void*)
PUBLIC 307c4 0 CxImageRAW::CxFileRaw::raw_sfile_gets(void*, char*, int)
PUBLIC 307d8 0 CxImageRAW::CxFileRaw::raw_sfile_eof(void*)
PUBLIC 307ec 0 CxImageRAW::CxFileRaw::raw_sfile_tell(void*)
PUBLIC 30800 0 CxImageRAW::CxFileRaw::raw_sfile_getc(void*)
PUBLIC 30814 0 CxImageRAW::CxFileRaw::raw_sfile_scanf(void*, char const*, void*)
PUBLIC 30828 0 CxFile::~CxFile()
PUBLIC 30850 0 CxIOFile::Close()
PUBLIC 30894 0 CxIOFile::Read(void*, unsigned int, unsigned int)
PUBLIC 308bc 0 CxIOFile::Write(void const*, unsigned int, unsigned int)
PUBLIC 308e4 0 CxIOFile::Seek(long, int)
PUBLIC 30904 0 CxIOFile::Tell()
PUBLIC 30914 0 CxIOFile::Size()
PUBLIC 3096c 0 CxIOFile::Flush()
PUBLIC 3098c 0 CxIOFile::PutC(unsigned char)
PUBLIC 309c4 0 CxIOFile::GetC()
PUBLIC 309dc 0 CxIOFile::GetS(char*, int)
PUBLIC 30a00 0 CxIOFile::Scanf(char const*, void*)
PUBLIC 30a18 0 CxIOFile::~CxIOFile()
PUBLIC 30a74 0 CxIOFile::~CxIOFile()
PUBLIC 30ad8 0 CxImageTGA::ExpandUncompressedLine(unsigned char*, CxImageTGA::tagTgaHeader*, CxFile*, int, int, int)
PUBLIC 30c7c 0 CxImageTGA::ExpandCompressedLine(unsigned char*, CxImageTGA::tagTgaHeader*, CxFile*, int, int, unsigned char)
PUBLIC 3139c 0 CxImageTGA::tga_toh(CxImageTGA::tagTgaHeader*)
PUBLIC 31408 0 CxImageTGA::Decode(CxFile*)
PUBLIC 319f0 0 CxImageTGA::Encode(CxFile*)
PUBLIC 31fc8 0 CxImage::GrayScale()
PUBLIC 327d4 0 CxImage::Flip(bool, bool)
PUBLIC 328d8 0 CxImage::Mirror(bool, bool)
PUBLIC 32fc0 0 CxImage::RotateLeft(CxImage*)
PUBLIC 337e0 0 CxImage::RotateRight(CxImage*)
PUBLIC 33fe4 0 CxImage::Negative()
PUBLIC 34288 0 CxImage::Rotate(float, CxImage*)
PUBLIC 34a38 0 CxImage::Rotate180(CxImage*)
PUBLIC 34c9c 0 CxImage::RotateExif(int)
PUBLIC 34d04 0 CxImage::Rotate2(float, CxImage*, CxImage::InterpolationMethod, CxImage::OverflowMethod, tagRGBQUAD*, bool, bool)
PUBLIC 35834 0 CxImage::Resample(long, long, int, CxImage*)
PUBLIC 36a6c 0 CxImage::Resample2(long, long, CxImage::InterpolationMethod, CxImage::OverflowMethod, CxImage*, bool)
PUBLIC 36fc0 0 CxImage::DecreaseBpp(unsigned int, bool, tagRGBQUAD*, unsigned int)
PUBLIC 374e0 0 CxImage::IncreaseBpp(unsigned int)
PUBLIC 379e8 0 CxImage::Dither(long)
PUBLIC 38f74 0 CxImage::Crop(long, long, long, long, CxImage*)
PUBLIC 393d8 0 CxImage::CropRotatedRectangle(long, long, long, long, float, CxImage*)
PUBLIC 39680 0 CxImage::Crop(tagRECT const&, CxImage*)
PUBLIC 396a8 0 CxImage::Skew(float, float, long, long, bool)
PUBLIC 399ac 0 CxImage::Expand(long, long, long, long, tagRGBQUAD, CxImage*)
PUBLIC 3a24c 0 CxImage::Expand(long, long, tagRGBQUAD, CxImage*)
PUBLIC 3a2e0 0 CxImage::Thumbnail(long, long, tagRGBQUAD, CxImage*)
PUBLIC 3a490 0 CxImage::CircleTransform(int, long, float)
PUBLIC 3a940 0 CxImage::QIShrink(long, long, CxImage*, bool)
PUBLIC 3b1cc 0 _TIFFFdOpen(void*, char const*, char const*)
PUBLIC 3b25c 0 _TIFFOpenEx
PUBLIC 3b270 0 _TIFFmalloc
PUBLIC 3b274 0 _TIFFfree
PUBLIC 3b278 0 _TIFFrealloc
PUBLIC 3b27c 0 _TIFFmemset
PUBLIC 3b280 0 _TIFFmemcpy
PUBLIC 3b284 0 _TIFFmemcmp
PUBLIC 3b288 0 CxImage::EncodeSafeCheck(CxFile*)
PUBLIC 3b310 0 CxImage::Encode(CxFile*, CxImage**, int, unsigned int)
PUBLIC 3b658 0 CxImage::Encode(__sFILE*, CxImage**, int, unsigned int)
PUBLIC 3b6e4 0 CxImage::Encode2RGBA(CxFile*, bool)
PUBLIC 3b7d0 0 CxImage::Encode2RGBA(unsigned char*&, long&, bool)
PUBLIC 3b8a0 0 CxImage::Encode(CxFile*, unsigned int)
PUBLIC 3c1f8 0 CxImage::Encode(__sFILE*, unsigned int)
PUBLIC 3c278 0 CxImage::Save(char const*, unsigned int)
PUBLIC 3c2cc 0 CxImage::Encode(unsigned char*&, long&, unsigned int)
PUBLIC 3c39c 0 CxImage::Decode(CxFile*, unsigned int, int&, int&)
PUBLIC 3da28 0 CxImage::CxImage(CxFile*, unsigned int)
PUBLIC 3da8c 0 CxImage::CxImage(unsigned char*, unsigned int, unsigned int)
PUBLIC 3db1c 0 CxImage::CheckFormat(CxFile*, unsigned int)
PUBLIC 3dbb4 0 CxImage::CheckFormat(unsigned char*, unsigned int, unsigned int)
PUBLIC 3dc48 0 CxImage::Decode(unsigned char*, unsigned int, unsigned int, int&, int&)
PUBLIC 3dca8 0 CxImage::Decode(__sFILE*, unsigned int, int&, int&)
PUBLIC 3dd34 0 CxImage::Load(char const*, unsigned int, int&, int&)
PUBLIC 3de84 0 CxImage::CxImage(char const*, unsigned int)
PUBLIC 3dee8 0 CxImage::CxImage(__sFILE*, unsigned int)
PUBLIC 3df4c 0 CxImage::GetExifThumbnail(char const*, char const*, int)
PUBLIC 3e040 0 CxImageRAW::~CxImageRAW()
PUBLIC 3e070 0 CxImageRAW::~CxImageRAW()
PUBLIC 3e0a8 0 CxImageSKA::~CxImageSKA()
PUBLIC 3e0d8 0 CxImageSKA::~CxImageSKA()
PUBLIC 3e110 0 CxImageWBMP::~CxImageWBMP()
PUBLIC 3e140 0 CxImageWBMP::~CxImageWBMP()
PUBLIC 3e178 0 CxImagePCX::~CxImagePCX()
PUBLIC 3e1a8 0 CxImagePCX::~CxImagePCX()
PUBLIC 3e1e0 0 CxImageTGA::~CxImageTGA()
PUBLIC 3e210 0 CxImageTGA::~CxImageTGA()
PUBLIC 3e248 0 CxImageBMP::~CxImageBMP()
PUBLIC 3e278 0 CxImageBMP::~CxImageBMP()
PUBLIC 3e2b0 0 CxImagePNG::~CxImagePNG()
PUBLIC 3e2e0 0 CxImagePNG::~CxImagePNG()
PUBLIC 3e318 0 CxImageGIF::~CxImageGIF()
PUBLIC 3e348 0 CxImageGIF::~CxImageGIF()
PUBLIC 3e380 0 CxImageGIF::DecodeExtension(CxFile*)
PUBLIC 3e644 0 CxImageGIF::get_byte(CxFile*)
PUBLIC 3e6bc 0 CxImageGIF::out_line(CImageIterator*, unsigned char*, int)
PUBLIC 3e934 0 CxImageGIF::EncodeExtension(CxFile*)
PUBLIC 3ea10 0 CxImageGIF::EncodeComment(CxFile*)
PUBLIC 3eabc 0 CxImageGIF::GifNextPixel()
PUBLIC 3eb18 0 CxImageGIF::Putword(int, CxFile*)
PUBLIC 3eb50 0 CxImageGIF::EncodeHeader(CxFile*)
PUBLIC 3ec80 0 CxImageGIF::EncodeLoopExtension(CxFile*)
PUBLIC 3ed40 0 CxImageGIF::cl_hash(long)
PUBLIC 3edc0 0 CxImageGIF::flush_char()
PUBLIC 3ee1c 0 CxImageGIF::char_out(int)
PUBLIC 3ee54 0 CxImageGIF::output(short)
PUBLIC 3f010 0 CxImageGIF::compressNONE(int, CxFile*)
PUBLIC 3f130 0 CxImageGIF::compressLZW(int, CxFile*)
PUBLIC 3f2fc 0 CxImageGIF::init_exp(short)
PUBLIC 3f3b8 0 CxImageGIF::get_next_code(CxFile*)
PUBLIC 3f63c 0 CxImageGIF::decoder(CxFile*, CImageIterator*, short, int&)
PUBLIC 3fad8 0 CxImageGIF::seek_next_image(CxFile*, long)
PUBLIC 3fb7c 0 CxImageGIF::get_num_frames(CxFile*, CxImageGIF::tag_TabCol*, CxImageGIF::tag_dscgif*)
PUBLIC 3fe7c 0 CxImageGIF::SetLoops(int)
PUBLIC 3fe88 0 CxImageGIF::GetLoops()
PUBLIC 3fe94 0 CxImageGIF::SetComment(char const*)
PUBLIC 3feac 0 CxImageGIF::GetComment(char*)
PUBLIC 3fec8 0 CxImageGIF::GifMix(CxImage&, CxImageGIF::tag_image&)
PUBLIC 3fff4 0 CxImageGIF::Decode(CxFile*)
PUBLIC 40cf4 0 CxImageGIF::rle_clear(CxImageGIF::tag_RLE*)
PUBLIC 40d50 0 CxImageGIF::rle_isqrt(unsigned int)
PUBLIC 40db4 0 CxImageGIF::rle_compute_triangle_count(unsigned int, unsigned int)
PUBLIC 40e54 0 CxImageGIF::rle_write_block(CxImageGIF::tag_RLE*)
PUBLIC 40eb0 0 CxImageGIF::rle_block_out(unsigned char, CxImageGIF::tag_RLE*)
PUBLIC 40ed4 0 CxImageGIF::rle_block_flush(CxImageGIF::tag_RLE*)
PUBLIC 40ee4 0 CxImageGIF::rle_output(int, CxImageGIF::tag_RLE*)
PUBLIC 40f48 0 CxImageGIF::rle_output_plain(int, CxImageGIF::tag_RLE*)
PUBLIC 40fc8 0 CxImageGIF::rle_reset_out_clear(CxImageGIF::tag_RLE*)
PUBLIC 41004 0 CxImageGIF::rle_flush_fromclear(int, CxImageGIF::tag_RLE*)
PUBLIC 41108 0 CxImageGIF::rle_flush_withtable(int, CxImageGIF::tag_RLE*)
PUBLIC 41268 0 CxImageGIF::rle_flush_clearorrep(int, CxImageGIF::tag_RLE*)
PUBLIC 412e0 0 CxImageGIF::rle_flush(CxImageGIF::tag_RLE*)
PUBLIC 41374 0 CxImageGIF::rle_output_flush(CxImageGIF::tag_RLE*)
PUBLIC 413ac 0 CxImageGIF::compressRLE(int, CxFile*)
PUBLIC 414c0 0 CxImageGIF::EncodeBody(CxFile*, bool)
PUBLIC 4168c 0 CxImageGIF::Encode(CxFile*, CxImage**, int, bool, bool)
PUBLIC 41ab8 0 CxImageGIF::EncodeRGB(CxFile*)
PUBLIC 41e0c 0 CxImageGIF::Encode(CxFile*)
PUBLIC 41ef0 0 CxImage::GetTransColor()
PUBLIC 41f58 0 CxImage::GetTransIndex() const
PUBLIC 41f60 0 CxImage::SetTransIndex(long)
PUBLIC 41f74 0 CxImage::SetTransColor(tagRGBQUAD)
PUBLIC 41f94 0 CxImage::IsTransparent() const
PUBLIC 41fa4 0 CxImage::IsIndexed() const
PUBLIC 41fb4 0 CxImage::GetColorType()
PUBLIC 41fdc 0 CxImage::GetXDPI() const
PUBLIC 41fe4 0 CxImage::GetYDPI() const
PUBLIC 41fec 0 CxImage::SetXDPI(long)
PUBLIC 42068 0 CxImage::SetYDPI(long)
PUBLIC 420e0 0 CxImage::GetFlags() const
PUBLIC 420e8 0 CxImage::SetFlags(unsigned int, bool)
PUBLIC 420f8 0 CxImage::GetDIB() const
PUBLIC 42100 0 CxImage::GetHeight() const
PUBLIC 42108 0 CxImage::GetWidth() const
PUBLIC 42110 0 CxImage::GetEffWidth() const
PUBLIC 42118 0 CxImage::GetNumColors() const
PUBLIC 42120 0 CxImage::GetBpp() const
PUBLIC 42128 0 CxImage::GetType() const
PUBLIC 42130 0 CxImage::SetType(unsigned int)
PUBLIC 4216c 0 CxImage::GetNumTypes()
PUBLIC 42174 0 CxImage::GetTypeIdFromName(char const*)
PUBLIC 42544 0 CxImage::GetTypeIdFromIndex(unsigned int)
PUBLIC 425c4 0 CxImage::GetTypeIndexFromId(unsigned int)
PUBLIC 42644 0 CxImage::GetCodecOption(unsigned int)
PUBLIC 42674 0 CxImage::SetCodecOption(unsigned int, unsigned int)
PUBLIC 426ac 0 CxImage::GetFrameDelay() const
PUBLIC 426b4 0 CxImage::SetFrameDelay(unsigned int)
PUBLIC 426bc 0 CxImage::GetOffset(long*, long*)
PUBLIC 426d0 0 CxImage::SetOffset(long, long)
PUBLIC 426dc 0 CxImage::GetJpegQuality() const
PUBLIC 426f8 0 CxImage::GetJpegQualityF() const
PUBLIC 42700 0 CxImage::SetJpegQuality(unsigned char)
PUBLIC 42710 0 CxImage::SetJpegQualityF(float)
PUBLIC 42730 0 CxImage::GetJpegScale() const
PUBLIC 42738 0 CxImage::SetJpegScale(unsigned char)
PUBLIC 42740 0 CxImage::GetProgress() const
PUBLIC 42748 0 CxImage::GetEscape() const
PUBLIC 42750 0 CxImage::SetProgress(long)
PUBLIC 42758 0 CxImage::SetEscape(long)
PUBLIC 42760 0 CxImage::IsValid() const
PUBLIC 42770 0 CxImage::IsEnabled() const
PUBLIC 42778 0 CxImage::Enable(bool)
PUBLIC 42780 0 CxImage::GetNumFrames() const
PUBLIC 42788 0 CxImage::GetFrame() const
PUBLIC 42790 0 CxImage::SetFrame(long)
PUBLIC 42798 0 CxImage::SetDisposalMethod(unsigned char)
PUBLIC 427a0 0 CxImage::GetDisposalMethod() const
PUBLIC 427a8 0 CxImage::GetRetreiveAllFrames() const
PUBLIC 427b0 0 CxImage::SetRetreiveAllFrames(bool)
PUBLIC 427b8 0 CxImage::GetFrame(long) const
PUBLIC 427f8 0 CxImage::my_ntohs(short)
PUBLIC 4281c 0 CxImage::my_ntohl(long)
PUBLIC 42838 0 CxImage::bihtoh(tagBITMAPINFOHEADER*)
PUBLIC 428f4 0 CxImage::GetLastError()
PUBLIC 428fc 0 CxImage::DumpSize()
PUBLIC 429a4 0 CxImage::Dump(unsigned char*)
PUBLIC 42b60 0 CxImage::UnDump(unsigned char const*)
PUBLIC 42d84 0 CxImage::GetVersionNumber()
PUBLIC 42d90 0 CxImage::GetVersion()
PUBLIC 42da0 0 CxImagePCX::PCX_PlanesToPixels(unsigned char*, unsigned char*, short, short, short)
PUBLIC 42ec0 0 CxImagePCX::PCX_UnpackPixels(unsigned char*, unsigned char*, short, short, short)
PUBLIC 43f84 0 CxImagePCX::PCX_PackPixels(long, unsigned char&, unsigned char&, CxFile&)
PUBLIC 4407c 0 CxImagePCX::PCX_PackPlanes(unsigned char*, long, CxFile&)
PUBLIC 44158 0 CxImagePCX::PCX_PixelsToPlanes(unsigned char*, long, unsigned char*, long)
PUBLIC 441c0 0 CxImagePCX::PCX_toh(CxImagePCX::tagPCXHEADER*)
PUBLIC 4424c 0 CxImagePCX::Decode(CxFile*)
PUBLIC 44b00 0 CxImagePCX::Encode(CxFile*)
PUBLIC 451e8 0 CxImage::SelectionIsValid()
PUBLIC 451f8 0 CxImage::SelectionGetBox(tagRECT&)
PUBLIC 45224 0 CxImage::SelectionClear(unsigned char)
PUBLIC 4529c 0 CxImage::SelectionDelete()
PUBLIC 452e0 0 CxImage::SelectionCreate()
PUBLIC 45310 0 CxImage::SelectionIsInside(long, long)
PUBLIC 45350 0 CxImage::BlindSelectionIsInside(long, long)
PUBLIC 453b4 0 CxImage::SelectionAddRect(tagRECT, unsigned char)
PUBLIC 45590 0 CxImage::SelectionAddEllipse(tagRECT, unsigned char)
PUBLIC 458c4 0 CxImage::SelectionCopy(CxImage&)
PUBLIC 45970 0 CxImage::SelectionAddPolygon(tagPOINT*, long, unsigned char)
PUBLIC 466f4 0 CxImage::SelectionAddColor(tagRGBQUAD, unsigned char)
PUBLIC 46854 0 CxImage::SelectionAddPixel(long, long, unsigned char)
PUBLIC 468f0 0 CxImage::SelectionSplit(CxImage*)
PUBLIC 46a48 0 CxImage::SelectionSet(long, long, unsigned char)
PUBLIC 46a84 0 CxImage::SelectionGet(long, long)
PUBLIC 46ac8 0 CxImage::SelectionRebuildBox()
PUBLIC 46c34 0 CxImage::SelectionInvert()
PUBLIC 47048 0 CxImage::SelectionSet(CxImage&)
PUBLIC 47174 0 CxImage::BlindSelectionGet(long, long)
PUBLIC 471cc 0 CxImage::SelectionGetPointer(long, long)
PUBLIC 47210 0 CxImage::SelectionFlip()
PUBLIC 472d4 0 CxImage::SelectionMirror()
PUBLIC 476e8 0 CxPoint2::CxPoint2()
PUBLIC 476f8 0 CxPoint2::CxPoint2(float, float)
PUBLIC 47704 0 CxPoint2::CxPoint2(CxPoint2 const&)
PUBLIC 47710 0 CxPoint2::Distance(CxPoint2)
PUBLIC 47764 0 CxPoint2::Distance(float, float)
PUBLIC 477b8 0 CxRect2::CxRect2()
PUBLIC 477d4 0 CxRect2::CxRect2(float, float, float, float)
PUBLIC 47810 0 CxRect2::CxRect2(CxRect2 const&)
PUBLIC 47848 0 CxRect2::Surface() const
PUBLIC 4786c 0 CxRect2::CrossSection(CxRect2 const&) const
PUBLIC 47940 0 CxRect2::Center() const
PUBLIC 47980 0 CxRect2::Width() const
PUBLIC 47994 0 CxRect2::Height() const
PUBLIC 479a8 0 CxImageWBMP::ReadOctet(CxFile*, unsigned int*)
PUBLIC 47a10 0 CxImageWBMP::Decode(CxFile*)
PUBLIC 47ca4 0 CxImageWBMP::WriteOctet(CxFile*, unsigned int)
PUBLIC 47d1c 0 CxImageWBMP::Encode(CxFile*)
PUBLIC 47e90 0 CxMemFile::Seek(long, int)
PUBLIC 47ee0 0 CxMemFile::Tell()
PUBLIC 47ef4 0 CxMemFile::Size()
PUBLIC 47f08 0 CxMemFile::Flush()
PUBLIC 47f18 0 CxMemFile::Eof()
PUBLIC 47f44 0 CxMemFile::Error()
PUBLIC 47f70 0 CxMemFile::GetC()
PUBLIC 47fa4 0 CxMemFile::GetS(char*, int)
PUBLIC 48014 0 CxMemFile::Scanf(char const*, void*)
PUBLIC 4801c 0 CxMemFile::Close()
PUBLIC 48054 0 CxMemFile::~CxMemFile()
PUBLIC 48090 0 CxMemFile::~CxMemFile()
PUBLIC 480ac 0 CxMemFile::Read(void*, unsigned int, unsigned int)
PUBLIC 48140 0 CxMemFile::CxMemFile(unsigned char*, unsigned int)
PUBLIC 48180 0 CxMemFile::Open()
PUBLIC 481c8 0 CxMemFile::GetBuffer(bool)
PUBLIC 481dc 0 CxMemFile::Alloc(unsigned int)
PUBLIC 48268 0 CxMemFile::Write(void const*, unsigned int, unsigned int)
PUBLIC 482f8 0 CxMemFile::PutC(unsigned char)
PUBLIC 48364 0 CxMemFile::Free()
PUBLIC 48378 0 CxImageBMP::Encode(CxFile*)
PUBLIC 48664 0 CxImageBMP::DibReadBitmapInfo(CxFile*, tagBITMAPINFOHEADER*)
PUBLIC 4886c 0 CxImageBMP::Decode(CxFile*)
PUBLIC 496b0 0 CxImageJPG::CxExifInfo::CxExifInfo(CxImageJPG::tag_ExifInfo*)
PUBLIC 4971c 0 CxImageJPG::CxExifInfo::~CxExifInfo()
PUBLIC 49764 0 CxImageJPG::CxExifInfo::Get16m(void*)
PUBLIC 49774 0 CxImageJPG::CxExifInfo::Get16u(void*)
PUBLIC 49794 0 CxImageJPG::CxExifInfo::Get32s(void*)
PUBLIC 497d0 0 CxImageJPG::CxExifInfo::Get32u(void*)
PUBLIC 497d4 0 CxImageJPG::CxExifInfo::ConvertAnyFormat(void*, int)
PUBLIC 49900 0 CxImageJPG::CxExifInfo::ProcessExifDir(unsigned char*, unsigned char*, unsigned int, CxImageJPG::tag_ExifInfo*, unsigned char**, int)
PUBLIC 4a43c 0 CxImageJPG::CxExifInfo::process_EXIF(unsigned char*, unsigned int)
PUBLIC 4a680 0 CxImageJPG::CxExifInfo::process_COM(unsigned char const*, int)
PUBLIC 4a744 0 CxImageJPG::CxExifInfo::process_SOFn(unsigned char const*, int)
PUBLIC 4a798 0 CxImageJPG::CxExifInfo::DecodeExif(CxFile*, int)
PUBLIC 4ad4c 0 CxImageJPG::CxExifInfo::DiscardAllButExif()
PUBLIC 4ae78 0 CxImageJPG::CxExifInfo::FindSection(int)
PUBLIC 4aee4 0 CxImageJPG::CxExifInfo::EncodeExif(CxFile*)
PUBLIC 4b058 0 CxImage::Histogram(long*, long*, long*, long*, long)
PUBLIC 4c698 0 CxImage::HistogramStretch(long, double)
PUBLIC 4d628 0 CxImage::HistogramEqualize()
PUBLIC 4db48 0 CxImage::HistogramNormalize()
PUBLIC 4df24 0 CxImage::HistogramLog()
PUBLIC 4e250 0 CxImage::HistogramRoot()
PUBLIC 4e5e0 0 CxImage::OverflowCoordinates(long&, long&, CxImage::OverflowMethod)
PUBLIC 4e72c 0 CxImage::OverflowCoordinates(float&, float&, CxImage::OverflowMethod)
PUBLIC 4e9ac 0 CxImage::GetPixelColorWithOverflow(long, long, CxImage::OverflowMethod, tagRGBQUAD*)
PUBLIC 4eb24 0 CxImage::AddAveragingCont(tagRGBQUAD const&, float, float&, float&, float&, float&)
PUBLIC 4eb94 0 CxImage::KernelBSpline(float)
PUBLIC 4ec50 0 CxImage::KernelLinear(float)
PUBLIC 4ec98 0 CxImage::KernelCubic(float)
PUBLIC 4ecf4 0 CxImage::KernelGeneralizedCubic(float, float)
PUBLIC 4ed8c 0 CxImage::KernelLanczosSinc(float, float)
PUBLIC 4ee1c 0 CxImage::KernelBox(float)
PUBLIC 4ee5c 0 CxImage::KernelHermite(float)
PUBLIC 4eed8 0 CxImage::KernelHanning(float)
PUBLIC 4ef58 0 CxImage::KernelHamming(float)
PUBLIC 4efe8 0 CxImage::KernelSinc(float)
PUBLIC 4f034 0 CxImage::KernelBlackman(float)
PUBLIC 4f0a8 0 CxImage::KernelBessel_J1(float)
PUBLIC 4f208 0 CxImage::KernelBessel_P1(float)
PUBLIC 4f2f0 0 CxImage::KernelBessel_Q1(float)
PUBLIC 4f3e0 0 CxImage::KernelBessel_Order1(float)
PUBLIC 4f510 0 CxImage::KernelBessel(float)
PUBLIC 4f568 0 CxImage::KernelGaussian(float)
PUBLIC 4f5a8 0 CxImage::KernelQuadratic(float)
PUBLIC 4f63c 0 CxImage::KernelMitchell(float)
PUBLIC 4f730 0 CxImage::KernelCatrom(float)
PUBLIC 4f828 0 CxImage::KernelPower(float, float)
PUBLIC 4f890 0 CxImage::GetPixelColorInterpolated(float, float, CxImage::InterpolationMethod, CxImage::OverflowMethod, tagRGBQUAD*)
PUBLIC 50f8c 0 CxImage::GetAreaColorInterpolated(float, float, float, float, CxImage::InterpolationMethod, CxImage::OverflowMethod, tagRGBQUAD*)
PUBLIC 517b8 0 CxImageJPG::~CxImageJPG()
PUBLIC 5181c 0 CxImageJPG::~CxImageJPG()
PUBLIC 51858 0 CxImageJPG::CxImageJPG()
PUBLIC 51898 0 CxImageJPG::DecodeExif(CxFile*)
PUBLIC 51938 0 CxImageJPG::GetExifThumbnail(char const*, char const*, int)
PUBLIC 51b38 0 CxImageJPG::Decode(CxFile*, int&, int&)
PUBLIC 52680 0 CxImageJPG::Encode(CxFile*)
PUBLIC 52c60 0 CxImageJPG::CxFileJpg::InitDestination(jpeg_compress_struct*)
PUBLIC 52c78 0 CxImageJPG::CxFileJpg::EmptyOutputBuffer(jpeg_compress_struct*)
PUBLIC 52cd8 0 CxImageJPG::CxFileJpg::InitSource(jpeg_decompress_struct*)
PUBLIC 52cf0 0 CxImageJPG::CxFileJpg::FillInputBuffer(jpeg_decompress_struct*)
PUBLIC 52da4 0 CxImageJPG::CxFileJpg::TermSource(jpeg_decompress_struct*)
PUBLIC 52da8 0 CxImageJPG::CxFileJpg::TermDestination(jpeg_compress_struct*)
PUBLIC 52e40 0 CxImageJPG::CxFileJpg::SkipInputData(jpeg_decompress_struct*, long)
PUBLIC 52f48 0 CxImagePNG::ima_png_error(png_struct_def*, char*)
PUBLIC 52f7c 0 CxImagePNG::expand2to4bpp(unsigned char*)
PUBLIC 52ff8 0 CxImagePNG::Decode(CxFile*)
PUBLIC 53cf8 0 CxImagePNG::Encode(CxFile*)
PUBLIC 54640 0 CxImagePNG::user_error_fn(png_struct_def*, char const*)
PUBLIC 5467c 0 CxImagePNG::user_read_data(png_struct_def*, unsigned char*, unsigned int)
PUBLIC 546cc 0 CxImagePNG::user_flush_data(png_struct_def*)
PUBLIC 54708 0 CxImagePNG::user_write_data(png_struct_def*, unsigned char*, unsigned int)
PUBLIC 54758 0 CxImageSKA::Decode(CxFile*)
PUBLIC 54944 0 CxImageSKA::Encode(CxFile*)
PUBLIC 54b88 0 CxImageTIF::~CxImageTIF()
PUBLIC 54be0 0 CxImageTIF::~CxImageTIF()
PUBLIC 54bfc 0 CxImageTIF::EncodeBody(tiff*, bool, int, int)
PUBLIC 55608 0 CxImageTIF::Encode(CxFile*, bool)
PUBLIC 55818 0 CxImageTIF::Encode(CxFile*, CxImage**, int)
PUBLIC 55a20 0 CxImageTIF::TileToStrip(unsigned char*, unsigned char*, unsigned int, unsigned int, int, int)
PUBLIC 55c0c 0 CxImageTIF::TIFFOpenEx(CxFile*)
PUBLIC 55c24 0 CxImageTIF::TIFFCloseEx(tiff*)
PUBLIC 55c30 0 CxImageTIF::MoveBits(unsigned char*, unsigned char*, int, int)
PUBLIC 55fe0 0 CxImageTIF::MoveBitsPal(unsigned char*, unsigned char*, int, int, tagRGBQUAD*)
PUBLIC 56138 0 CxImageTIF::Decode(CxFile*)
PUBLIC 58770 0 dcr_rollei_load_raw
PUBLIC 589b0 0 dcr_casio_qv5700_load_raw
PUBLIC 58b3c 0 dcr_kodak_jpeg_load_raw
PUBLIC 58ba4 0 dcr_fc
PUBLIC 58c0c 0 dcr_memmem
PUBLIC 58c60 0 dcr_merror
PUBLIC 58ce0 0 dcr_ppm_thumb
PUBLIC 58d84 0 dcr_layer_thumb
PUBLIC 58ed8 0 dcr_derror
PUBLIC 58f98 0 nokia_load_raw
PUBLIC 593ac 0 dcr_olympus_e300_load_raw
PUBLIC 5960c 0 dcr_minolta_rd175_load_raw
PUBLIC 598bc 0 dcr_kodak_dc120_load_raw
PUBLIC 59a28 0 dcr_eight_bit_load_raw
PUBLIC 59c30 0 dcr_kodak_yrgb_load_raw
PUBLIC 59dcc 0 dcr_sget2
PUBLIC 59df4 0 dcr_get2
PUBLIC 59e4c 0 dcr_sget4
PUBLIC 59ea8 0 dcr_sony_arw2_load_raw
PUBLIC 5a278 0 dcr_get4
PUBLIC 5a2cc 0 dcr_packed_12_load_raw
PUBLIC 5a634 0 dcr_getint
PUBLIC 5a650 0 dcr_int_to_float
PUBLIC 5a654 0 dcr_getreal
PUBLIC 5a7f4 0 dcr_read_shorts
PUBLIC 5a858 0 dcr_fuji_load_raw
PUBLIC 5aaac 0 dcr_rollei_thumb
PUBLIC 5ab8c 0 dcr_leaf_hdr_load_raw
PUBLIC 5ae00 0 dcr_imacon_full_load_raw
PUBLIC 5ae74 0 dcr_unpacked_load_raw
PUBLIC 5b000 0 dcr_sinar_4shot_load_raw
PUBLIC 5b2a4 0 dcr_kodak_thumb_load_raw
PUBLIC 5b348 0 dcr_canon_black
PUBLIC 5b4a0 0 dcr_canon_600_fixed_wb
PUBLIC 5b670 0 dcr_canon_600_color
PUBLIC 5b79c 0 dcr_canon_600_auto_wb
PUBLIC 5bc3c 0 dcr_canon_600_coeff
PUBLIC 5c0a4 0 dcr_canon_600_load_raw
PUBLIC 5c67c 0 dcr_remove_zeroes
PUBLIC 5c8c4 0 dcr_canon_a5_load_raw
PUBLIC 5cadc 0 dcr_canon_s2is
PUBLIC 5cb44 0 dcr_getbits
PUBLIC 5cc9c 0 dcr_nikon_e900_load_raw
PUBLIC 5cde4 0 dcr_olympus_e410_load_raw
PUBLIC 5d27c 0 dcr_quicktake_100_load_raw
PUBLIC 5d92c 0 dcr_sony_arw_load_raw
PUBLIC 5daa0 0 dcr_init_decoder
PUBLIC 5dac8 0 dcr_make_decoder
PUBLIC 5dd44 0 dcr_nikon_compressed_load_raw
PUBLIC 5e274 0 dcr_crw_init_tables
PUBLIC 5e2e4 0 dcr_canon_has_lowbits
PUBLIC 5e370 0 dcr_canon_compressed_load_raw
PUBLIC 5e8e8 0 dcr_ljpeg_start
PUBLIC 5ec6c 0 dcr_ljpeg_diff
PUBLIC 5ed0c 0 dcr_pentax_k10_load_raw
PUBLIC 5eea4 0 dcr_kodak_262_load_raw
PUBLIC 5f250 0 dcr_ljpeg_row
PUBLIC 5f55c 0 dcr_lossless_jpeg_load_raw
PUBLIC 5f874 0 dcr_canon_sraw_load_raw
PUBLIC 5fe04 0 dcr_adobe_copy_pixel
PUBLIC 5ffc8 0 dcr_adobe_dng_load_raw_lj
PUBLIC 60188 0 dcr_adobe_dng_load_raw_nc
PUBLIC 602c4 0 dcr_nikon_is_compressed
PUBLIC 603dc 0 dcr_nikon_e995
PUBLIC 604d0 0 dcr_nikon_e2100
PUBLIC 60584 0 dcr_nikon_3700
PUBLIC 606cc 0 dcr_minolta_z2
PUBLIC 60748 0 dcr_bayer
PUBLIC 607d4 0 dcr_phase_one_flat_field
PUBLIC 61cf4 0 dcr_phase_one_correct
PUBLIC 61d14 0 dcr_phase_one_load_raw
PUBLIC 61f40 0 dcr_ph1_bits
PUBLIC 62018 0 dcr_phase_one_load_raw_c
PUBLIC 626f8 0 dcr_hasselblad_load_raw
PUBLIC 62920 0 dcr_pana_bits
PUBLIC 629f4 0 dcr_panasonic_load_raw
PUBLIC 62c28 0 dcr_make_decoder_int
PUBLIC 62ca0 0 dcr_radc_token
PUBLIC 62db4 0 dcr_kodak_radc_load_raw
PUBLIC 63c6c 0 dcr_kodak_65000_decode
PUBLIC 640f4 0 dcr_kodak_65000_load_raw
PUBLIC 64310 0 dcr_kodak_ycbcr_load_raw
PUBLIC 6474c 0 dcr_kodak_rgb_load_raw
PUBLIC 648ec 0 dcr_sony_decrypt
PUBLIC 64d20 0 dcr_sony_load_raw
PUBLIC 651e4 0 dcr_smal_decode_segment
PUBLIC 65a50 0 dcr_smal_v6_load_raw
PUBLIC 65ac8 0 dcr_median4
PUBLIC 65b2c 0 dcr_fill_holes
PUBLIC 65f60 0 dcr_smal_v9_load_raw
PUBLIC 660c4 0 dcr_bad_pixels
PUBLIC 66508 0 dcr_subtract
PUBLIC 66814 0 dcr_pseudoinverse
PUBLIC 66ae8 0 dcr_cam_xyz_coeff
PUBLIC 67020 0 dcr_hat_transform
PUBLIC 67604 0 dcr_wavelet_denoise
PUBLIC 6869c 0 dcr_scale_colors
PUBLIC 69a9c 0 dcr_pre_interpolate
PUBLIC 69ca8 0 dcr_border_interpolate
PUBLIC 6a034 0 dcr_lin_interpolate
PUBLIC 6a5cc 0 dcr_vng_interpolate
PUBLIC 6b0c4 0 dcr_ppg_interpolate
PUBLIC 6b8b8 0 dcr_ahd_interpolate
PUBLIC 6ce78 0 dcr_median_filter
PUBLIC 6d1b0 0 dcr_blend_highlights
PUBLIC 6dafc 0 dcr_recover_highlights
PUBLIC 6e318 0 dcr_tiff_get
PUBLIC 6e3c4 0 dcr_parse_thumb_note
PUBLIC 6e494 0 dcr_get_timestamp
PUBLIC 6e5b4 0 dcr_parse_gps
PUBLIC 6e784 0 dcr_romm_coeff
PUBLIC 6e9b0 0 dcr_parse_mos
PUBLIC 6eed0 0 dcr_linear_table
PUBLIC 6efc0 0 dcr_parse_kodak_ifd
PUBLIC 6f2a4 0 dcr_parse_minolta
PUBLIC 6f520 0 dcr_parse_tiff_ifd
PUBLIC 71b34 0 dcr_parse_makernote
PUBLIC 7309c 0 dcr_parse_exif
PUBLIC 73404 0 dcr_parse_tiff
PUBLIC 73d24 0 dcr_parse_external_jpeg
PUBLIC 73fe0 0 dcr_ciff_block_1030
PUBLIC 74380 0 dcr_parse_ciff
PUBLIC 74c00 0 dcr_parse_rollei
PUBLIC 74f24 0 dcr_parse_sinar_ia
PUBLIC 75134 0 dcr_parse_phase_one
PUBLIC 75650 0 dcr_parse_fuji
PUBLIC 757dc 0 dcr_parse_jpeg
PUBLIC 75944 0 dcr_parse_riff
PUBLIC 75d3c 0 dcr_parse_smal
PUBLIC 75f98 0 dcr_parse_cine
PUBLIC 76330 0 dcr_foveon_gets
PUBLIC 763b8 0 dcr_parse_foveon
PUBLIC 76948 0 dcr_adobe_coeff
PUBLIC 76b2c 0 dcr_simple_coeff
PUBLIC 76e70 0 dcr_guess_byte_order
PUBLIC 76f78 0 dcr_identify
PUBLIC 7ccf0 0 dcr_convert_to_rgb
PUBLIC 7d980 0 dcr_fuji_rotate
PUBLIC 7dc64 0 dcr_stretch
PUBLIC 7e010 0 dcr_flip_index
PUBLIC 7e058 0 dcr_gamma_lut
PUBLIC 7e248 0 dcr_tiff_set
PUBLIC 7e2d8 0 dcr_tiff_head
PUBLIC 7eae4 0 dcr_jpeg_thumb
PUBLIC 7ec08 0 dcr_write_ppm_tiff
PUBLIC 7efd0 0 dcr_init_dcraw
PUBLIC 7f078 0 dcr_cleanup_dcraw
PUBLIC 7f0c0 0 dcr_print_manual
PUBLIC 7f31c 0 dcr_parse_command_line_options
PUBLIC 7fb74 0 jbg_ceil_half
PUBLIC 85af0 0 jbg_enc_init
PUBLIC 85d58 0 jbg_enc_lrlmax
PUBLIC 85e2c 0 jbg_enc_layers
PUBLIC 85eb4 0 jbg_enc_lrange
PUBLIC 85ef8 0 jbg_enc_options
PUBLIC 85f40 0 jbg_int2dppriv
PUBLIC 86124 0 jbg_dppriv2int
PUBLIC 862e8 0 jbg_enc_out
PUBLIC 86c0c 0 jbg_enc_free
PUBLIC 86d7c 0 jbg_strerror
PUBLIC 86dc8 0 jbg_dec_init
PUBLIC 86dfc 0 jbg_dec_maxsize
PUBLIC 86e10 0 jbg_dec_in
PUBLIC 87b24 0 jbg_dec_getwidth
PUBLIC 87b84 0 jbg_dec_getheight
PUBLIC 87be4 0 jbg_dec_getimage
PUBLIC 87c68 0 jbg_dec_getsize
PUBLIC 87d04 0 jbg_dec_getsize_merged
PUBLIC 87dbc 0 jbg_dec_free
PUBLIC 87ebc 0 jbg_split_planes
PUBLIC 88294 0 jbg_dec_merge_planes
PUBLIC 884b4 0 jbg_next_pscdms
PUBLIC 885e4 0 jbg_newlen
PUBLIC 88700 0 png_set_sig_bytes
PUBLIC 88738 0 png_sig_cmp
PUBLIC 887a8 0 png_zalloc
PUBLIC 88808 0 png_zfree
PUBLIC 8880c 0 png_reset_crc
PUBLIC 8882c 0 png_calculate_crc
PUBLIC 888a4 0 png_info_init_3
PUBLIC 888e0 0 png_create_info_struct
PUBLIC 88928 0 png_data_freer
PUBLIC 8896c 0 png_free_data
PUBLIC 88dc0 0 png_info_destroy
PUBLIC 88e10 0 png_destroy_info_struct
PUBLIC 88e58 0 png_get_io_ptr
PUBLIC 88e64 0 png_init_io
PUBLIC 88e70 0 png_convert_to_rfc1123
PUBLIC 89084 0 png_get_copyright
PUBLIC 89094 0 png_get_header_ver
PUBLIC 890a4 0 png_user_version_check
PUBLIC 8920c 0 png_get_libpng_ver
PUBLIC 89210 0 png_get_header_version
PUBLIC 89220 0 png_handle_as_unknown
PUBLIC 89294 0 png_chunk_unknown_handling
PUBLIC 892cc 0 png_reset_zstream
PUBLIC 892e4 0 png_access_version_number
PUBLIC 892ec 0 png_check_IHDR
PUBLIC 89594 0 png_check_fp_number
PUBLIC 896fc 0 png_check_fp_string
PUBLIC 89750 0 png_ascii_from_fp
PUBLIC 89bd0 0 png_ascii_from_fixed
PUBLIC 89cf4 0 png_fixed
PUBLIC 89d70 0 png_muldiv
PUBLIC 89e20 0 png_xy_from_XYZ
PUBLIC 89f8c 0 png_muldiv_warn
PUBLIC 89fc8 0 png_reciprocal
PUBLIC 8a040 0 png_XYZ_from_xy
PUBLIC 8a3d0 0 png_XYZ_from_xy_checked
PUBLIC 8a460 0 png_reciprocal2
PUBLIC 8a4e0 0 png_64bit_product
PUBLIC 8a520 0 png_check_cHRM_fixed
PUBLIC 8a6ac 0 png_gamma_8bit_correct
PUBLIC 8a730 0 png_gamma_16bit_correct
PUBLIC 8a7b8 0 png_gamma_correct
PUBLIC 8a7e4 0 png_gamma_significant
PUBLIC 8a9c8 0 png_destroy_gamma_table
PUBLIC 8aafc 0 png_build_gamma_table
PUBLIC 8af68 0 png_safecat
PUBLIC 8afb0 0 png_format_number
PUBLIC 8b160 0 png_warning
PUBLIC 8b1f4 0 png_warning_parameter
PUBLIC 8b218 0 png_warning_parameter_unsigned
PUBLIC 8b24c 0 png_warning_parameter_signed
PUBLIC 8b2a8 0 png_formatted_warning
PUBLIC 8b3a8 0 png_chunk_warning
PUBLIC 8b3e0 0 png_set_longjmp_fn
PUBLIC 8b400 0 png_longjmp
PUBLIC 8b420 0 png_error
PUBLIC 8b490 0 png_benign_error
PUBLIC 8b4ac 0 png_chunk_error
PUBLIC 8b4dc 0 png_chunk_benign_error
PUBLIC 8b4f8 0 png_fixed_error
PUBLIC 8b58c 0 png_set_error_fn
PUBLIC 8b5a0 0 png_get_error_ptr
PUBLIC 8b5e8 0 png_get_valid
PUBLIC 8b604 0 png_get_rowbytes
PUBLIC 8b61c 0 png_get_rows
PUBLIC 8b634 0 png_get_image_width
PUBLIC 8b64c 0 png_get_image_height
PUBLIC 8b664 0 png_get_bit_depth
PUBLIC 8b67c 0 png_get_color_type
PUBLIC 8b694 0 png_get_filter_type
PUBLIC 8b6ac 0 png_get_interlace_type
PUBLIC 8b6c4 0 png_get_compression_type
PUBLIC 8b6dc 0 png_get_x_pixels_per_meter
PUBLIC 8b710 0 png_get_y_pixels_per_meter
PUBLIC 8b744 0 png_get_pixels_per_meter
PUBLIC 8b78c 0 png_get_pixel_aspect_ratio
PUBLIC 8b7d8 0 png_get_pixel_aspect_ratio_fixed
PUBLIC 8b854 0 png_get_x_offset_microns
PUBLIC 8b888 0 png_get_y_offset_microns
PUBLIC 8b8bc 0 png_get_x_offset_pixels
PUBLIC 8b8f0 0 png_get_y_offset_pixels
PUBLIC 8b924 0 png_get_pixels_per_inch
PUBLIC 8b934 0 png_get_x_pixels_per_inch
PUBLIC 8b944 0 png_get_y_pixels_per_inch
PUBLIC 8b954 0 png_get_x_offset_inches_fixed
PUBLIC 8b978 0 png_get_y_offset_inches_fixed
PUBLIC 8b99c 0 png_get_x_offset_inches
PUBLIC 8b9c8 0 png_get_y_offset_inches
PUBLIC 8b9f8 0 png_get_pHYs_dpi
PUBLIC 8bab0 0 png_get_channels
PUBLIC 8bac8 0 png_get_signature
PUBLIC 8bae0 0 png_get_bKGD
PUBLIC 8bb18 0 png_get_cHRM_XYZ_fixed
PUBLIC 8bc58 0 png_get_cHRM
PUBLIC 8bd70 0 png_get_cHRM_XYZ
PUBLIC 8bed8 0 png_get_cHRM_fixed
PUBLIC 8bf7c 0 png_get_gAMA_fixed
PUBLIC 8bfb4 0 png_get_gAMA
PUBLIC 8bff0 0 png_get_sRGB
PUBLIC 8c028 0 png_get_iCCP
PUBLIC 8c0a4 0 png_get_sPLT
PUBLIC 8c0d0 0 png_get_hIST
PUBLIC 8c108 0 png_get_IHDR
PUBLIC 8c1dc 0 png_get_oFFs
PUBLIC 8c23c 0 png_get_pCAL
PUBLIC 8c300 0 png_get_sCAL_fixed
PUBLIC 8c3a8 0 png_get_sCAL
PUBLIC 8c408 0 png_get_sCAL_s
PUBLIC 8c44c 0 png_get_pHYs
PUBLIC 8c4a8 0 png_get_PLTE
PUBLIC 8c4e8 0 png_get_sBIT
PUBLIC 8c520 0 png_get_text
PUBLIC 8c568 0 png_get_tIME
PUBLIC 8c5a0 0 png_get_tRNS
PUBLIC 8c628 0 png_get_unknown_chunks
PUBLIC 8c654 0 png_get_rgb_to_gray_status
PUBLIC 8c660 0 png_get_user_chunk_ptr
PUBLIC 8c66c 0 png_get_compression_buffer_size
PUBLIC 8c678 0 png_get_user_width_max
PUBLIC 8c684 0 png_get_user_height_max
PUBLIC 8c690 0 png_get_chunk_cache_max
PUBLIC 8c69c 0 png_get_chunk_malloc_max
PUBLIC 8c6a8 0 png_get_io_state
PUBLIC 8c6b0 0 png_get_io_chunk_type
PUBLIC 8c6b8 0 png_get_io_chunk_name
PUBLIC 8c6e8 0 png_create_struct_2
PUBLIC 8c778 0 png_create_struct
PUBLIC 8c784 0 png_destroy_struct_2
PUBLIC 8c7c4 0 png_destroy_struct
PUBLIC 8c7d0 0 png_malloc_default
PUBLIC 8c7ec 0 png_malloc
PUBLIC 8c848 0 png_calloc
PUBLIC 8c870 0 png_free_default
PUBLIC 8c884 0 png_free
PUBLIC 8c8b0 0 png_malloc_warn
PUBLIC 8c8dc 0 png_set_mem_fn
PUBLIC 8c8f0 0 png_get_mem_ptr
PUBLIC 8c8fc 0 png_create_read_struct_2
PUBLIC 8cb4c 0 png_create_read_struct
PUBLIC 8cb6c 0 png_read_info
PUBLIC 8cf24 0 png_read_update_info
PUBLIC 8cf48 0 png_start_read_image
PUBLIC 8cf54 0 png_read_row
PUBLIC 8d3c8 0 png_read_rows
PUBLIC 8d47c 0 png_read_image
PUBLIC 8d524 0 png_read_end
PUBLIC 8d8e4 0 png_read_destroy
PUBLIC 8da34 0 png_destroy_read_struct
PUBLIC 8db08 0 png_set_read_status_fn
PUBLIC 8db14 0 png_read_png
PUBLIC 8dd60 0 png_default_read_data
PUBLIC 8dd9c 0 png_read_data
PUBLIC 8ddc4 0 png_set_read_fn
PUBLIC 8df20 0 png_set_crc_action
PUBLIC 8dfec 0 png_set_background_fixed
PUBLIC 8e074 0 png_set_background
PUBLIC 8e0c0 0 png_set_scale_16
PUBLIC 8e0d4 0 png_set_strip_16
PUBLIC 8e0e8 0 png_set_strip_alpha
PUBLIC 8e0fc 0 png_set_alpha_mode_fixed
PUBLIC 8e270 0 png_set_alpha_mode
PUBLIC 8e298 0 png_set_quantize
PUBLIC 8ea30 0 png_set_gamma_fixed
PUBLIC 8ea70 0 png_set_gamma
PUBLIC 8eab0 0 png_set_expand
PUBLIC 8ead8 0 png_set_palette_to_rgb
PUBLIC 8eb00 0 png_set_expand_gray_1_2_4_to_8
PUBLIC 8eb24 0 png_set_tRNS_to_alpha
PUBLIC 8eb44 0 png_set_expand_16
PUBLIC 8eb70 0 png_set_gray_to_rgb
PUBLIC 8eb9c 0 png_set_rgb_to_gray_fixed
PUBLIC 8eca0 0 png_set_rgb_to_gray
PUBLIC 8ed10 0 png_set_read_user_transform_fn
PUBLIC 8ed28 0 png_init_read_transformations
PUBLIC 8f920 0 png_read_transform_info
PUBLIC 8fb74 0 png_do_unpack
PUBLIC 8fc9c 0 png_do_unshift
PUBLIC 8fe74 0 png_do_scale_16_to_8
PUBLIC 8fee4 0 png_do_chop
PUBLIC 8ff30 0 png_do_read_swap_alpha
PUBLIC 9005c 0 png_do_read_invert_alpha
PUBLIC 9014c 0 png_do_read_filler
PUBLIC 903f8 0 png_do_gray_to_rgb
PUBLIC 905dc 0 png_do_rgb_to_gray
PUBLIC 909bc 0 png_build_grayscale_palette
PUBLIC 90a2c 0 png_do_compose
PUBLIC 91a44 0 png_do_gamma
PUBLIC 91e1c 0 png_do_encode_alpha
PUBLIC 91f08 0 png_do_expand_palette
PUBLIC 92178 0 png_do_expand
PUBLIC 925f0 0 png_do_expand_16
PUBLIC 9264c 0 png_do_quantize
PUBLIC 92770 0 png_do_read_transformations
PUBLIC 92c44 0 png_do_read_intrapixel
PUBLIC 930a8 0 png_get_uint_31
PUBLIC 930e8 0 png_get_uint_32
PUBLIC 9310c 0 png_get_int_32
PUBLIC 93130 0 png_get_uint_16
PUBLIC 93144 0 png_read_sig
PUBLIC 931f4 0 png_crc_read
PUBLIC 93220 0 png_crc_error
PUBLIC 932a4 0 png_crc_finish
PUBLIC 93350 0 png_decompress_chunk
PUBLIC 9351c 0 png_handle_IHDR
PUBLIC 9364c 0 png_handle_PLTE
PUBLIC 93808 0 png_handle_IEND
PUBLIC 93864 0 png_handle_gAMA
PUBLIC 939d8 0 png_handle_sBIT
PUBLIC 93b24 0 png_handle_cHRM
PUBLIC 93fe4 0 png_handle_sRGB
PUBLIC 94230 0 png_handle_iCCP
PUBLIC 944bc 0 png_handle_sPLT
PUBLIC 947a0 0 png_handle_tRNS
PUBLIC 949b0 0 png_handle_bKGD
PUBLIC 94ba0 0 png_handle_hIST
PUBLIC 94cc4 0 png_handle_pHYs
PUBLIC 94dd0 0 png_handle_oFFs
PUBLIC 94edc 0 png_handle_pCAL
PUBLIC 951f4 0 png_handle_sCAL
PUBLIC 95448 0 png_handle_tIME
PUBLIC 9553c 0 png_handle_tEXt
PUBLIC 9570c 0 png_handle_zTXt
PUBLIC 95960 0 png_handle_iTXt
PUBLIC 95c0c 0 png_handle_unknown
PUBLIC 95db4 0 png_check_chunk_name
PUBLIC 95e04 0 png_read_chunk_header
PUBLIC 95e8c 0 png_combine_row
PUBLIC 96358 0 png_do_read_interlace
PUBLIC 966cc 0 png_read_filter_row
PUBLIC 96764 0 png_read_finish_row
PUBLIC 969dc 0 png_read_start_row
PUBLIC 96cac 0 png_set_bKGD
PUBLIC 96ce0 0 png_set_cHRM_fixed
PUBLIC 96d7c 0 png_set_cHRM_XYZ_fixed
PUBLIC 96e68 0 png_set_cHRM
PUBLIC 96fd8 0 png_set_cHRM_XYZ
PUBLIC 97138 0 png_set_gAMA_fixed
PUBLIC 9717c 0 png_set_gAMA
PUBLIC 971b4 0 png_set_hIST
PUBLIC 97274 0 png_set_IHDR
PUBLIC 97370 0 png_set_oFFs
PUBLIC 9739c 0 png_set_pCAL
PUBLIC 975b8 0 png_set_sCAL_s
PUBLIC 97738 0 png_set_sCAL
PUBLIC 977ec 0 png_set_sCAL_fixed
PUBLIC 9787c 0 png_set_pHYs
PUBLIC 978a8 0 png_set_PLTE
PUBLIC 97960 0 png_set_sBIT
PUBLIC 9798c 0 png_set_sRGB
PUBLIC 979a8 0 png_set_sRGB_gAMA_and_cHRM
PUBLIC 97a18 0 png_set_iCCP
PUBLIC 97b20 0 png_set_text_2
PUBLIC 97e28 0 png_set_text
PUBLIC 97e50 0 png_set_tIME
PUBLIC 97edc 0 png_set_tRNS
PUBLIC 97ff0 0 png_set_sPLT
PUBLIC 98194 0 png_set_unknown_chunks
PUBLIC 982e0 0 png_set_unknown_chunk_location
PUBLIC 98310 0 png_permit_mng_features
PUBLIC 98324 0 png_set_keep_unknown_chunks
PUBLIC 98410 0 png_set_read_user_chunk_fn
PUBLIC 98420 0 png_set_rows
PUBLIC 98474 0 png_set_compression_buffer_size
PUBLIC 984b4 0 png_set_invalid
PUBLIC 984cc 0 png_set_user_limits
PUBLIC 984dc 0 png_set_chunk_cache_max
PUBLIC 984e8 0 png_set_chunk_malloc_max
PUBLIC 984f4 0 png_set_benign_errors
PUBLIC 9850c 0 png_set_check_for_invalid_index
PUBLIC 98520 0 png_set_bgr
PUBLIC 98534 0 png_set_swap
PUBLIC 98554 0 png_set_packing
PUBLIC 9857c 0 png_set_packswap
PUBLIC 9859c 0 png_set_shift
PUBLIC 985c4 0 png_set_interlace_handling
PUBLIC 985f4 0 png_set_filler
PUBLIC 98654 0 png_set_add_alpha
PUBLIC 98674 0 png_set_swap_alpha
PUBLIC 98688 0 png_set_invert_alpha
PUBLIC 9869c 0 png_set_invert_mono
PUBLIC 986b0 0 png_do_invert
PUBLIC 98754 0 png_do_swap
PUBLIC 98798 0 png_do_packswap
PUBLIC 98814 0 png_do_strip_channel
PUBLIC 989c0 0 png_do_bgr
PUBLIC 98ad4 0 png_do_check_palette_indexes
PUBLIC 98c64 0 png_set_user_transform_info
PUBLIC 98c78 0 png_get_user_transform_ptr
PUBLIC 98c84 0 png_get_current_row_number
PUBLIC 98c94 0 png_get_current_pass_number
PUBLIC 98ca4 0 png_default_write_data
PUBLIC 98ce0 0 png_default_flush
PUBLIC 98cf0 0 png_write_data
PUBLIC 98d18 0 png_flush
PUBLIC 98d30 0 png_set_write_fn
PUBLIC 98f14 0 png_write_info_before_PLTE
PUBLIC 99120 0 png_write_info
PUBLIC 99458 0 png_write_end
PUBLIC 99628 0 png_convert_from_struct_tm
PUBLIC 99668 0 png_convert_from_time_t
PUBLIC 99690 0 png_create_write_struct_2
PUBLIC 997d8 0 png_create_write_struct
PUBLIC 997f8 0 png_write_row
PUBLIC 99a78 0 png_write_rows
PUBLIC 99ab0 0 png_write_image
PUBLIC 99b00 0 png_set_flush
PUBLIC 99b10 0 png_write_flush
PUBLIC 99bb0 0 png_write_destroy
PUBLIC 99c9c 0 png_destroy_write_struct
PUBLIC 99d68 0 png_set_filter
PUBLIC 99f9c 0 png_set_filter_heuristics
PUBLIC 9a0a0 0 png_set_filter_heuristics_fixed
PUBLIC 9a1a4 0 png_set_compression_level
PUBLIC 9a1bc 0 png_set_compression_mem_level
PUBLIC 9a1d4 0 png_set_compression_strategy
PUBLIC 9a1ec 0 png_set_compression_window_bits
PUBLIC 9a25c 0 png_set_compression_method
PUBLIC 9a298 0 png_set_text_compression_level
PUBLIC 9a2b0 0 png_set_text_compression_mem_level
PUBLIC 9a2c8 0 png_set_text_compression_strategy
PUBLIC 9a2e0 0 png_set_text_compression_window_bits
PUBLIC 9a350 0 png_set_text_compression_method
PUBLIC 9a38c 0 png_set_write_status_fn
PUBLIC 9a398 0 png_set_write_user_transform_fn
PUBLIC 9a3b0 0 png_write_png
PUBLIC 9a4b0 0 png_do_pack
PUBLIC 9a5f4 0 png_do_shift
PUBLIC 9a81c 0 png_do_write_swap_alpha
PUBLIC 9a94c 0 png_do_write_invert_alpha
PUBLIC 9aa30 0 png_do_write_transformations
PUBLIC 9abac 0 png_do_write_intrapixel
PUBLIC 9b204 0 png_save_uint_32
PUBLIC 9b294 0 png_save_int_32
PUBLIC 9b2b4 0 png_save_uint_16
PUBLIC 9b2c4 0 png_write_sig
PUBLIC 9b320 0 png_write_chunk_start
PUBLIC 9b344 0 png_write_chunk_data
PUBLIC 9b518 0 png_write_chunk_end
PUBLIC 9b58c 0 png_write_chunk
PUBLIC 9b5b8 0 png_write_IHDR
PUBLIC 9b910 0 png_write_PLTE
PUBLIC 9b9f8 0 png_write_IDAT
PUBLIC 9bb58 0 png_write_IEND
PUBLIC 9bb84 0 png_write_gAMA_fixed
PUBLIC 9bbb8 0 png_write_sRGB
PUBLIC 9bc00 0 png_write_sBIT
PUBLIC 9bce4 0 png_write_cHRM_fixed
PUBLIC 9bdb4 0 png_write_tRNS
PUBLIC 9bedc 0 png_write_bKGD
PUBLIC 9c004 0 png_write_hIST
PUBLIC 9c090 0 png_check_keyword
PUBLIC 9c2e4 0 png_write_iCCP
PUBLIC 9c460 0 png_write_sPLT
PUBLIC 9c59c 0 png_write_tEXt
PUBLIC 9c638 0 png_write_zTXt
PUBLIC 9c744 0 png_write_iTXt
PUBLIC 9c8d4 0 png_write_oFFs
PUBLIC 9c940 0 png_write_pCAL
PUBLIC 9caac 0 png_write_sCAL_s
PUBLIC 9cb50 0 png_write_pHYs
PUBLIC 9cbbc 0 png_write_tIME
PUBLIC 9cc6c 0 png_write_start_row
PUBLIC 9cde0 0 png_write_finish_row
PUBLIC 9cf90 0 png_do_write_interlace
PUBLIC 9d1fc 0 png_write_find_filter
PUBLIC 9dd64 0 jpeg_CreateCompress
PUBLIC 9de90 0 jpeg_destroy_compress
PUBLIC 9de94 0 jpeg_abort_compress
PUBLIC 9de98 0 jpeg_suppress_tables
PUBLIC 9df2c 0 jpeg_finish_compress
PUBLIC 9e090 0 jpeg_write_marker
PUBLIC 9e124 0 jpeg_write_m_header
PUBLIC 9e18c 0 jpeg_write_m_byte
PUBLIC 9e1a0 0 jpeg_write_tables
PUBLIC 9e21c 0 jpeg_start_compress
PUBLIC 9e2c0 0 jpeg_write_scanlines
PUBLIC 9e3c4 0 jpeg_write_raw_data
PUBLIC 9e4d4 0 jinit_compress_master
PUBLIC 9e708 0 jinit_c_main_controller
PUBLIC a153c 0 jinit_marker_writer
PUBLIC a26fc 0 jpeg_calc_jpeg_dimensions
PUBLIC a2718 0 jinit_c_master_control
PUBLIC a2ac8 0 jpeg_abort
PUBLIC a2b0c 0 jpeg_destroy
PUBLIC a2b38 0 jpeg_alloc_quant_table
PUBLIC a2b5c 0 jpeg_alloc_huff_table
PUBLIC a2b80 0 jpeg_add_quant_table
PUBLIC a2cc0 0 jpeg_default_qtables
PUBLIC a2d10 0 jpeg_set_linear_quality
PUBLIC a2d64 0 jpeg_quality_scaling
PUBLIC a2da8 0 jpeg_set_quality
PUBLIC a2dd0 0 jpeg_set_colorspace
PUBLIC a30f8 0 jpeg_default_colorspace
PUBLIC a31a0 0 jpeg_set_defaults
PUBLIC a35c0 0 jpeg_simple_progression
PUBLIC a5714 0 jinit_phuff_encoder
PUBLIC a5cd0 0 jinit_c_prep_controller
PUBLIC a7688 0 jinit_downsampler
PUBLIC a78e0 0 jpeg_CreateDecompress
PUBLIC a79e4 0 jpeg_destroy_decompress
PUBLIC a79e8 0 jpeg_abort_decompress
PUBLIC a79ec 0 jpeg_consume_input
PUBLIC a7c9c 0 jpeg_read_header
PUBLIC a7d24 0 jpeg_input_complete
PUBLIC a7d64 0 jpeg_has_multiple_scans
PUBLIC a7da4 0 jpeg_finish_decompress
PUBLIC a7f8c 0 jpeg_start_decompress
PUBLIC a80a4 0 jpeg_read_scanlines
PUBLIC a817c 0 jpeg_read_raw_data
PUBLIC a8264 0 jpeg_start_output
PUBLIC a82d4 0 jpeg_finish_output
PUBLIC a8c50 0 jpeg_core_output_dimensions
PUBLIC a8d88 0 jinit_input_controller
PUBLIC aae78 0 jpeg_resync_to_restart
PUBLIC aafd4 0 jinit_marker_reader
PUBLIC ab0c0 0 jpeg_save_markers
PUBLIC ab1a8 0 jpeg_set_marker_processor
PUBLIC ab500 0 jpeg_calc_output_dimensions
PUBLIC ab7c0 0 jpeg_new_colormap
PUBLIC ab854 0 jinit_master_decompress
PUBLIC ada9c 0 jinit_merged_upsampler
PUBLIC af404 0 jinit_phuff_decoder
PUBLIC af820 0 jinit_d_post_controller
PUBLIC b0838 0 jinit_upsampler
PUBLIC b0da8 0 jpeg_std_error
PUBLIC b1bec 0 jinit_1pass_quantizer
PUBLIC b3d48 0 jinit_2pass_quantizer
PUBLIC b3ee0 0 jdiv_round_up
PUBLIC b3ef4 0 jround_up
PUBLIC b3f10 0 jcopy_sample_rows
PUBLIC b4014 0 jcopy_block_row
PUBLIC b4028 0 jzero_far
PUBLIC b5878 0 jinit_memory_mgr
PUBLIC b5a2c 0 jpeg_get_small
PUBLIC b5a34 0 jpeg_free_small
PUBLIC b5a3c 0 jpeg_get_large
PUBLIC b5a44 0 jpeg_free_large
PUBLIC b5a4c 0 jpeg_mem_available
PUBLIC b5a54 0 jpeg_open_backing_store
PUBLIC b5a70 0 jpeg_mem_init
PUBLIC b5a78 0 jpeg_mem_term
PUBLIC b7fc0 0 jinit_arith_encoder
PUBLIC b91b4 0 jinit_arith_decoder
PUBLIC b9274 0 jsimd_can_rgb_ycc
PUBLIC b932c 0 jsimd_can_rgb_gray
PUBLIC b93d8 0 jsimd_can_ycc_rgb
PUBLIC b9490 0 jsimd_rgb_ycc_convert
PUBLIC b9568 0 jsimd_rgb_gray_convert
PUBLIC b956c 0 jsimd_ycc_rgb_convert
PUBLIC b9644 0 jsimd_can_h2v2_downsample
PUBLIC b96f0 0 jsimd_can_h2v1_downsample
PUBLIC b979c 0 jsimd_h2v2_downsample
PUBLIC b97a0 0 jsimd_h2v1_downsample
PUBLIC b97a4 0 jsimd_can_h2v2_upsample
PUBLIC b9850 0 jsimd_can_h2v1_upsample
PUBLIC b98fc 0 jsimd_h2v2_upsample
PUBLIC b9900 0 jsimd_h2v1_upsample
PUBLIC b9904 0 jsimd_can_h2v2_fancy_upsample
PUBLIC b99b0 0 jsimd_can_h2v1_fancy_upsample
PUBLIC b9a5c 0 jsimd_h2v2_fancy_upsample
PUBLIC b9a60 0 jsimd_h2v1_fancy_upsample
PUBLIC b9a64 0 jsimd_can_h2v2_merged_upsample
PUBLIC b9b10 0 jsimd_can_h2v1_merged_upsample
PUBLIC b9bbc 0 jsimd_h2v2_merged_upsample
PUBLIC b9bc0 0 jsimd_h2v1_merged_upsample
PUBLIC b9bc4 0 jsimd_can_convsamp
PUBLIC b9c7c 0 jsimd_can_convsamp_float
PUBLIC b9d28 0 jsimd_convsamp
PUBLIC b9d44 0 jsimd_convsamp_float
PUBLIC b9d48 0 jsimd_can_fdct_islow
PUBLIC b9df4 0 jsimd_can_fdct_ifast
PUBLIC b9eac 0 jsimd_can_fdct_float
PUBLIC b9f58 0 jsimd_fdct_islow
PUBLIC b9f5c 0 jsimd_fdct_ifast
PUBLIC b9f78 0 jsimd_fdct_float
PUBLIC b9f7c 0 jsimd_can_quantize
PUBLIC ba034 0 jsimd_can_quantize_float
PUBLIC ba0e0 0 jsimd_quantize
PUBLIC ba0fc 0 jsimd_quantize_float
PUBLIC ba100 0 jsimd_can_idct_2x2
PUBLIC ba1b8 0 jsimd_can_idct_4x4
PUBLIC ba270 0 jsimd_idct_2x2
PUBLIC ba2a0 0 jsimd_idct_4x4
PUBLIC ba2d0 0 jsimd_can_idct_islow
PUBLIC ba388 0 jsimd_can_idct_ifast
PUBLIC ba440 0 jsimd_can_idct_float
PUBLIC ba4ec 0 jsimd_idct_islow
PUBLIC ba51c 0 jsimd_idct_ifast
PUBLIC ba54c 0 jsimd_idct_float
PUBLIC bb658 0 jinit_c_coef_controller
PUBLIC bd4ac 0 jinit_color_converter
PUBLIC be708 0 jinit_forward_dct
PUBLIC c4728 0 jpeg_make_c_derived_tbl
PUBLIC c4c0c 0 jpeg_gen_optimal_table
PUBLIC c51d8 0 jinit_huff_encoder
PUBLIC c6958 0 jinit_d_coef_controller
PUBLIC c95c8 0 jinit_color_deconverter
PUBLIC c9fb8 0 jinit_inverse_dct
PUBLIC ca050 0 jpeg_make_d_derived_tbl
PUBLIC ca8e4 0 jpeg_fill_bit_buffer
PUBLIC caa44 0 jpeg_huff_decode
PUBLIC cb750 0 jinit_huff_decoder
PUBLIC cc448 0 jinit_d_main_controller
PUBLIC cc618 0 jpeg_fdct_float
PUBLIC cc820 0 jpeg_fdct_ifast
PUBLIC cd098 0 jpeg_fdct_islow
PUBLIC ce50c 0 jpeg_idct_float
PUBLIC ce990 0 jpeg_idct_ifast
PUBLIC cf034 0 jpeg_idct_islow
PUBLIC cf7ec 0 jpeg_idct_4x4
PUBLIC cfc98 0 jpeg_idct_2x2
PUBLIC cfff4 0 jpeg_idct_1x1
PUBLIC d2f10 0 _TIFFCheckRealloc
PUBLIC d2f88 0 _TIFFCheckMalloc
PUBLIC d2fb0 0 TIFFVGetFieldDefaulted
PUBLIC d34f0 0 TIFFGetFieldDefaulted
PUBLIC d3518 0 TIFFCleanup
PUBLIC d3638 0 TIFFClose
PUBLIC d3f74 0 _TIFFsetByteArray
PUBLIC d3f7c 0 _TIFFsetString
PUBLIC d3fa8 0 _TIFFsetNString
PUBLIC d3fb0 0 _TIFFsetShortArray
PUBLIC d3fb8 0 _TIFFsetLongArray
PUBLIC d3fc0 0 _TIFFsetFloatArray
PUBLIC d4d78 0 _TIFFsetDoubleArray
PUBLIC d4d80 0 TIFFVSetField
PUBLIC d4e60 0 TIFFSetField
PUBLIC d4e88 0 TIFFVGetField
PUBLIC d4ee8 0 TIFFGetField
PUBLIC d4f10 0 TIFFFreeDirectory
PUBLIC d50a4 0 TIFFSetTagExtender
PUBLIC d50c0 0 TIFFDefaultDirectory
PUBLIC d51d0 0 TIFFCreateDirectory
PUBLIC d51fc 0 TIFFNumberOfDirectories
PUBLIC d524c 0 TIFFSetDirectory
PUBLIC d52cc 0 TIFFSetSubDirectory
PUBLIC d52dc 0 TIFFCurrentDirOffset
PUBLIC d52e4 0 TIFFLastDirectory
PUBLIC d52f4 0 TIFFUnlinkDirectory
PUBLIC d54bc 0 TIFFReassignTagToIgnore
PUBLIC d5608 0 _TIFFGetFieldInfo
PUBLIC d5620 0 _TIFFGetExifFieldInfo
PUBLIC d5640 0 _TIFFPrintFieldInfo
PUBLIC d5724 0 TIFFDataWidth
PUBLIC d5748 0 _TIFFDataSize
PUBLIC d5774 0 _TIFFSampleToTagType
PUBLIC d57f8 0 TIFFFindFieldInfo
PUBLIC d58a0 0 _TIFFMergeFieldInfo
PUBLIC d59b4 0 _TIFFSetupFieldInfo
PUBLIC d5a80 0 TIFFMergeFieldInfo
PUBLIC d5ac0 0 TIFFFindFieldInfoByName
PUBLIC d5b78 0 TIFFFieldWithTag
PUBLIC d5bc0 0 TIFFFieldWithName
PUBLIC d5c08 0 _TIFFCreateAnonFieldInfo
PUBLIC d5c9c 0 _TIFFFindOrRegisterFieldInfo
PUBLIC d739c 0 TIFFReadDirectory
PUBLIC d89b0 0 TIFFReadCustomDirectory
PUBLIC d8d44 0 TIFFReadEXIFDirectory
PUBLIC da63c 0 TIFFWriteDirectory
PUBLIC da658 0 TIFFCheckpointDirectory
PUBLIC da6b8 0 TIFFWriteCustomDirectory
PUBLIC da93c 0 TIFFRewriteDirectory
PUBLIC dab48 0 TIFFSetErrorHandler
PUBLIC dab64 0 TIFFSetErrorHandlerExt
PUBLIC dab80 0 TIFFError
PUBLIC dabf4 0 TIFFErrorExt
PUBLIC dac70 0 TIFFFlushData
PUBLIC dacb8 0 TIFFFlush
PUBLIC e03f0 0 TIFFRGBAImageOK
PUBLIC e0704 0 TIFFRGBAImageEnd
PUBLIC e07a8 0 TIFFRGBAImageBegin
PUBLIC e134c 0 TIFFRGBAImageGet
PUBLIC e13c8 0 TIFFReadRGBAImageOriented
PUBLIC e14b0 0 TIFFReadRGBAImage
PUBLIC e14d0 0 TIFFReadRGBAStrip
PUBLIC e1638 0 TIFFReadRGBATile
PUBLIC e18b0 0 _TIFFgetMode
PUBLIC e1914 0 TIFFClientOpen
PUBLIC e1ea0 0 TIFFFileName
PUBLIC e1ea8 0 TIFFSetFileName
PUBLIC e1eb8 0 TIFFFileno
PUBLIC e1ec0 0 TIFFSetFileno
PUBLIC e1ed0 0 TIFFClientdata
PUBLIC e1ed8 0 TIFFSetClientdata
PUBLIC e1ee8 0 TIFFGetMode
PUBLIC e1ef0 0 TIFFSetMode
PUBLIC e1f00 0 TIFFIsTiled
PUBLIC e1f0c 0 TIFFCurrentRow
PUBLIC e1f14 0 TIFFCurrentDirectory
PUBLIC e1f20 0 TIFFCurrentStrip
PUBLIC e1f28 0 TIFFCurrentTile
PUBLIC e1f30 0 TIFFIsByteSwapped
PUBLIC e1f3c 0 TIFFIsUpSampled
PUBLIC e1f48 0 TIFFIsMSB2LSB
PUBLIC e1f54 0 TIFFIsBigEndian
PUBLIC e1f70 0 TIFFGetReadProc
PUBLIC e1f78 0 TIFFGetWriteProc
PUBLIC e1f80 0 TIFFGetSeekProc
PUBLIC e1f88 0 TIFFGetCloseProc
PUBLIC e1f90 0 TIFFGetSizeProc
PUBLIC e1f98 0 TIFFGetMapFileProc
PUBLIC e1fa0 0 TIFFGetUnmapFileProc
PUBLIC e2390 0 TIFFReadRawStrip
PUBLIC e2478 0 TIFFReadRawTile
PUBLIC e253c 0 TIFFReadBufferSetup
PUBLIC e2658 0 TIFFFillStrip
PUBLIC e2858 0 TIFFReadScanline
PUBLIC e29c0 0 TIFFReadEncodedStrip
PUBLIC e2aec 0 TIFFFillTile
PUBLIC e2d78 0 TIFFReadEncodedTile
PUBLIC e2e44 0 TIFFReadTile
PUBLIC e2ed0 0 _TIFFNoPostDecode
PUBLIC e2ed4 0 _TIFFSwab16BitData
PUBLIC e2f2c 0 _TIFFSwab24BitData
PUBLIC e2f98 0 _TIFFSwab32BitData
PUBLIC e2ffc 0 _TIFFSwab64BitData
PUBLIC e30b8 0 TIFFComputeStrip
PUBLIC e311c 0 TIFFNumberOfStrips
PUBLIC e3188 0 TIFFRawStripSize
PUBLIC e31cc 0 TIFFDefaultStripSize
PUBLIC e31dc 0 TIFFScanlineSize
PUBLIC e3300 0 TIFFVStripSize
PUBLIC e34c8 0 TIFFStripSize
PUBLIC e34dc 0 _TIFFDefaultStripSize
PUBLIC e3514 0 TIFFOldScanlineSize
PUBLIC e356c 0 TIFFNewScanlineSize
PUBLIC e3688 0 TIFFRasterScanlineSize
PUBLIC e3704 0 TIFFSwabShort
PUBLIC e3718 0 TIFFSwabLong
PUBLIC e373c 0 TIFFSwabArrayOfShort
PUBLIC e3758 0 TIFFSwabArrayOfTriples
PUBLIC e3774 0 TIFFSwabArrayOfLong
PUBLIC e37a8 0 TIFFSwabDouble
PUBLIC e37c8 0 TIFFSwabArrayOfDouble
PUBLIC e37f8 0 TIFFGetBitRevTable
PUBLIC e3824 0 TIFFReverseBits
PUBLIC e3924 0 TIFFComputeTile
PUBLIC e3a50 0 TIFFCheckTile
PUBLIC e3b40 0 TIFFNumberOfTiles
PUBLIC e3c6c 0 TIFFTileRowSize
PUBLIC e3ce8 0 TIFFVTileSize
PUBLIC e3ed8 0 TIFFTileSize
PUBLIC e3ee0 0 TIFFDefaultTileSize
PUBLIC e3ef0 0 _TIFFDefaultTileSize
PUBLIC e3f54 0 TIFFSetWarningHandler
PUBLIC e3f70 0 TIFFSetWarningHandlerExt
PUBLIC e3f8c 0 TIFFWarning
PUBLIC e4000 0 TIFFWarningExt
PUBLIC e430c 0 TIFFSetupStrips
PUBLIC e4404 0 TIFFWriteCheck
PUBLIC e4580 0 TIFFWriteRawStrip
PUBLIC e4698 0 TIFFWriteRawTile
PUBLIC e4748 0 TIFFWriteBufferSetup
PUBLIC e483c 0 TIFFWriteScanline
PUBLIC e4b08 0 TIFFWriteEncodedStrip
PUBLIC e4d48 0 TIFFWriteEncodedTile
PUBLIC e4fc8 0 TIFFWriteTile
PUBLIC e5040 0 TIFFFlushData1
PUBLIC e50b0 0 TIFFSetWriteOffset
PUBLIC e50b8 0 lfind
PUBLIC e5108 0 TIFFCIELabToXYZ
PUBLIC e524c 0 TIFFXYZToRGB
PUBLIC e5424 0 TIFFCIELabToRGBInit
PUBLIC e55e8 0 TIFFYCbCrtoRGB
PUBLIC e5688 0 TIFFYCbCrToRGBInit
PUBLIC e58f8 0 _TIFFNoPreCode
PUBLIC e590c 0 _TIFFNoSeek
PUBLIC e5934 0 _TIFFSetDefaultCompressionState
PUBLIC e5a34 0 TIFFFindCODEC
PUBLIC e5b08 0 _TIFFNoRowEncode
PUBLIC e5b18 0 _TIFFNoStripEncode
PUBLIC e5b28 0 _TIFFNoTileEncode
PUBLIC e5ba0 0 _TIFFNoRowDecode
PUBLIC e5bb0 0 _TIFFNoStripDecode
PUBLIC e5bc0 0 _TIFFNoTileDecode
PUBLIC e5bd0 0 TIFFSetCompressionScheme
PUBLIC e5c14 0 TIFFRegisterCODEC
PUBLIC e5ca4 0 TIFFUnRegisterCODEC
PUBLIC e5d04 0 TIFFGetConfiguredCODECs
PUBLIC e5ebc 0 TIFFIsCODECConfigured
PUBLIC e6064 0 TIFFInitDumpMode
PUBLIC e6348 0 _TIFFFax3fillruns
PUBLIC ea8ac 0 TIFFInitCCITTFax3
PUBLIC ea928 0 TIFFInitCCITTFax4
PUBLIC ea9e0 0 TIFFInitCCITTRLE
PUBLIC eaa20 0 TIFFInitCCITTRLEW
PUBLIC ed110 0 TIFFInitJPEG
PUBLIC ef2cc 0 LogL16toY
PUBLIC ef3f8 0 LogL16fromY
PUBLIC ef5b0 0 XYZtoRGB24
PUBLIC ef750 0 LogL10toY
PUBLIC ef7a0 0 LogL10fromY
PUBLIC ef860 0 uv_encode
PUBLIC efad0 0 uv_decode
PUBLIC efc68 0 LogLuv24toXYZ
PUBLIC efde0 0 LogLuv24fromXYZ
PUBLIC eff04 0 LogLuv32toXYZ
PUBLIC f0060 0 LogLuv32fromXYZ
PUBLIC f01fc 0 TIFFInitSGILog
PUBLIC f1818 0 TIFFInitLZW
PUBLIC f1b34 0 TIFFInitNeXT
PUBLIC f52a8 0 TIFFInitOJPEG
PUBLIC f5950 0 TIFFInitPackBits
PUBLIC f843c 0 TIFFInitPixarLog
PUBLIC f9fb4 0 TIFFPredictorInit
PUBLIC fa0d0 0 TIFFPredictorCleanup
PUBLIC fa468 0 TIFFInitThunderScan
PUBLIC fac2c 0 TIFFInitZIP
PUBLIC fb708 0 __cxa_get_exception_ptr
PUBLIC fb710 0 __cxa_begin_catch
PUBLIC fb7f0 0 __cxa_end_catch
PUBLIC fb8c8 0 std::uncaught_exception()
PUBLIC fb8e0 0 operator new(unsigned int)
PUBLIC fba20 0 __cxa_call_unexpected
PUBLIC fbbf8 0 __cxa_get_globals_fast
PUBLIC fbc40 0 __cxa_get_globals
PUBLIC fbcd0 0 __cxxabiv1::__si_class_type_info::~__si_class_type_info()
PUBLIC fbcf8 0 __cxxabiv1::__si_class_type_info::~__si_class_type_info()
PUBLIC fbd14 0 __cxxabiv1::__si_class_type_info::__do_find_public_src(int, void const*, __cxxabiv1::__class_type_info const*, void const*) const
PUBLIC fbd78 0 __cxxabiv1::__si_class_type_info::__do_dyncast(int, __cxxabiv1::__class_type_info::__sub_kind, __cxxabiv1::__class_type_info const*, void const*, __cxxabiv1::__class_type_info const*, void const*, __cxxabiv1::__class_type_info::__dyncast_result&) const
PUBLIC fbe58 0 __cxxabiv1::__si_class_type_info::__do_upcast(__cxxabiv1::__class_type_info const*, void const*, __cxxabiv1::__class_type_info::__upcast_result&) const
PUBLIC fbe98 0 operator delete[](void*)
PUBLIC fbe9c 0 __cxxabiv1::__class_type_info::__do_upcast(__cxxabiv1::__class_type_info const*, void**) const
PUBLIC fbef8 0 __cxxabiv1::__class_type_info::__do_find_public_src(int, void const*, __cxxabiv1::__class_type_info const*, void const*) const
PUBLIC fbf0c 0 __cxxabiv1::__class_type_info::~__class_type_info()
PUBLIC fbf34 0 __cxxabiv1::__class_type_info::~__class_type_info()
PUBLIC fbf50 0 __cxxabiv1::__class_type_info::__do_upcast(__cxxabiv1::__class_type_info const*, void const*, __cxxabiv1::__class_type_info::__upcast_result&) const
PUBLIC fbf7c 0 __cxxabiv1::__class_type_info::__do_catch(std::type_info const*, void**, unsigned int) const
PUBLIC fbfc0 0 __cxxabiv1::__class_type_info::__do_dyncast(int, __cxxabiv1::__class_type_info::__sub_kind, __cxxabiv1::__class_type_info const*, void const*, __cxxabiv1::__class_type_info const*, void const*, __cxxabiv1::__class_type_info::__dyncast_result&) const
PUBLIC fc098 0 __cxa_throw
PUBLIC fc150 0 __cxa_rethrow
PUBLIC fc200 0 __cxxabiv1::__fundamental_type_info::~__fundamental_type_info()
PUBLIC fc228 0 __cxxabiv1::__fundamental_type_info::~__fundamental_type_info()
PUBLIC fc244 0 std::exception::~exception()
PUBLIC fc25c 0 std::bad_exception::~bad_exception()
PUBLIC fc284 0 __cxxabiv1::__forced_unwind::~__forced_unwind()
PUBLIC fc29c 0 __cxxabiv1::__foreign_exception::~__foreign_exception()
PUBLIC fc2b4 0 std::exception::what() const
PUBLIC fc2c4 0 std::bad_exception::what() const
PUBLIC fc2d4 0 std::exception::~exception()
PUBLIC fc2f0 0 std::bad_exception::~bad_exception()
PUBLIC fc30c 0 __cxxabiv1::__forced_unwind::~__forced_unwind()
PUBLIC fc328 0 __cxxabiv1::__foreign_exception::~__foreign_exception()
PUBLIC fc344 0 operator delete(void*)
PUBLIC fc350 0 __cxa_end_cleanup
PUBLIC fc360 0 __cxa_type_match
PUBLIC fc4a4 0 __cxa_begin_cleanup
PUBLIC fc558 0 __gnu_end_cleanup
PUBLIC fc60c 0 __cxxabiv1::__terminate(void (*)())
PUBLIC fc640 0 std::terminate()
PUBLIC fc658 0 __cxxabiv1::__unexpected(void (*)())
PUBLIC fc664 0 std::unexpected()
PUBLIC fc67c 0 std::set_terminate(void (*)())
PUBLIC fc698 0 std::set_unexpected(void (*)())
PUBLIC fc6b4 0 operator new[](unsigned int)
PUBLIC fc818 0 __cxa_allocate_exception
PUBLIC fc8f8 0 __cxa_free_exception
PUBLIC fc998 0 __cxa_allocate_dependent_exception
PUBLIC fca74 0 __cxa_free_dependent_exception
PUBLIC fcb2c 0 std::set_new_handler(void (*)())
PUBLIC fcb48 0 __cxa_pure_virtual
PUBLIC fcb68 0 __cxa_deleted_virtual
PUBLIC fcb88 0 std::bad_alloc::what() const
PUBLIC fcb98 0 std::bad_alloc::~bad_alloc()
PUBLIC fcbc0 0 std::bad_alloc::~bad_alloc()
PUBLIC 100154 0 __cxa_guard_acquire
PUBLIC 100234 0 __cxa_guard_abort
PUBLIC 10028c 0 __cxa_guard_release
PUBLIC 100388 0 std::bad_typeid::what() const
PUBLIC 100398 0 std::bad_typeid::~bad_typeid()
PUBLIC 1003c0 0 std::bad_typeid::~bad_typeid()
PUBLIC 1003dc 0 __cxxabiv1::__pointer_type_info::__is_pointer_p() const
PUBLIC 1003e4 0 __cxxabiv1::__pointer_type_info::~__pointer_type_info()
PUBLIC 10040c 0 __cxxabiv1::__pointer_type_info::~__pointer_type_info()
PUBLIC 100428 0 __cxxabiv1::__pointer_type_info::__pointer_catch(__cxxabiv1::__pbase_type_info const*, void**, unsigned int) const
PUBLIC 1004a8 0 std::__exception_ptr::exception_ptr::_M_safe_bool_dummy()
PUBLIC 100514 0 std::__exception_ptr::exception_ptr::exception_ptr()
PUBLIC 100520 0 std::__exception_ptr::exception_ptr::exception_ptr(void (std::__exception_ptr::exception_ptr::*)())
PUBLIC 10053c 0 std::__exception_ptr::exception_ptr::_M_addref()
PUBLIC 10056c 0 std::__exception_ptr::exception_ptr::exception_ptr(void*)
PUBLIC 100584 0 std::__exception_ptr::exception_ptr::exception_ptr(std::__exception_ptr::exception_ptr const&)
PUBLIC 1005a0 0 std::__exception_ptr::exception_ptr::_M_release()
PUBLIC 100604 0 std::__exception_ptr::exception_ptr::~exception_ptr()
PUBLIC 100618 0 std::__exception_ptr::exception_ptr::_M_get() const
PUBLIC 100620 0 std::__exception_ptr::exception_ptr::swap(std::__exception_ptr::exception_ptr&)
PUBLIC 100634 0 std::__exception_ptr::exception_ptr::operator=(std::__exception_ptr::exception_ptr const&)
PUBLIC 10066c 0 std::__exception_ptr::exception_ptr::operator!() const
PUBLIC 10067c 0 std::__exception_ptr::exception_ptr::operator void (std::__exception_ptr::exception_ptr::*)()() const
PUBLIC 1006b0 0 std::__exception_ptr::exception_ptr::__cxa_exception_type() const
PUBLIC 1006bc 0 std::__exception_ptr::operator==(std::__exception_ptr::exception_ptr const&, std::__exception_ptr::exception_ptr const&)
PUBLIC 1006d4 0 std::__exception_ptr::operator!=(std::__exception_ptr::exception_ptr const&, std::__exception_ptr::exception_ptr const&)
PUBLIC 1006e8 0 std::current_exception()
PUBLIC 100788 0 std::rethrow_exception(std::__exception_ptr::exception_ptr)
PUBLIC 100848 0 std::bad_cast::what() const
PUBLIC 100858 0 std::bad_cast::~bad_cast()
PUBLIC 100880 0 std::bad_cast::~bad_cast()
PUBLIC 1012ec 0 __gnu_cxx::__verbose_terminate_handler()
PUBLIC 1014c0 0 __cxxabiv1::__pbase_type_info::~__pbase_type_info()
PUBLIC 1014e8 0 __cxxabiv1::__pbase_type_info::~__pbase_type_info()
PUBLIC 101504 0 __cxxabiv1::__pbase_type_info::__do_catch(std::type_info const*, void**, unsigned int) const
PUBLIC 101594 0 __cxa_bad_cast
PUBLIC 1015e0 0 __cxa_bad_typeid
PUBLIC 109aec 0 __cxa_demangle
PUBLIC 109c38 0 __gcclibcxx_demangle_callback
PUBLIC 109c64 0 __cxa_current_exception_type
PUBLIC 109c90 0 __aeabi_uidiv
PUBLIC 109d38 0 __aeabi_uidivmod
PUBLIC 109d58 0 __aeabi_idiv
PUBLIC 109e34 0 __aeabi_idivmod
PUBLIC 109e54 0 __aeabi_idiv0
PUBLIC 10a298 0 _Unwind_GetCFA
PUBLIC 10a2a0 0 __gnu_Unwind_RaiseException
PUBLIC 10a344 0 __gnu_Unwind_ForcedUnwind
PUBLIC 10a360 0 __gnu_Unwind_Resume
PUBLIC 10a3d4 0 __gnu_Unwind_Resume_or_Rethrow
PUBLIC 10a3f4 0 _Unwind_Complete
PUBLIC 10a3f8 0 _Unwind_DeleteException
PUBLIC 10a418 0 _Unwind_VRS_Get
PUBLIC 10a49c 0 _Unwind_VRS_Set
PUBLIC 10a524 0 __gnu_Unwind_Backtrace
PUBLIC 10a9d8 0 __aeabi_unwind_cpp_pr0
PUBLIC 10a9e0 0 __aeabi_unwind_cpp_pr1
PUBLIC 10a9e8 0 __aeabi_unwind_cpp_pr2
PUBLIC 10a9f0 0 _Unwind_VRS_Pop
PUBLIC 10ad3c 0 restore_core_regs
PUBLIC 10ad50 0 __gnu_Unwind_Restore_VFP
PUBLIC 10ad58 0 __gnu_Unwind_Save_VFP
PUBLIC 10ad60 0 __gnu_Unwind_Restore_VFP_D
PUBLIC 10ad68 0 __gnu_Unwind_Save_VFP_D
PUBLIC 10ad70 0 __gnu_Unwind_Restore_VFP_D_16_to_31
PUBLIC 10ad78 0 __gnu_Unwind_Save_VFP_D_16_to_31
PUBLIC 10ad80 0 __gnu_Unwind_Restore_WMMXD
PUBLIC 10adc4 0 __gnu_Unwind_Save_WMMXD
PUBLIC 10ae08 0 __gnu_Unwind_Restore_WMMXC
PUBLIC 10ae1c 0 __gnu_Unwind_Save_WMMXC
PUBLIC 10ae30 0 _Unwind_RaiseException
PUBLIC 10ae54 0 _Unwind_Resume
PUBLIC 10ae78 0 _Unwind_Resume_or_Rethrow
PUBLIC 10ae9c 0 ___Unwind_ForcedUnwind
PUBLIC 10aec0 0 ___Unwind_Backtrace
PUBLIC 10af70 0 __gnu_unwind_execute
PUBLIC 10b2ec 0 __gnu_unwind_frame
PUBLIC 10b32c 0 _Unwind_GetRegionStart
PUBLIC 10b33c 0 _Unwind_GetLanguageSpecificData
PUBLIC 10b358 0 _Unwind_GetDataRelBase
PUBLIC 10b360 0 _Unwind_GetTextRelBase
STACK CFI INIT 1a2a0 30 .cfa: sp 0 + .ra: lr
STACK CFI 1a2a8 .cfa: sp 8 + .ra: .cfa -4 + ^ r4: .cfa -8 + ^
STACK CFI INIT 1a2d0 38 .cfa: sp 0 + .ra: lr
STACK CFI 1a2d8 .cfa: sp 8 + .ra: .cfa -4 + ^ r4: .cfa -8 + ^
STACK CFI INIT 194f0 38c .cfa: sp 0 + .ra: lr
STACK CFI 194f4 .cfa: sp 8 + .ra: .cfa -4 + ^ r4: .cfa -8 + ^
STACK CFI INIT 1987c b8 .cfa: sp 0 + .ra: lr
STACK CFI INIT 19934 fc .cfa: sp 0 + .ra: lr
STACK CFI 19938 .cfa: sp 20 + .ra: .cfa -4 + ^ r4: .cfa -20 + ^ r5: .cfa -16 + ^ r6: .cfa -12 + ^ r7: .cfa -8 + ^
STACK CFI 19940 .cfa: sp 28 + s16: .cfa -28 + ^
STACK CFI 19944 .cfa: sp 40 +
STACK CFI INIT 19a30 38 .cfa: sp 0 + .ra: lr
STACK CFI 19a34 .cfa: sp 4 + .ra: .cfa -4 + ^
STACK CFI 19a38 .cfa: sp 112 +
STACK CFI INIT 19a68 2c .cfa: sp 0 + .ra: lr
STACK CFI 19a70 .cfa: sp 8 + .ra: .cfa -4 + ^ r3: .cfa -8 + ^
STACK CFI INIT 19a94 1c8 .cfa: sp 0 + .ra: lr
STACK CFI 19aa0 .cfa: sp 32 + .ra: .cfa -4 + ^ r10: .cfa -8 + ^ r4: .cfa -32 + ^ r5: .cfa -28 + ^ r6: .cfa -24 + ^ r7: .cfa -20 + ^ r8: .cfa -16 + ^ r9: .cfa -12 + ^
STACK CFI 19aa8 .cfa: sp 56 +
STACK CFI INIT 19c5c 238 .cfa: sp 0 + .ra: lr
STACK CFI 19c68 .cfa: sp 32 + .ra: .cfa -4 + ^ r10: .cfa -8 + ^ r4: .cfa -32 + ^ r5: .cfa -28 + ^ r6: .cfa -24 + ^ r7: .cfa -20 + ^ r8: .cfa -16 + ^ r9: .cfa -12 + ^
STACK CFI 19c6c .cfa: sp 72 +
STACK CFI INIT 19e94 20c .cfa: sp 0 + .ra: lr
STACK CFI 19e98 .cfa: sp 36 + .ra: .cfa -4 + ^ r10: .cfa -12 + ^ r11: .cfa -8 + ^ r4: .cfa -36 + ^ r5: .cfa -32 + ^ r6: .cfa -28 + ^ r7: .cfa -24 + ^ r8: .cfa -20 + ^ r9: .cfa -16 + ^
STACK CFI 19e9c .cfa: sp 1748 +
STACK CFI 19ea0 .cfa: sp 1760 +
STACK CFI INIT 1a0a0 1f4 .cfa: sp 0 + .ra: lr
STACK CFI 1a0a4 .cfa: sp 36 + .ra: .cfa -4 + ^ r10: .cfa -12 + ^ r11: .cfa -8 + ^ r4: .cfa -36 + ^ r5: .cfa -32 + ^ r6: .cfa -28 + ^ r7: .cfa -24 + ^ r8: .cfa -20 + ^ r9: .cfa -16 + ^
STACK CFI 1a0ac .cfa: sp 1748 +
STACK CFI 1a0b4 .cfa: sp 1760 +
STACK CFI INIT 1a294 c .cfa: sp 0 + .ra: lr
STACK CFI INIT 1a2a0 30 .cfa: sp 0 + .ra: lr
STACK CFI 1a2a8 .cfa: sp 8 + .ra: .cfa -4 + ^ r4: .cfa -8 + ^
STACK CFI INIT 1a2d0 38 .cfa: sp 0 + .ra: lr
STACK CFI 1a2d8 .cfa: sp 8 + .ra: .cfa -4 + ^ r4: .cfa -8 + ^
STACK CFI INIT 1a308 1e0 .cfa: sp 0 + .ra: lr
STACK CFI 1a30c .cfa: sp 36 + .ra: .cfa -4 + ^ r10: .cfa -12 + ^ r11: .cfa -8 + ^ r4: .cfa -36 + ^ r5: .cfa -32 + ^ r6: .cfa -28 + ^ r7: .cfa -24 + ^ r8: .cfa -20 + ^ r9: .cfa -16 + ^
STACK CFI 1a310 .cfa: sp 1732 +
STACK CFI 1a318 .cfa: sp 1744 +
STACK CFI INIT 1a4e8 2b0 .cfa: sp 0 + .ra: lr
STACK CFI 1a4ec .cfa: sp 36 + .ra: .cfa -4 + ^ r10: .cfa -12 + ^ r11: .cfa -8 + ^ r4: .cfa -36 + ^ r5: .cfa -32 + ^ r6: .cfa -28 + ^ r7: .cfa -24 + ^ r8: .cfa -20 + ^ r9: .cfa -16 + ^
STACK CFI 1a4f0 .cfa: sp 1732 +
STACK CFI 1a4f8 .cfa: sp 1744 +
STACK CFI INIT 1a798 280 .cfa: sp 0 + .ra: lr
STACK CFI 1a79c .cfa: sp 36 + .ra: .cfa -4 + ^ r10: .cfa -12 + ^ r11: .cfa -8 + ^ r4: .cfa -36 + ^ r5: .cfa -32 + ^ r6: .cfa -28 + ^ r7: .cfa -24 + ^ r8: .cfa -20 + ^ r9: .cfa -16 + ^
STACK CFI 1a7a4 .cfa: sp 1764 +
STACK CFI 1a7ac .cfa: sp 1776 +
STACK CFI INIT 1aa18 54c .cfa: sp 0 + .ra: lr
STACK CFI 1aa1c .cfa: sp 36 + .ra: .cfa -4 + ^ r10: .cfa -12 + ^ r11: .cfa -8 + ^ r4: .cfa -36 + ^ r5: .cfa -32 + ^ r6: .cfa -28 + ^ r7: .cfa -24 + ^ r8: .cfa -20 + ^ r9: .cfa -16 + ^
STACK CFI 1aa20 .cfa: sp 5156 +
STACK CFI 1aa24 .cfa: sp 5160 +
STACK CFI INIT 1af64 4a0 .cfa: sp 0 + .ra: lr
STACK CFI 1af68 .cfa: sp 36 + .ra: .cfa -4 + ^ r10: .cfa -12 + ^ r11: .cfa -8 + ^ r4: .cfa -36 + ^ r5: .cfa -32 + ^ r6: .cfa -28 + ^ r7: .cfa -24 + ^ r8: .cfa -20 + ^ r9: .cfa -16 + ^
STACK CFI 1af74 .cfa: sp 6820 +
STACK CFI 1af78 .cfa: sp 6864 +
STACK CFI INIT 1b404 14c .cfa: sp 0 + .ra: lr
STACK CFI 1b408 .cfa: sp 36 + .ra: .cfa -4 + ^ r10: .cfa -12 + ^ r11: .cfa -8 + ^ r4: .cfa -36 + ^ r5: .cfa -32 + ^ r6: .cfa -28 + ^ r7: .cfa -24 + ^ r8: .cfa -20 + ^ r9: .cfa -16 + ^
STACK CFI 1b428 .cfa: sp 72 +
STACK CFI INIT 1b550 56c .cfa: sp 0 + .ra: lr
STACK CFI 1b554 .cfa: sp 36 + .ra: .cfa -4 + ^ r10: .cfa -12 + ^ r11: .cfa -8 + ^ r4: .cfa -36 + ^ r5: .cfa -32 + ^ r6: .cfa -28 + ^ r7: .cfa -24 + ^ r8: .cfa -20 + ^ r9: .cfa -16 + ^
STACK CFI 1b558 .cfa: sp 5156 +
STACK CFI 1b55c .cfa: sp 5160 +
STACK CFI INIT 1babc a0 .cfa: sp 0 + .ra: lr
STACK CFI INIT 1bb5c 148 .cfa: sp 0 + .ra: lr
STACK CFI 1bb6c .cfa: sp 12 + .ra: .cfa -4 + ^ r4: .cfa -12 + ^ r5: .cfa -8 + ^
STACK CFI 1bb80 .cfa: sp 36 + s16: .cfa -36 + ^ s18: .cfa -28 + ^ s20: .cfa -20 + ^
STACK CFI 1bb84 .cfa: sp 56 +
STACK CFI INIT 1bca4 40 .cfa: sp 0 + .ra: lr
STACK CFI 1bca8 .cfa: sp 4 + .ra: .cfa -4 + ^
STACK CFI 1bcac .cfa: sp 16 +
STACK CFI INIT 1bce4 b8 .cfa: sp 0 + .ra: lr
STACK CFI 1bd14 .cfa: sp 16 +
STACK CFI INIT 1bd9c d4 .cfa: sp 0 + .ra: lr
STACK CFI 1bdc4 .cfa: sp 16 +
STACK CFI INIT 1be70 56c .cfa: sp 0 + .ra: lr
STACK CFI 1be74 .cfa: sp 36 + .ra: .cfa -4 + ^ r10: .cfa -12 + ^ r11: .cfa -8 + ^ r4: .cfa -36 + ^ r5: .cfa -32 + ^ r6: .cfa -28 + ^ r7: .cfa -24 + ^ r8: .cfa -20 + ^ r9: .cfa -16 + ^
STACK CFI 1be78 .cfa: sp 5156 +
STACK CFI 1be7c .cfa: sp 5160 +
STACK CFI INIT 1c3dc d4 .cfa: sp 0 + .ra: lr
STACK CFI 1c40c .cfa: sp 16 +
STACK CFI INIT 1c4b0 f0 .cfa: sp 0 + .ra: lr
STACK CFI 1c4c0 .cfa: sp 16 +
STACK CFI INIT 1c5a0 56c .cfa: sp 0 + .ra: lr
STACK CFI 1c5a4 .cfa: sp 36 + .ra: .cfa -4 + ^ r10: .cfa -12 + ^ r11: .cfa -8 + ^ r4: .cfa -36 + ^ r5: .cfa -32 + ^ r6: .cfa -28 + ^ r7: .cfa -24 + ^ r8: .cfa -20 + ^ r9: .cfa -16 + ^
STACK CFI 1c5a8 .cfa: sp 5156 +
STACK CFI 1c5ac .cfa: sp 5160 +
STACK CFI INIT 1cb0c 110 .cfa: sp 0 + .ra: lr
STACK CFI 1cb1c .cfa: sp 16 +
STACK CFI INIT 1cc1c e0 .cfa: sp 0 + .ra: lr
STACK CFI 1cc2c .cfa: sp 16 +
STACK CFI INIT 1ccfc 56c .cfa: sp 0 + .ra: lr
STACK CFI 1cd00 .cfa: sp 36 + .ra: .cfa -4 + ^ r10: .cfa -12 + ^ r11: .cfa -8 + ^ r4: .cfa -36 + ^ r5: .cfa -32 + ^ r6: .cfa -28 + ^ r7: .cfa -24 + ^ r8: .cfa -20 + ^ r9: .cfa -16 + ^
STACK CFI 1cd04 .cfa: sp 5156 +
STACK CFI 1cd08 .cfa: sp 5160 +
STACK CFI INIT 1d268 a0 .cfa: sp 0 + .ra: lr
STACK CFI 1d26c .cfa: sp 24 + .ra: .cfa -4 + ^ r4: .cfa -24 + ^ r5: .cfa -20 + ^ r6: .cfa -16 + ^ r7: .cfa -12 + ^ r8: .cfa -8 + ^
STACK CFI 1d274 .cfa: sp 32 + s16: .cfa -32 + ^
STACK CFI 1d278 .cfa: sp 40 +
STACK CFI INIT 1d308 3e4 .cfa: sp 0 + .ra: lr
STACK CFI 1d30c .cfa: sp 36 + .ra: .cfa -4 + ^ r10: .cfa -12 + ^ r11: .cfa -8 + ^ r4: .cfa -36 + ^ r5: .cfa -32 + ^ r6: .cfa -28 + ^ r7: .cfa -24 + ^ r8: .cfa -20 + ^ r9: .cfa -16 + ^
STACK CFI 1d318 .cfa: sp 52 + s16: .cfa -52 + ^ s18: .cfa -44 + ^
STACK CFI 1d31c .cfa: sp 120 +
STACK CFI INIT 1d6ec 1cc .cfa: sp 0 + .ra: lr
STACK CFI 1d6f4 .cfa: sp 36 + .ra: .cfa -4 + ^ r10: .cfa -12 + ^ r11: .cfa -8 + ^ r4: .cfa -36 + ^ r5: .cfa -32 + ^ r6: .cfa -28 + ^ r7: .cfa -24 + ^ r8: .cfa -20 + ^ r9: .cfa -16 + ^
STACK CFI 1d6fc .cfa: sp 44 + s16: .cfa -44 + ^
STACK CFI 1d700 .cfa: sp 1756 +
STACK CFI 1d708 .cfa: sp 1760 +
STACK CFI INIT 1d8b8 78c .cfa: sp 0 + .ra: lr
STACK CFI 1d8bc .cfa: sp 36 + .ra: .cfa -4 + ^ r10: .cfa -12 + ^ r11: .cfa -8 + ^ r4: .cfa -36 + ^ r5: .cfa -32 + ^ r6: .cfa -28 + ^ r7: .cfa -24 + ^ r8: .cfa -20 + ^ r9: .cfa -16 + ^
STACK CFI 1d8c0 .cfa: sp 1844 +
STACK CFI 1d8c4 .cfa: sp 1848 +
STACK CFI INIT 1e044 308 .cfa: sp 0 + .ra: lr
STACK CFI 1e050 .cfa: sp 36 + .ra: .cfa -4 + ^ r10: .cfa -12 + ^ r11: .cfa -8 + ^ r4: .cfa -36 + ^ r5: .cfa -32 + ^ r6: .cfa -28 + ^ r7: .cfa -24 + ^ r8: .cfa -20 + ^ r9: .cfa -16 + ^
STACK CFI 1e054 .cfa: sp 1796 +
STACK CFI 1e058 .cfa: sp 1808 +
STACK CFI INIT 1e34c 308 .cfa: sp 0 + .ra: lr
STACK CFI 1e358 .cfa: sp 36 + .ra: .cfa -4 + ^ r10: .cfa -12 + ^ r11: .cfa -8 + ^ r4: .cfa -36 + ^ r5: .cfa -32 + ^ r6: .cfa -28 + ^ r7: .cfa -24 + ^ r8: .cfa -20 + ^ r9: .cfa -16 + ^
STACK CFI 1e35c .cfa: sp 1796 +
STACK CFI 1e360 .cfa: sp 1808 +
STACK CFI INIT 1e654 390 .cfa: sp 0 + .ra: lr
STACK CFI 1e660 .cfa: sp 36 + .ra: .cfa -4 + ^ r10: .cfa -12 + ^ r11: .cfa -8 + ^ r4: .cfa -36 + ^ r5: .cfa -32 + ^ r6: .cfa -28 + ^ r7: .cfa -24 + ^ r8: .cfa -20 + ^ r9: .cfa -16 + ^
STACK CFI 1e664 .cfa: sp 1812 +
STACK CFI 1e668 .cfa: sp 1816 +
STACK CFI INIT 1e9e4 89c .cfa: sp 0 + .ra: lr
STACK CFI 1e9e8 .cfa: sp 36 + .ra: .cfa -4 + ^ r10: .cfa -12 + ^ r11: .cfa -8 + ^ r4: .cfa -36 + ^ r5: .cfa -32 + ^ r6: .cfa -28 + ^ r7: .cfa -24 + ^ r8: .cfa -20 + ^ r9: .cfa -16 + ^
STACK CFI 1e9f0 .cfa: sp 52 + s16: .cfa -52 + ^ s18: .cfa -44 + ^
STACK CFI 1e9f4 .cfa: sp 152 +
STACK CFI INIT 1f280 150 .cfa: sp 0 + .ra: lr
STACK CFI 1f284 .cfa: sp 36 + .ra: .cfa -4 + ^ r10: .cfa -12 + ^ r11: .cfa -8 + ^ r4: .cfa -36 + ^ r5: .cfa -32 + ^ r6: .cfa -28 + ^ r7: .cfa -24 + ^ r8: .cfa -20 + ^ r9: .cfa -16 + ^
STACK CFI 1f28c .cfa: sp 64 +
STACK CFI INIT 1f3d0 1fc .cfa: sp 0 + .ra: lr
STACK CFI 1f3d4 .cfa: sp 36 + .ra: .cfa -4 + ^ r10: .cfa -12 + ^ r11: .cfa -8 + ^ r4: .cfa -36 + ^ r5: .cfa -32 + ^ r6: .cfa -28 + ^ r7: .cfa -24 + ^ r8: .cfa -20 + ^ r9: .cfa -16 + ^
STACK CFI 1f3e0 .cfa: sp 64 +
STACK CFI INIT 1f5cc 328 .cfa: sp 0 + .ra: lr
STACK CFI 1f5d8 .cfa: sp 36 + .ra: .cfa -4 + ^ r10: .cfa -12 + ^ r11: .cfa -8 + ^ r4: .cfa -36 + ^ r5: .cfa -32 + ^ r6: .cfa -28 + ^ r7: .cfa -24 + ^ r8: .cfa -20 + ^ r9: .cfa -16 + ^
STACK CFI 1f5dc .cfa: sp 1796 +
STACK CFI 1f5e4 .cfa: sp 1800 +
STACK CFI INIT 1f8f4 1fc .cfa: sp 0 + .ra: lr
STACK CFI 1f8fc .cfa: sp 36 + .ra: .cfa -4 + ^ r10: .cfa -12 + ^ r11: .cfa -8 + ^ r4: .cfa -36 + ^ r5: .cfa -32 + ^ r6: .cfa -28 + ^ r7: .cfa -24 + ^ r8: .cfa -20 + ^ r9: .cfa -16 + ^
STACK CFI 1f904 .cfa: sp 60 + s16: .cfa -60 + ^ s18: .cfa -52 + ^ s20: .cfa -44 + ^
STACK CFI 1f908 .cfa: sp 96 +
STACK CFI INIT 1faf0 38 .cfa: sp 0 + .ra: lr
STACK CFI INIT 1fb28 360 .cfa: sp 0 + .ra: lr
STACK CFI 1fb2c .cfa: sp 36 + .ra: .cfa -4 + ^ r10: .cfa -12 + ^ r11: .cfa -8 + ^ r4: .cfa -36 + ^ r5: .cfa -32 + ^ r6: .cfa -28 + ^ r7: .cfa -24 + ^ r8: .cfa -20 + ^ r9: .cfa -16 + ^
STACK CFI 1fb38 .cfa: sp 68 + s16: .cfa -68 + ^ s18: .cfa -60 + ^ s20: .cfa -52 + ^ s22: .cfa -44 + ^
STACK CFI 1fb3c .cfa: sp 88 +
STACK CFI INIT 1fe88 508 .cfa: sp 0 + .ra: lr
STACK CFI 1fe8c .cfa: sp 36 + .ra: .cfa -4 + ^ r10: .cfa -12 + ^ r11: .cfa -8 + ^ r4: .cfa -36 + ^ r5: .cfa -32 + ^ r6: .cfa -28 + ^ r7: .cfa -24 + ^ r8: .cfa -20 + ^ r9: .cfa -16 + ^
STACK CFI 1fe94 .cfa: sp 84 + s16: .cfa -84 + ^ s18: .cfa -76 + ^ s20: .cfa -68 + ^ s22: .cfa -60 + ^ s24: .cfa -52 + ^ s26: .cfa -44 + ^
STACK CFI 1fe98 .cfa: sp 104 +
STACK CFI INIT 20390 1328 .cfa: sp 0 + .ra: lr
STACK CFI 20394 .cfa: sp 36 + .ra: .cfa -4 + ^ r10: .cfa -12 + ^ r11: .cfa -8 + ^ r4: .cfa -36 + ^ r5: .cfa -32 + ^ r6: .cfa -28 + ^ r7: .cfa -24 + ^ r8: .cfa -20 + ^ r9: .cfa -16 + ^
STACK CFI 2039c .cfa: sp 100 + s16: .cfa -100 + ^ s18: .cfa -92 + ^ s20: .cfa -84 + ^ s22: .cfa -76 + ^ s24: .cfa -68 + ^ s26: .cfa -60 + ^ s28: .cfa -52 + ^ s30: .cfa -44 + ^
STACK CFI 203a4 .cfa: sp 192 +
STACK CFI INIT 216b8 21c .cfa: sp 0 + .ra: lr
STACK CFI 216c4 .cfa: sp 36 + .ra: .cfa -4 + ^ r10: .cfa -12 + ^ r11: .cfa -8 + ^ r4: .cfa -36 + ^ r5: .cfa -32 + ^ r6: .cfa -28 + ^ r7: .cfa -24 + ^ r8: .cfa -20 + ^ r9: .cfa -16 + ^
STACK CFI 216c8 .cfa: sp 88 +
STACK CFI INIT 218d4 768 .cfa: sp 0 + .ra: lr
STACK CFI 218d8 .cfa: sp 36 + .ra: .cfa -4 + ^ r10: .cfa -12 + ^ r11: .cfa -8 + ^ r4: .cfa -36 + ^ r5: .cfa -32 + ^ r6: .cfa -28 + ^ r7: .cfa -24 + ^ r8: .cfa -20 + ^ r9: .cfa -16 + ^
STACK CFI 218e0 .cfa: sp 100 + s16: .cfa -100 + ^ s18: .cfa -92 + ^ s20: .cfa -84 + ^ s22: .cfa -76 + ^ s24: .cfa -68 + ^ s26: .cfa -60 + ^ s28: .cfa -52 + ^ s30: .cfa -44 + ^
STACK CFI 218e4 .cfa: sp 1828 +
STACK CFI 218e8 .cfa: sp 1832 +
STACK CFI INIT 2203c 310 .cfa: sp 0 + .ra: lr
STACK CFI 22040 .cfa: sp 36 + .ra: .cfa -4 + ^ r10: .cfa -12 + ^ r11: .cfa -8 + ^ r4: .cfa -36 + ^ r5: .cfa -32 + ^ r6: .cfa -28 + ^ r7: .cfa -24 + ^ r8: .cfa -20 + ^ r9: .cfa -16 + ^
STACK CFI 22044 .cfa: sp 5092 +
STACK CFI 22048 .cfa: sp 5152 +
STACK CFI INIT 2234c 2f0 .cfa: sp 0 + .ra: lr
STACK CFI 22354 .cfa: sp 36 + .ra: .cfa -4 + ^ r10: .cfa -12 + ^ r11: .cfa -8 + ^ r4: .cfa -36 + ^ r5: .cfa -32 + ^ r6: .cfa -28 + ^ r7: .cfa -24 + ^ r8: .cfa -20 + ^ r9: .cfa -16 + ^
STACK CFI 22358 .cfa: sp 1796 +
STACK CFI 2235c .cfa: sp 1800 +
STACK CFI INIT 2263c 2dc .cfa: sp 0 + .ra: lr
STACK CFI 22644 .cfa: sp 36 + .ra: .cfa -4 + ^ r10: .cfa -12 + ^ r11: .cfa -8 + ^ r4: .cfa -36 + ^ r5: .cfa -32 + ^ r6: .cfa -28 + ^ r7: .cfa -24 + ^ r8: .cfa -20 + ^ r9: .cfa -16 + ^
STACK CFI 2264c .cfa: sp 60 + s16: .cfa -60 + ^ s18: .cfa -52 + ^ s20: .cfa -44 + ^
STACK CFI 22650 .cfa: sp 1788 +
STACK CFI 22658 .cfa: sp 1800 +
STACK CFI INIT 22918 4b8 .cfa: sp 0 + .ra: lr
STACK CFI 2291c .cfa: sp 40 + .ra: .cfa -4 + ^ r10: .cfa -12 + ^ r11: .cfa -8 + ^ r3: .cfa -40 + ^ r4: .cfa -36 + ^ r5: .cfa -32 + ^ r6: .cfa -28 + ^ r7: .cfa -24 + ^ r8: .cfa -20 + ^ r9: .cfa -16 + ^
STACK CFI 22924 .cfa: sp 88 + s16: .cfa -88 + ^ s18: .cfa -80 + ^ s20: .cfa -72 + ^ s22: .cfa -64 + ^ s24: .cfa -56 + ^ s26: .cfa -48 + ^
STACK CFI INIT 22dd0 150 .cfa: sp 0 + .ra: lr
STACK CFI 22dd4 .cfa: sp 24 + .ra: .cfa -4 + ^ r3: .cfa -24 + ^ r4: .cfa -20 + ^ r5: .cfa -16 + ^ r6: .cfa -12 + ^ r7: .cfa -8 + ^
STACK CFI INIT 22f20 b3c .cfa: sp 0 + .ra: lr
STACK CFI 22f24 .cfa: sp 32 + r10: .cfa -8 + ^ r11: .cfa -4 + ^ r4: .cfa -32 + ^ r5: .cfa -28 + ^ r6: .cfa -24 + ^ r7: .cfa -20 + ^ r8: .cfa -16 + ^ r9: .cfa -12 + ^
STACK CFI 22f28 .cfa: sp 144 +
STACK CFI INIT 23a5c 908 .cfa: sp 0 + .ra: lr
STACK CFI 23a60 .cfa: sp 36 + .ra: .cfa -4 + ^ r10: .cfa -12 + ^ r11: .cfa -8 + ^ r4: .cfa -36 + ^ r5: .cfa -32 + ^ r6: .cfa -28 + ^ r7: .cfa -24 + ^ r8: .cfa -20 + ^ r9: .cfa -16 + ^
STACK CFI 23a68 .cfa: sp 52 + s16: .cfa -52 + ^ s18: .cfa -44 + ^
STACK CFI 23a6c .cfa: sp 192 +
STACK CFI INIT 24364 3c8 .cfa: sp 0 + .ra: lr
STACK CFI 24368 .cfa: sp 36 + .ra: .cfa -4 + ^ r10: .cfa -12 + ^ r11: .cfa -8 + ^ r4: .cfa -36 + ^ r5: .cfa -32 + ^ r6: .cfa -28 + ^ r7: .cfa -24 + ^ r8: .cfa -20 + ^ r9: .cfa -16 + ^
STACK CFI 2436c .cfa: sp 3460 +
STACK CFI 24370 .cfa: sp 3464 +
STACK CFI INIT 2472c 1174 .cfa: sp 0 + .ra: lr
STACK CFI 24734 .cfa: sp 36 + .ra: .cfa -4 + ^ r10: .cfa -12 + ^ r11: .cfa -8 + ^ r4: .cfa -36 + ^ r5: .cfa -32 + ^ r6: .cfa -28 + ^ r7: .cfa -24 + ^ r8: .cfa -20 + ^ r9: .cfa -16 + ^
STACK CFI 24748 .cfa: sp 52 + s16: .cfa -52 + ^ s18: .cfa -44 + ^
STACK CFI 2474c .cfa: sp 3524 +
STACK CFI 24750 .cfa: sp 3536 +
STACK CFI INIT 258a0 4bc .cfa: sp 0 + .ra: lr
STACK CFI 258a4 .cfa: sp 36 + .ra: .cfa -4 + ^ r10: .cfa -12 + ^ r11: .cfa -8 + ^ r4: .cfa -36 + ^ r5: .cfa -32 + ^ r6: .cfa -28 + ^ r7: .cfa -24 + ^ r8: .cfa -20 + ^ r9: .cfa -16 + ^
STACK CFI 258b0 .cfa: sp 3508 +
STACK CFI 258b4 .cfa: sp 3520 +
STACK CFI INIT 25d5c 3e4 .cfa: sp 0 + .ra: lr
STACK CFI 25d64 .cfa: sp 36 + .ra: .cfa -4 + ^ r10: .cfa -12 + ^ r11: .cfa -8 + ^ r4: .cfa -36 + ^ r5: .cfa -32 + ^ r6: .cfa -28 + ^ r7: .cfa -24 + ^ r8: .cfa -20 + ^ r9: .cfa -16 + ^
STACK CFI 25d6c .cfa: sp 52 + s16: .cfa -52 + ^ s18: .cfa -44 + ^
STACK CFI 25d70 .cfa: sp 1796 +
STACK CFI 25d78 .cfa: sp 1800 +
STACK CFI INIT 26140 310 .cfa: sp 0 + .ra: lr
STACK CFI 26148 .cfa: sp 36 + .ra: .cfa -4 + ^ r10: .cfa -12 + ^ r11: .cfa -8 + ^ r4: .cfa -36 + ^ r5: .cfa -32 + ^ r6: .cfa -28 + ^ r7: .cfa -24 + ^ r8: .cfa -20 + ^ r9: .cfa -16 + ^
STACK CFI 26150 .cfa: sp 44 + s16: .cfa -44 + ^
STACK CFI 2615c .cfa: sp 72 +
STACK CFI INIT 26450 b8 .cfa: sp 0 + .ra: lr
STACK CFI 26458 .cfa: sp 8 + .ra: .cfa -4 + ^ r4: .cfa -8 + ^
STACK CFI 2645c .cfa: sp 264 +
STACK CFI INIT 26508 168 .cfa: sp 0 + .ra: lr
STACK CFI 26510 .cfa: sp 24 + .ra: .cfa -4 + ^ r4: .cfa -24 + ^ r5: .cfa -20 + ^ r6: .cfa -16 + ^ r7: .cfa -12 + ^ r8: .cfa -8 + ^
STACK CFI 26518 .cfa: sp 40 + s16: .cfa -40 + ^ s18: .cfa -32 + ^
STACK CFI 2651c .cfa: sp 296 +
STACK CFI INIT 26670 2e8 .cfa: sp 0 + .ra: lr
STACK CFI 26674 .cfa: sp 36 + .ra: .cfa -4 + ^ r10: .cfa -12 + ^ r11: .cfa -8 + ^ r4: .cfa -36 + ^ r5: .cfa -32 + ^ r6: .cfa -28 + ^ r7: .cfa -24 + ^ r8: .cfa -20 + ^ r9: .cfa -16 + ^
STACK CFI 2668c .cfa: sp 44 + s16: .cfa -44 + ^
STACK CFI 26690 .cfa: sp 80 +
STACK CFI INIT 26958 398 .cfa: sp 0 + .ra: lr
STACK CFI 2695c .cfa: sp 32 + .ra: .cfa -4 + ^ r10: .cfa -8 + ^ r4: .cfa -32 + ^ r5: .cfa -28 + ^ r6: .cfa -24 + ^ r7: .cfa -20 + ^ r8: .cfa -16 + ^ r9: .cfa -12 + ^
STACK CFI 26968 .cfa: sp 56 + s16: .cfa -56 + ^ s18: .cfa -48 + ^ s20: .cfa -40 + ^
STACK CFI 2696c .cfa: sp 832 +
STACK CFI INIT 26cf0 1d4 .cfa: sp 0 + .ra: lr
STACK CFI 26cf8 .cfa: sp 36 + .ra: .cfa -4 + ^ r10: .cfa -12 + ^ r11: .cfa -8 + ^ r4: .cfa -36 + ^ r5: .cfa -32 + ^ r6: .cfa -28 + ^ r7: .cfa -24 + ^ r8: .cfa -20 + ^ r9: .cfa -16 + ^
STACK CFI 26d00 .cfa: sp 68 + s16: .cfa -68 + ^ s18: .cfa -60 + ^ s20: .cfa -52 + ^ s22: .cfa -44 + ^
STACK CFI 26d04 .cfa: sp 88 +
STACK CFI INIT 26ec4 3c8 .cfa: sp 0 + .ra: lr
STACK CFI 26ecc .cfa: sp 36 + .ra: .cfa -4 + ^ r10: .cfa -12 + ^ r11: .cfa -8 + ^ r4: .cfa -36 + ^ r5: .cfa -32 + ^ r6: .cfa -28 + ^ r7: .cfa -24 + ^ r8: .cfa -20 + ^ r9: .cfa -16 + ^
STACK CFI 26ed4 .cfa: sp 68 + s16: .cfa -68 + ^ s18: .cfa -60 + ^ s20: .cfa -52 + ^ s22: .cfa -44 + ^
STACK CFI 26ed8 .cfa: sp 352 +
STACK CFI INIT 2728c 4a8 .cfa: sp 0 + .ra: lr
STACK CFI 27290 .cfa: sp 36 + .ra: .cfa -4 + ^ r10: .cfa -12 + ^ r11: .cfa -8 + ^ r4: .cfa -36 + ^ r5: .cfa -32 + ^ r6: .cfa -28 + ^ r7: .cfa -24 + ^ r8: .cfa -20 + ^ r9: .cfa -16 + ^
STACK CFI 2729c .cfa: sp 80 +
STACK CFI INIT 27734 240 .cfa: sp 0 + .ra: lr
STACK CFI 2773c .cfa: sp 36 + .ra: .cfa -4 + ^ r10: .cfa -12 + ^ r11: .cfa -8 + ^ r4: .cfa -36 + ^ r5: .cfa -32 + ^ r6: .cfa -28 + ^ r7: .cfa -24 + ^ r8: .cfa -20 + ^ r9: .cfa -16 + ^
STACK CFI 27744 .cfa: sp 64 +
STACK CFI INIT 27974 a00 .cfa: sp 0 + .ra: lr
STACK CFI 27978 .cfa: sp 36 + .ra: .cfa -4 + ^ r10: .cfa -12 + ^ r11: .cfa -8 + ^ r4: .cfa -36 + ^ r5: .cfa -32 + ^ r6: .cfa -28 + ^ r7: .cfa -24 + ^ r8: .cfa -20 + ^ r9: .cfa -16 + ^
STACK CFI 27980 .cfa: sp 100 + s16: .cfa -100 + ^ s18: .cfa -92 + ^ s20: .cfa -84 + ^ s22: .cfa -76 + ^ s24: .cfa -68 + ^ s26: .cfa -60 + ^ s28: .cfa -52 + ^ s30: .cfa -44 + ^
STACK CFI 27984 .cfa: sp 2228 +
STACK CFI 27988 .cfa: sp 2232 +
STACK CFI INIT 28374 408 .cfa: sp 0 + .ra: lr
STACK CFI 28378 .cfa: sp 36 + .ra: .cfa -4 + ^ r10: .cfa -12 + ^ r11: .cfa -8 + ^ r4: .cfa -36 + ^ r5: .cfa -32 + ^ r6: .cfa -28 + ^ r7: .cfa -24 + ^ r8: .cfa -20 + ^ r9: .cfa -16 + ^
STACK CFI 28380 .cfa: sp 60 + s16: .cfa -60 + ^ s18: .cfa -52 + ^ s20: .cfa -44 + ^
STACK CFI 28384 .cfa: sp 1820 +
STACK CFI 28388 .cfa: sp 1824 +
STACK CFI INIT 2877c c .cfa: sp 0 + .ra: lr
STACK CFI INIT 28788 c .cfa: sp 0 + .ra: lr
STACK CFI INIT 298b8 d0 .cfa: sp 0 + .ra: lr
STACK CFI 298bc .cfa: sp 24 + .ra: .cfa -4 + ^ r4: .cfa -24 + ^ r5: .cfa -20 + ^ r6: .cfa -16 + ^ r7: .cfa -12 + ^ r8: .cfa -8 + ^
STACK CFI INIT 29988 170 .cfa: sp 0 + .ra: lr
STACK CFI 2998c .cfa: sp 32 + .ra: .cfa -4 + ^ r10: .cfa -8 + ^ r4: .cfa -32 + ^ r5: .cfa -28 + ^ r6: .cfa -24 + ^ r7: .cfa -20 + ^ r8: .cfa -16 + ^ r9: .cfa -12 + ^
STACK CFI INIT 28794 1120 .cfa: sp 0 + .ra: lr
STACK CFI 28798 .cfa: sp 36 + .ra: .cfa -4 + ^ r10: .cfa -12 + ^ r11: .cfa -8 + ^ r4: .cfa -36 + ^ r5: .cfa -32 + ^ r6: .cfa -28 + ^ r7: .cfa -24 + ^ r8: .cfa -20 + ^ r9: .cfa -16 + ^
STACK CFI 2879c .cfa: sp 288 +
STACK CFI INIT 29af8 88 .cfa: sp 0 + .ra: lr
STACK CFI 29afc .cfa: sp 24 + .ra: .cfa -4 + ^ r3: .cfa -24 + ^ r4: .cfa -20 + ^ r5: .cfa -16 + ^ r6: .cfa -12 + ^ r7: .cfa -8 + ^
STACK CFI INIT 29b80 28 .cfa: sp 0 + .ra: lr
STACK CFI 29b88 .cfa: sp 8 + .ra: .cfa -4 + ^ r4: .cfa -8 + ^
STACK CFI INIT 29ba8 d4 .cfa: sp 0 + .ra: lr
STACK CFI 29bac .cfa: sp 16 + .ra: .cfa -4 + ^ r3: .cfa -16 + ^ r4: .cfa -12 + ^ r5: .cfa -8 + ^
STACK CFI INIT 29c7c 8c .cfa: sp 0 + .ra: lr
STACK CFI 29c80 .cfa: sp 16 + .ra: .cfa -4 + ^ r3: .cfa -16 + ^ r4: .cfa -12 + ^ r5: .cfa -8 + ^
STACK CFI INIT 1a2a0 30 .cfa: sp 0 + .ra: lr
STACK CFI 1a2a8 .cfa: sp 8 + .ra: .cfa -4 + ^ r4: .cfa -8 + ^
STACK CFI INIT 1a2d0 38 .cfa: sp 0 + .ra: lr
STACK CFI 1a2d8 .cfa: sp 8 + .ra: .cfa -4 + ^ r4: .cfa -8 + ^
STACK CFI INIT 29d08 1c .cfa: sp 0 + .ra: lr
STACK CFI INIT 29d24 6c .cfa: sp 0 + .ra: lr
STACK CFI 29d28 .cfa: sp 24 + .ra: .cfa -4 + ^ r3: .cfa -24 + ^ r4: .cfa -20 + ^ r5: .cfa -16 + ^ r6: .cfa -12 + ^ r7: .cfa -8 + ^
STACK CFI INIT 29d90 1c .cfa: sp 0 + .ra: lr
STACK CFI 29d94 .cfa: sp 8 + .ra: .cfa -4 + ^ r4: .cfa -8 + ^
STACK CFI INIT 29dac 2cc .cfa: sp 0 + .ra: lr
STACK CFI 29db0 .cfa: sp 32 + .ra: .cfa -4 + ^ r3: .cfa -32 + ^ r4: .cfa -28 + ^ r5: .cfa -24 + ^ r6: .cfa -20 + ^ r7: .cfa -16 + ^ r8: .cfa -12 + ^ r9: .cfa -8 + ^
STACK CFI INIT 2a078 5c .cfa: sp 0 + .ra: lr
STACK CFI 2a080 .cfa: sp 24 + .ra: .cfa -4 + ^ r4: .cfa -24 + ^ r5: .cfa -20 + ^ r6: .cfa -16 + ^ r7: .cfa -12 + ^ r8: .cfa -8 + ^
STACK CFI 2a084 .cfa: sp 32 +
STACK CFI INIT 2a0d4 38 .cfa: sp 0 + .ra: lr
STACK CFI INIT 2a10c 60 .cfa: sp 0 + .ra: lr
STACK CFI 2a110 .cfa: sp 16 + .ra: .cfa -4 + ^ r3: .cfa -16 + ^ r4: .cfa -12 + ^ r5: .cfa -8 + ^
STACK CFI INIT 2a16c 100 .cfa: sp 0 + .ra: lr
STACK CFI 2a170 .cfa: sp 40 + .ra: .cfa -4 + ^ r10: .cfa -12 + ^ r11: .cfa -8 + ^ r3: .cfa -40 + ^ r4: .cfa -36 + ^ r5: .cfa -32 + ^ r6: .cfa -28 + ^ r7: .cfa -24 + ^ r8: .cfa -20 + ^ r9: .cfa -16 + ^
STACK CFI INIT 2a26c 98 .cfa: sp 0 + .ra: lr
STACK CFI 2a270 .cfa: sp 16 + .ra: .cfa -4 + ^ r4: .cfa -16 + ^ r5: .cfa -12 + ^ r6: .cfa -8 + ^
STACK CFI INIT 2a304 1bc .cfa: sp 0 + .ra: lr
STACK CFI 2a30c .cfa: sp 36 + .ra: .cfa -4 + ^ r10: .cfa -12 + ^ r11: .cfa -8 + ^ r4: .cfa -36 + ^ r5: .cfa -32 + ^ r6: .cfa -28 + ^ r7: .cfa -24 + ^ r8: .cfa -20 + ^ r9: .cfa -16 + ^
STACK CFI 2a310 .cfa: sp 48 +
STACK CFI INIT 2a4c0 68 .cfa: sp 0 + .ra: lr
STACK CFI 2a4c8 .cfa: sp 24 + .ra: .cfa -4 + ^ r4: .cfa -24 + ^ r5: .cfa -20 + ^ r6: .cfa -16 + ^ r7: .cfa -12 + ^ r8: .cfa -8 + ^
STACK CFI 2a4cc .cfa: sp 32 +
STACK CFI INIT 2a528 30 .cfa: sp 0 + .ra: lr
STACK CFI 2a530 .cfa: sp 8 + .ra: .cfa -4 + ^ r4: .cfa -8 + ^
STACK CFI 2a538 .cfa: sp 16 +
STACK CFI INIT 2a558 3b0 .cfa: sp 0 + .ra: lr
STACK CFI 2a55c .cfa: sp 32 + r10: .cfa -8 + ^ r11: .cfa -4 + ^ r4: .cfa -32 + ^ r5: .cfa -28 + ^ r6: .cfa -24 + ^ r7: .cfa -20 + ^ r8: .cfa -16 + ^ r9: .cfa -12 + ^
STACK CFI 2a560 .cfa: sp 48 +
STACK CFI INIT 2a908 1bc .cfa: sp 0 + .ra: lr
STACK CFI 2a90c .cfa: sp 36 + .ra: .cfa -4 + ^ r10: .cfa -12 + ^ r11: .cfa -8 + ^ r4: .cfa -36 + ^ r5: .cfa -32 + ^ r6: .cfa -28 + ^ r7: .cfa -24 + ^ r8: .cfa -20 + ^ r9: .cfa -16 + ^
STACK CFI 2a910 .cfa: sp 64 +
STACK CFI INIT 2aac4 1bc .cfa: sp 0 + .ra: lr
STACK CFI 2aac8 .cfa: sp 36 + .ra: .cfa -4 + ^ r10: .cfa -12 + ^ r11: .cfa -8 + ^ r4: .cfa -36 + ^ r5: .cfa -32 + ^ r6: .cfa -28 + ^ r7: .cfa -24 + ^ r8: .cfa -20 + ^ r9: .cfa -16 + ^
STACK CFI 2aacc .cfa: sp 64 +
STACK CFI INIT 2ac80 50 .cfa: sp 0 + .ra: lr
STACK CFI 2ac84 .cfa: sp 20 + r4: .cfa -20 + ^ r5: .cfa -16 + ^ r6: .cfa -12 + ^ r7: .cfa -8 + ^ r8: .cfa -4 + ^
STACK CFI INIT 2acd0 c .cfa: sp 0 + .ra: lr
STACK CFI INIT 1a2a0 30 .cfa: sp 0 + .ra: lr
STACK CFI 1a2a8 .cfa: sp 8 + .ra: .cfa -4 + ^ r4: .cfa -8 + ^
STACK CFI INIT 1a2d0 38 .cfa: sp 0 + .ra: lr
STACK CFI 1a2d8 .cfa: sp 8 + .ra: .cfa -4 + ^ r4: .cfa -8 + ^
STACK CFI INIT 2c4ec 30 .cfa: sp 0 + .ra: lr
STACK CFI 2c4f4 .cfa: sp 8 + .ra: .cfa -4 + ^ r4: .cfa -8 + ^
STACK CFI INIT 2c51c 38 .cfa: sp 0 + .ra: lr
STACK CFI 2c524 .cfa: sp 8 + .ra: .cfa -4 + ^ r4: .cfa -8 + ^
STACK CFI INIT 2acdc 9a4 .cfa: sp 0 + .ra: lr
STACK CFI 2ace0 .cfa: sp 36 + .ra: .cfa -4 + ^ r10: .cfa -12 + ^ r11: .cfa -8 + ^ r4: .cfa -36 + ^ r5: .cfa -32 + ^ r6: .cfa -28 + ^ r7: .cfa -24 + ^ r8: .cfa -20 + ^ r9: .cfa -16 + ^
STACK CFI 2acec .cfa: sp 2068 +
STACK CFI 2acf0 .cfa: sp 2080 +
STACK CFI INIT 2b680 b70 .cfa: sp 0 + .ra: lr
STACK CFI 2b684 .cfa: sp 36 + .ra: .cfa -4 + ^ r10: .cfa -12 + ^ r11: .cfa -8 + ^ r4: .cfa -36 + ^ r5: .cfa -32 + ^ r6: .cfa -28 + ^ r7: .cfa -24 + ^ r8: .cfa -20 + ^ r9: .cfa -16 + ^
STACK CFI 2b688 .cfa: sp 1892 +
STACK CFI 2b68c .cfa: sp 1896 +
STACK CFI INIT 2c1f0 2fc .cfa: sp 0 + .ra: lr
STACK CFI 2c1f4 .cfa: sp 36 + .ra: .cfa -4 + ^ r10: .cfa -12 + ^ r11: .cfa -8 + ^ r4: .cfa -36 + ^ r5: .cfa -32 + ^ r6: .cfa -28 + ^ r7: .cfa -24 + ^ r8: .cfa -20 + ^ r9: .cfa -16 + ^
STACK CFI 2c200 .cfa: sp 1732 +
STACK CFI 2c204 .cfa: sp 1744 +
STACK CFI INIT 1a2a0 30 .cfa: sp 0 + .ra: lr
STACK CFI 1a2a8 .cfa: sp 8 + .ra: .cfa -4 + ^ r4: .cfa -8 + ^
STACK CFI INIT 1a2d0 38 .cfa: sp 0 + .ra: lr
STACK CFI 1a2d8 .cfa: sp 8 + .ra: .cfa -4 + ^ r4: .cfa -8 + ^
STACK CFI INIT 2c558 8 .cfa: sp 0 + .ra: lr
STACK CFI INIT 2c560 8 .cfa: sp 0 + .ra: lr
STACK CFI INIT 2c568 10 .cfa: sp 0 + .ra: lr
STACK CFI INIT 2c578 8 .cfa: sp 0 + .ra: lr
STACK CFI INIT 2c580 8 .cfa: sp 0 + .ra: lr
STACK CFI INIT 2c588 24 .cfa: sp 0 + .ra: lr
STACK CFI INIT 2c5ac 20 .cfa: sp 0 + .ra: lr
STACK CFI INIT 2c5cc 54 .cfa: sp 0 + .ra: lr
STACK CFI 2c5d0 .cfa: sp 16 + .ra: .cfa -4 + ^ r4: .cfa -16 + ^ r5: .cfa -12 + ^ r6: .cfa -8 + ^
STACK CFI INIT 2c620 24 .cfa: sp 0 + .ra: lr
STACK CFI 2c624 .cfa: sp 8 + .ra: .cfa -4 + ^ r4: .cfa -8 + ^
STACK CFI INIT 2c644 408 .cfa: sp 0 + .ra: lr
STACK CFI 2c64c .cfa: sp 16 + r4: .cfa -16 + ^ r5: .cfa -12 + ^ r6: .cfa -8 + ^ r7: .cfa -4 + ^
STACK CFI INIT 2ca4c 94 .cfa: sp 0 + .ra: lr
STACK CFI 2ca50 .cfa: sp 12 + .ra: .cfa -4 + ^ r4: .cfa -12 + ^ r5: .cfa -8 + ^
STACK CFI 2ca5c .cfa: sp 24 +
STACK CFI INIT 2cae0 c0 .cfa: sp 0 + .ra: lr
STACK CFI 2cae4 .cfa: sp 32 + .ra: .cfa -4 + ^ r10: .cfa -8 + ^ r4: .cfa -32 + ^ r5: .cfa -28 + ^ r6: .cfa -24 + ^ r7: .cfa -20 + ^ r8: .cfa -16 + ^ r9: .cfa -12 + ^
STACK CFI INIT 2cba0 3c .cfa: sp 0 + .ra: lr
STACK CFI 2cba8 .cfa: sp 24 + .ra: .cfa -4 + ^ r3: .cfa -24 + ^ r4: .cfa -20 + ^ r5: .cfa -16 + ^ r6: .cfa -12 + ^ r7: .cfa -8 + ^
STACK CFI INIT 2cbdc 44 .cfa: sp 0 + .ra: lr
STACK CFI 2cbe4 .cfa: sp 16 + .ra: .cfa -4 + ^ r4: .cfa -16 + ^ r5: .cfa -12 + ^ r6: .cfa -8 + ^
STACK CFI INIT 2cc20 44 .cfa: sp 0 + .ra: lr
STACK CFI 2cc28 .cfa: sp 16 + .ra: .cfa -4 + ^ r4: .cfa -16 + ^ r5: .cfa -12 + ^ r6: .cfa -8 + ^
STACK CFI INIT 2cc64 58 .cfa: sp 0 + .ra: lr
STACK CFI 2cc68 .cfa: sp 16 + .ra: .cfa -4 + ^ r4: .cfa -16 + ^ r5: .cfa -12 + ^ r6: .cfa -8 + ^
STACK CFI INIT 2ccbc 64 .cfa: sp 0 + .ra: lr
STACK CFI 2ccc4 .cfa: sp 20 + .ra: .cfa -4 + ^ r4: .cfa -20 + ^ r5: .cfa -16 + ^ r6: .cfa -12 + ^ r7: .cfa -8 + ^
STACK CFI 2cccc .cfa: sp 32 +
STACK CFI INIT 2cd20 60 .cfa: sp 0 + .ra: lr
STACK CFI 2cd28 .cfa: sp 12 + .ra: .cfa -4 + ^ r4: .cfa -12 + ^ r5: .cfa -8 + ^
STACK CFI 2cd30 .cfa: sp 24 +
STACK CFI INIT 2cd80 424 .cfa: sp 0 + .ra: lr
STACK CFI 2cd84 .cfa: sp 36 + .ra: .cfa -4 + ^ r10: .cfa -12 + ^ r11: .cfa -8 + ^ r4: .cfa -36 + ^ r5: .cfa -32 + ^ r6: .cfa -28 + ^ r7: .cfa -24 + ^ r8: .cfa -20 + ^ r9: .cfa -16 + ^
STACK CFI 2cd88 .cfa: sp 1748 +
STACK CFI 2cd90 .cfa: sp 1760 +
STACK CFI INIT 2d1a4 ac .cfa: sp 0 + .ra: lr
STACK CFI 2d1a8 .cfa: sp 24 + .ra: .cfa -4 + ^ r4: .cfa -24 + ^ r5: .cfa -20 + ^ r6: .cfa -16 + ^ r7: .cfa -12 + ^ r8: .cfa -8 + ^
STACK CFI INIT 2d250 3f8 .cfa: sp 0 + .ra: lr
STACK CFI 2d254 .cfa: sp 36 + .ra: .cfa -4 + ^ r10: .cfa -12 + ^ r11: .cfa -8 + ^ r4: .cfa -36 + ^ r5: .cfa -32 + ^ r6: .cfa -28 + ^ r7: .cfa -24 + ^ r8: .cfa -20 + ^ r9: .cfa -16 + ^
STACK CFI 2d260 .cfa: sp 160 +
STACK CFI INIT 2d648 158 .cfa: sp 0 + .ra: lr
STACK CFI 2d64c .cfa: sp 28 + .ra: .cfa -4 + ^ r4: .cfa -28 + ^ r5: .cfa -24 + ^ r6: .cfa -20 + ^ r7: .cfa -16 + ^ r8: .cfa -12 + ^ r9: .cfa -8 + ^
STACK CFI 2d650 .cfa: sp 1724 +
STACK CFI 2d658 .cfa: sp 1736 +
STACK CFI INIT 2d7a0 164 .cfa: sp 0 + .ra: lr
STACK CFI 2d7a4 .cfa: sp 28 + .ra: .cfa -4 + ^ r4: .cfa -28 + ^ r5: .cfa -24 + ^ r6: .cfa -20 + ^ r7: .cfa -16 + ^ r8: .cfa -12 + ^ r9: .cfa -8 + ^
STACK CFI 2d7a8 .cfa: sp 1740 +
STACK CFI 2d7ac .cfa: sp 1744 +
STACK CFI INIT 2d904 c0 .cfa: sp 0 + .ra: lr
STACK CFI 2d908 .cfa: sp 24 + .ra: .cfa -4 + ^ r3: .cfa -24 + ^ r4: .cfa -20 + ^ r5: .cfa -16 + ^ r6: .cfa -12 + ^ r7: .cfa -8 + ^
STACK CFI INIT 1a2a0 30 .cfa: sp 0 + .ra: lr
STACK CFI 1a2a8 .cfa: sp 8 + .ra: .cfa -4 + ^ r4: .cfa -8 + ^
STACK CFI INIT 1a2d0 38 .cfa: sp 0 + .ra: lr
STACK CFI 1a2d8 .cfa: sp 8 + .ra: .cfa -4 + ^ r4: .cfa -8 + ^
STACK CFI INIT 2d9c8 c .cfa: sp 0 + .ra: lr
STACK CFI INIT 2d9d4 58 .cfa: sp 0 + .ra: lr
STACK CFI 2d9d8 .cfa: sp 20 + r4: .cfa -20 + ^ r5: .cfa -16 + ^ r6: .cfa -12 + ^ r7: .cfa -8 + ^ r8: .cfa -4 + ^
STACK CFI INIT 2da2c 6c .cfa: sp 0 + .ra: lr
STACK CFI 2da34 .cfa: sp 24 + r4: .cfa -24 + ^ r5: .cfa -20 + ^ r6: .cfa -16 + ^ r7: .cfa -12 + ^ r8: .cfa -8 + ^ r9: .cfa -4 + ^
STACK CFI 2da38 .cfa: sp 32 +
STACK CFI INIT 2da98 64 .cfa: sp 0 + .ra: lr
STACK CFI 2daa0 .cfa: sp 20 + r4: .cfa -20 + ^ r5: .cfa -16 + ^ r6: .cfa -12 + ^ r7: .cfa -8 + ^ r8: .cfa -4 + ^
STACK CFI INIT 2dafc 24 .cfa: sp 0 + .ra: lr
STACK CFI INIT 2db20 90 .cfa: sp 0 + .ra: lr
STACK CFI 2db28 .cfa: sp 8 + r4: .cfa -8 + ^ r5: .cfa -4 + ^
STACK CFI 2db2c .cfa: sp 16 +
STACK CFI INIT 2dbb0 114 .cfa: sp 0 + .ra: lr
STACK CFI 2dbb8 .cfa: sp 12 + r4: .cfa -12 + ^ r5: .cfa -8 + ^ r6: .cfa -4 + ^
STACK CFI INIT 2dcc4 100 .cfa: sp 0 + .ra: lr
STACK CFI 2dccc .cfa: sp 16 + .ra: .cfa -4 + ^ r4: .cfa -16 + ^ r5: .cfa -12 + ^ r6: .cfa -8 + ^
STACK CFI INIT 2ddc4 184 .cfa: sp 0 + .ra: lr
STACK CFI 2ddcc .cfa: sp 28 + .ra: .cfa -4 + ^ r4: .cfa -28 + ^ r5: .cfa -24 + ^ r6: .cfa -20 + ^ r7: .cfa -16 + ^ r8: .cfa -12 + ^ r9: .cfa -8 + ^
STACK CFI 2ddd4 .cfa: sp 48 +
STACK CFI INIT 2df48 f0 .cfa: sp 0 + .ra: lr
STACK CFI 2df50 .cfa: sp 32 + .ra: .cfa -4 + ^ r10: .cfa -8 + ^ r4: .cfa -32 + ^ r5: .cfa -28 + ^ r6: .cfa -24 + ^ r7: .cfa -20 + ^ r8: .cfa -16 + ^ r9: .cfa -12 + ^
STACK CFI 2df58 .cfa: sp 40 +
STACK CFI INIT 2e038 40 .cfa: sp 0 + .ra: lr
STACK CFI 2e03c .cfa: sp 4 + .ra: .cfa -4 + ^
STACK CFI 2e044 .cfa: sp 16 +
STACK CFI INIT 2e078 10c .cfa: sp 0 + .ra: lr
STACK CFI 2e080 .cfa: sp 16 + .ra: .cfa -4 + ^ r3: .cfa -16 + ^ r4: .cfa -12 + ^ r5: .cfa -8 + ^
STACK CFI INIT 2e184 f4 .cfa: sp 0 + .ra: lr
STACK CFI 2e18c .cfa: sp 12 + r4: .cfa -12 + ^ r5: .cfa -8 + ^ r6: .cfa -4 + ^
STACK CFI INIT 2e278 108 .cfa: sp 0 + .ra: lr
STACK CFI 2e27c .cfa: sp 28 + r10: .cfa -4 + ^ r4: .cfa -28 + ^ r5: .cfa -24 + ^ r6: .cfa -20 + ^ r7: .cfa -16 + ^ r8: .cfa -12 + ^ r9: .cfa -8 + ^
STACK CFI 2e280 .cfa: sp 40 +
STACK CFI INIT 2e380 ec .cfa: sp 0 + .ra: lr
STACK CFI 2e384 .cfa: sp 24 + .ra: .cfa -4 + ^ r4: .cfa -24 + ^ r5: .cfa -20 + ^ r6: .cfa -16 + ^ r7: .cfa -12 + ^ r8: .cfa -8 + ^
STACK CFI 2e390 .cfa: sp 32 +
STACK CFI INIT 2e46c cc .cfa: sp 0 + .ra: lr
STACK CFI 2e470 .cfa: sp 24 + .ra: .cfa -4 + ^ r4: .cfa -24 + ^ r5: .cfa -20 + ^ r6: .cfa -16 + ^ r7: .cfa -12 + ^ r8: .cfa -8 + ^
STACK CFI 2e47c .cfa: sp 32 +
STACK CFI INIT 2e538 134 .cfa: sp 0 + .ra: lr
STACK CFI 2e53c .cfa: sp 36 + .ra: .cfa -4 + ^ r10: .cfa -12 + ^ r11: .cfa -8 + ^ r4: .cfa -36 + ^ r5: .cfa -32 + ^ r6: .cfa -28 + ^ r7: .cfa -24 + ^ r8: .cfa -20 + ^ r9: .cfa -16 + ^
STACK CFI 2e540 .cfa: sp 56 +
STACK CFI INIT 2e66c 68 .cfa: sp 0 + .ra: lr
STACK CFI 2e674 .cfa: sp 4 + r4: .cfa -4 + ^
STACK CFI INIT 2e6d4 2c .cfa: sp 0 + .ra: lr
STACK CFI 2e6f0 .cfa: sp 8 +
STACK CFI INIT 2e700 40 .cfa: sp 0 + .ra: lr
STACK CFI 2e704 .cfa: sp 16 + .ra: .cfa -4 + ^ r4: .cfa -16 + ^ r5: .cfa -12 + ^ r6: .cfa -8 + ^
STACK CFI 2e70c .cfa: sp 32 +
STACK CFI INIT 2e740 20 .cfa: sp 0 + .ra: lr
STACK CFI 2e754 .cfa: sp 8 +
STACK CFI INIT 2e760 50 .cfa: sp 0 + .ra: lr
STACK CFI 2e764 .cfa: sp 16 + .ra: .cfa -4 + ^ r4: .cfa -16 + ^ r5: .cfa -12 + ^ r6: .cfa -8 + ^
STACK CFI INIT 2e7b0 9c .cfa: sp 0 + .ra: lr
STACK CFI 2e7b4 .cfa: sp 32 + .ra: .cfa -4 + ^ r10: .cfa -12 + ^ r11: .cfa -8 + ^ r4: .cfa -32 + ^ r5: .cfa -28 + ^ r7: .cfa -24 + ^ r8: .cfa -20 + ^ r9: .cfa -16 + ^
STACK CFI INIT 2e84c 8c .cfa: sp 0 + .ra: lr
STACK CFI 2e850 .cfa: sp 24 + .ra: .cfa -4 + ^ r4: .cfa -24 + ^ r5: .cfa -20 + ^ r7: .cfa -16 + ^ r8: .cfa -12 + ^ r9: .cfa -8 + ^
STACK CFI INIT 2e8d8 74 .cfa: sp 0 + .ra: lr
STACK CFI 2e8dc .cfa: sp 24 + .ra: .cfa -4 + ^ r3: .cfa -24 + ^ r4: .cfa -20 + ^ r5: .cfa -16 + ^ r6: .cfa -12 + ^ r7: .cfa -8 + ^
STACK CFI INIT 2e94c 78 .cfa: sp 0 + .ra: lr
STACK CFI 2e950 .cfa: sp 24 + .ra: .cfa -4 + ^ r3: .cfa -24 + ^ r4: .cfa -20 + ^ r5: .cfa -16 + ^ r6: .cfa -12 + ^ r7: .cfa -8 + ^
STACK CFI INIT 2e9c4 b0 .cfa: sp 0 + .ra: lr
STACK CFI 2e9c8 .cfa: sp 32 + r10: .cfa -8 + ^ r11: .cfa -4 + ^ r4: .cfa -32 + ^ r5: .cfa -28 + ^ r6: .cfa -24 + ^ r7: .cfa -20 + ^ r8: .cfa -16 + ^ r9: .cfa -12 + ^
STACK CFI INIT 2ea74 98 .cfa: sp 0 + .ra: lr
STACK CFI 2ea78 .cfa: sp 8 + .ra: .cfa -4 + ^ r4: .cfa -8 + ^
STACK CFI INIT 2eb0c 118 .cfa: sp 0 + .ra: lr
STACK CFI 2eb10 .cfa: sp 28 + .ra: .cfa -4 + ^ r4: .cfa -28 + ^ r5: .cfa -24 + ^ r6: .cfa -20 + ^ r7: .cfa -16 + ^ r8: .cfa -12 + ^ r9: .cfa -8 + ^
STACK CFI 2eb18 .cfa: sp 40 +
STACK CFI INIT 2ec24 b0 .cfa: sp 0 + .ra: lr
STACK CFI 2ec28 .cfa: sp 16 + .ra: .cfa -4 + ^ r3: .cfa -16 + ^ r4: .cfa -12 + ^ r5: .cfa -8 + ^
STACK CFI INIT 2ecd4 9c .cfa: sp 0 + .ra: lr
STACK CFI 2ecdc .cfa: sp 20 + .ra: .cfa -4 + ^ r4: .cfa -20 + ^ r5: .cfa -16 + ^ r6: .cfa -12 + ^ r7: .cfa -8 + ^
STACK CFI 2ece4 .cfa: sp 32 +
STACK CFI INIT 2ed70 128 .cfa: sp 0 + .ra: lr
STACK CFI 2ed74 .cfa: sp 20 + .ra: .cfa -4 + ^ r4: .cfa -20 + ^ r5: .cfa -16 + ^ r6: .cfa -12 + ^ r7: .cfa -8 + ^
STACK CFI 2ed80 .cfa: sp 40 +
STACK CFI INIT 2ee98 8 .cfa: sp 0 + .ra: lr
STACK CFI INIT 2eea0 54 .cfa: sp 0 + .ra: lr
STACK CFI INIT 2eef4 78 .cfa: sp 0 + .ra: lr
STACK CFI 2eefc .cfa: sp 16 + .ra: .cfa -4 + ^ r4: .cfa -16 + ^ r5: .cfa -12 + ^ r6: .cfa -8 + ^
STACK CFI INIT 2ef6c 100 .cfa: sp 0 + .ra: lr
STACK CFI 2ef70 .cfa: sp 36 + .ra: .cfa -4 + ^ r10: .cfa -12 + ^ r11: .cfa -8 + ^ r4: .cfa -36 + ^ r5: .cfa -32 + ^ r6: .cfa -28 + ^ r7: .cfa -24 + ^ r8: .cfa -20 + ^ r9: .cfa -16 + ^
STACK CFI 2ef7c .cfa: sp 64 +
STACK CFI INIT 2f06c 50 .cfa: sp 0 + .ra: lr
STACK CFI 2f070 .cfa: sp 24 + .ra: .cfa -4 + ^ r4: .cfa -24 + ^ r5: .cfa -20 + ^ r6: .cfa -16 + ^ r7: .cfa -12 + ^ r8: .cfa -8 + ^
STACK CFI 2f074 .cfa: sp 48 +
STACK CFI INIT 2f0bc 134 .cfa: sp 0 + .ra: lr
STACK CFI 2f0c4 .cfa: sp 20 + .ra: .cfa -4 + ^ r4: .cfa -20 + ^ r5: .cfa -16 + ^ r6: .cfa -12 + ^ r7: .cfa -8 + ^
STACK CFI 2f0c8 .cfa: sp 1044 +
STACK CFI 2f0cc .cfa: sp 1048 +
STACK CFI INIT 2f1f0 174 .cfa: sp 0 + .ra: lr
STACK CFI 2f1f4 .cfa: sp 24 + .ra: .cfa -4 + ^ r4: .cfa -24 + ^ r5: .cfa -20 + ^ r6: .cfa -16 + ^ r7: .cfa -12 + ^ r8: .cfa -8 + ^
STACK CFI 2f200 .cfa: sp 1720 +
STACK CFI 2f204 .cfa: sp 1728 +
STACK CFI INIT 306fc 18 .cfa: sp 0 + .ra: lr
STACK CFI INIT 30714 3c .cfa: sp 0 + .ra: lr
STACK CFI 30718 .cfa: sp 4 + .ra: .cfa -4 + ^
STACK CFI 3071c .cfa: sp 16 +
STACK CFI INIT 30750 18 .cfa: sp 0 + .ra: lr
STACK CFI INIT 30768 18 .cfa: sp 0 + .ra: lr
STACK CFI INIT 30780 14 .cfa: sp 0 + .ra: lr
STACK CFI 30788 .cfa: sp 8 + .ra: .cfa -4 + ^ r3: .cfa -8 + ^
STACK CFI INIT 30794 14 .cfa: sp 0 + .ra: lr
STACK CFI 3079c .cfa: sp 8 + .ra: .cfa -4 + ^ r3: .cfa -8 + ^
STACK CFI INIT 307a8 14 .cfa: sp 0 + .ra: lr
STACK CFI 307ac .cfa: sp 8 + .ra: .cfa -4 + ^ r3: .cfa -8 + ^
STACK CFI INIT 307bc 8 .cfa: sp 0 + .ra: lr
STACK CFI INIT 307c4 14 .cfa: sp 0 + .ra: lr
STACK CFI 307c8 .cfa: sp 8 + .ra: .cfa -4 + ^ r3: .cfa -8 + ^
STACK CFI INIT 307d8 14 .cfa: sp 0 + .ra: lr
STACK CFI 307dc .cfa: sp 8 + .ra: .cfa -4 + ^ r3: .cfa -8 + ^
STACK CFI INIT 307ec 14 .cfa: sp 0 + .ra: lr
STACK CFI 307f0 .cfa: sp 8 + .ra: .cfa -4 + ^ r3: .cfa -8 + ^
STACK CFI INIT 30800 14 .cfa: sp 0 + .ra: lr
STACK CFI 30804 .cfa: sp 8 + .ra: .cfa -4 + ^ r3: .cfa -8 + ^
STACK CFI INIT 30814 14 .cfa: sp 0 + .ra: lr
STACK CFI 30818 .cfa: sp 8 + .ra: .cfa -4 + ^ r3: .cfa -8 + ^
STACK CFI INIT 30828 28 .cfa: sp 0 + .ra: lr
STACK CFI 30830 .cfa: sp 8 + .ra: .cfa -4 + ^ r4: .cfa -8 + ^
STACK CFI INIT 30850 44 .cfa: sp 0 + .ra: lr
STACK CFI 30854 .cfa: sp 8 + .ra: .cfa -4 + ^ r4: .cfa -8 + ^
STACK CFI INIT 30894 28 .cfa: sp 0 + .ra: lr
STACK CFI INIT 308bc 28 .cfa: sp 0 + .ra: lr
STACK CFI INIT 308e4 20 .cfa: sp 0 + .ra: lr
STACK CFI 308ec .cfa: sp 8 + .ra: .cfa -4 + ^ r3: .cfa -8 + ^
STACK CFI INIT 30904 10 .cfa: sp 0 + .ra: lr
STACK CFI INIT 30914 58 .cfa: sp 0 + .ra: lr
STACK CFI 30918 .cfa: sp 16 + .ra: .cfa -4 + ^ r4: .cfa -16 + ^ r5: .cfa -12 + ^ r6: .cfa -8 + ^
STACK CFI INIT 3096c 20 .cfa: sp 0 + .ra: lr
STACK CFI 30974 .cfa: sp 8 + .ra: .cfa -4 + ^ r3: .cfa -8 + ^
STACK CFI INIT 3098c 38 .cfa: sp 0 + .ra: lr
STACK CFI 30994 .cfa: sp 8 + .ra: .cfa -4 + ^ r4: .cfa -8 + ^
STACK CFI INIT 309c4 18 .cfa: sp 0 + .ra: lr
STACK CFI INIT 309dc 24 .cfa: sp 0 + .ra: lr
STACK CFI INIT 30a00 18 .cfa: sp 0 + .ra: lr
STACK CFI INIT 1a2a0 30 .cfa: sp 0 + .ra: lr
STACK CFI 1a2a8 .cfa: sp 8 + .ra: .cfa -4 + ^ r4: .cfa -8 + ^
STACK CFI INIT 1a2d0 38 .cfa: sp 0 + .ra: lr
STACK CFI 1a2d8 .cfa: sp 8 + .ra: .cfa -4 + ^ r4: .cfa -8 + ^
STACK CFI INIT 30a18 5c .cfa: sp 0 + .ra: lr
STACK CFI 30a1c .cfa: sp 8 + .ra: .cfa -4 + ^ r4: .cfa -8 + ^
STACK CFI INIT 30a74 64 .cfa: sp 0 + .ra: lr
STACK CFI 30a78 .cfa: sp 8 + .ra: .cfa -4 + ^ r4: .cfa -8 + ^
STACK CFI INIT 2f364 ec .cfa: sp 0 + .ra: lr
STACK CFI 2f36c .cfa: sp 12 + r4: .cfa -12 + ^ r5: .cfa -8 + ^ r6: .cfa -4 + ^
STACK CFI INIT 2f450 c1c .cfa: sp 0 + .ra: lr
STACK CFI 2f454 .cfa: sp 36 + .ra: .cfa -4 + ^ r10: .cfa -12 + ^ r11: .cfa -8 + ^ r4: .cfa -36 + ^ r5: .cfa -32 + ^ r6: .cfa -28 + ^ r7: .cfa -24 + ^ r8: .cfa -20 + ^ r9: .cfa -16 + ^
STACK CFI 2f458 .cfa: sp 274468 +
STACK CFI 2f45c .cfa: sp 277492 +
STACK CFI 2f464 .cfa: sp 277496 +
STACK CFI INIT 3006c 638 .cfa: sp 0 + .ra: lr
STACK CFI 30074 .cfa: sp 24 + .ra: .cfa -4 + ^ r4: .cfa -24 + ^ r5: .cfa -20 + ^ r6: .cfa -16 + ^ r7: .cfa -12 + ^ r8: .cfa -8 + ^
STACK CFI 3007c .cfa: sp 32 + s16: .cfa -32 + ^
STACK CFI 30080 .cfa: sp 213024 +
STACK CFI 30084 .cfa: sp 213616 +
STACK CFI INIT 306a4 58 .cfa: sp 0 + .ra: lr
STACK CFI 306ac .cfa: sp 8 + r4: .cfa -8 + ^ r5: .cfa -4 + ^
STACK CFI INIT 30ad8 1a4 .cfa: sp 0 + .ra: lr
STACK CFI 30adc .cfa: sp 32 + .ra: .cfa -4 + ^ r10: .cfa -8 + ^ r4: .cfa -32 + ^ r5: .cfa -28 + ^ r6: .cfa -24 + ^ r7: .cfa -20 + ^ r8: .cfa -16 + ^ r9: .cfa -12 + ^
STACK CFI 30ae8 .cfa: sp 40 +
STACK CFI INIT 30c7c 720 .cfa: sp 0 + .ra: lr
STACK CFI 30c80 .cfa: sp 36 + .ra: .cfa -4 + ^ r10: .cfa -12 + ^ r11: .cfa -8 + ^ r4: .cfa -36 + ^ r5: .cfa -32 + ^ r6: .cfa -28 + ^ r7: .cfa -24 + ^ r8: .cfa -20 + ^ r9: .cfa -16 + ^
STACK CFI 30c84 .cfa: sp 152 +
STACK CFI INIT 3139c 6c .cfa: sp 0 + .ra: lr
STACK CFI 313a0 .cfa: sp 16 + .ra: .cfa -4 + ^ r3: .cfa -16 + ^ r4: .cfa -12 + ^ r5: .cfa -8 + ^
STACK CFI INIT 31408 5e8 .cfa: sp 0 + .ra: lr
STACK CFI 3140c .cfa: sp 36 + .ra: .cfa -4 + ^ r10: .cfa -12 + ^ r11: .cfa -8 + ^ r4: .cfa -36 + ^ r5: .cfa -32 + ^ r6: .cfa -28 + ^ r7: .cfa -24 + ^ r8: .cfa -20 + ^ r9: .cfa -16 + ^
STACK CFI 31418 .cfa: sp 872 +
STACK CFI INIT 319f0 5d4 .cfa: sp 0 + .ra: lr
STACK CFI 319f4 .cfa: sp 36 + .ra: .cfa -4 + ^ r10: .cfa -12 + ^ r11: .cfa -8 + ^ r4: .cfa -36 + ^ r5: .cfa -32 + ^ r6: .cfa -28 + ^ r7: .cfa -24 + ^ r8: .cfa -20 + ^ r9: .cfa -16 + ^
STACK CFI 319fc .cfa: sp 84 + s20: .cfa -84 + ^ s22: .cfa -76 + ^ s24: .cfa -68 + ^ s26: .cfa -60 + ^ s28: .cfa -52 + ^ s30: .cfa -44 + ^
STACK CFI 31a00 .cfa: sp 880 +
STACK CFI INIT 1a2a0 30 .cfa: sp 0 + .ra: lr
STACK CFI 1a2a8 .cfa: sp 8 + .ra: .cfa -4 + ^ r4: .cfa -8 + ^
STACK CFI INIT 1a2d0 38 .cfa: sp 0 + .ra: lr
STACK CFI 1a2d8 .cfa: sp 8 + .ra: .cfa -4 + ^ r4: .cfa -8 + ^
STACK CFI INIT 31fc8 80c .cfa: sp 0 + .ra: lr
STACK CFI 31fd0 .cfa: sp 36 + .ra: .cfa -4 + ^ r10: .cfa -12 + ^ r11: .cfa -8 + ^ r4: .cfa -36 + ^ r5: .cfa -32 + ^ r6: .cfa -28 + ^ r7: .cfa -24 + ^ r8: .cfa -20 + ^ r9: .cfa -16 + ^
STACK CFI 31fe0 .cfa: sp 68 + s16: .cfa -68 + ^ s18: .cfa -60 + ^ s20: .cfa -52 + ^ s22: .cfa -44 + ^
STACK CFI 31fe4 .cfa: sp 1828 +
STACK CFI 31fe8 .cfa: sp 1832 +
STACK CFI INIT 327d4 104 .cfa: sp 0 + .ra: lr
STACK CFI 327d8 .cfa: sp 40 + .ra: .cfa -4 + ^ r10: .cfa -12 + ^ r11: .cfa -8 + ^ r3: .cfa -40 + ^ r4: .cfa -36 + ^ r5: .cfa -32 + ^ r6: .cfa -28 + ^ r7: .cfa -24 + ^ r8: .cfa -20 + ^ r9: .cfa -16 + ^
STACK CFI INIT 328d8 6e8 .cfa: sp 0 + .ra: lr
STACK CFI 328e0 .cfa: sp 36 + .ra: .cfa -4 + ^ r10: .cfa -12 + ^ r11: .cfa -8 + ^ r4: .cfa -36 + ^ r5: .cfa -32 + ^ r6: .cfa -28 + ^ r7: .cfa -24 + ^ r8: .cfa -20 + ^ r9: .cfa -16 + ^
STACK CFI 328e4 .cfa: sp 176 +
STACK CFI INIT 32fc0 820 .cfa: sp 0 + .ra: lr
STACK CFI 32fc8 .cfa: sp 36 + .ra: .cfa -4 + ^ r10: .cfa -12 + ^ r11: .cfa -8 + ^ r4: .cfa -36 + ^ r5: .cfa -32 + ^ r6: .cfa -28 + ^ r7: .cfa -24 + ^ r8: .cfa -20 + ^ r9: .cfa -16 + ^
STACK CFI 32fcc .cfa: sp 1796 +
STACK CFI 32fd0 .cfa: sp 1800 +
STACK CFI INIT 337e0 804 .cfa: sp 0 + .ra: lr
STACK CFI 337e8 .cfa: sp 36 + .ra: .cfa -4 + ^ r10: .cfa -12 + ^ r11: .cfa -8 + ^ r4: .cfa -36 + ^ r5: .cfa -32 + ^ r6: .cfa -28 + ^ r7: .cfa -24 + ^ r8: .cfa -20 + ^ r9: .cfa -16 + ^
STACK CFI 337ec .cfa: sp 1780 +
STACK CFI 337f0 .cfa: sp 1792 +
STACK CFI INIT 33fe4 2a4 .cfa: sp 0 + .ra: lr
STACK CFI 33fec .cfa: sp 20 + .ra: .cfa -4 + ^ r4: .cfa -20 + ^ r5: .cfa -16 + ^ r6: .cfa -12 + ^ r7: .cfa -8 + ^
STACK CFI 33ff4 .cfa: sp 40 +
STACK CFI INIT 34288 7b0 .cfa: sp 0 + .ra: lr
STACK CFI 34290 .cfa: sp 36 + .ra: .cfa -4 + ^ r10: .cfa -12 + ^ r11: .cfa -8 + ^ r4: .cfa -36 + ^ r5: .cfa -32 + ^ r6: .cfa -28 + ^ r7: .cfa -24 + ^ r8: .cfa -20 + ^ r9: .cfa -16 + ^
STACK CFI 34298 .cfa: sp 76 + s16: .cfa -76 + ^ s18: .cfa -68 + ^ s20: .cfa -60 + ^ s22: .cfa -52 + ^ s24: .cfa -44 + ^
STACK CFI 3429c .cfa: sp 1884 +
STACK CFI 342a4 .cfa: sp 1896 +
STACK CFI INIT 34a38 264 .cfa: sp 0 + .ra: lr
STACK CFI 34a40 .cfa: sp 36 + .ra: .cfa -4 + ^ r10: .cfa -12 + ^ r11: .cfa -8 + ^ r4: .cfa -36 + ^ r5: .cfa -32 + ^ r6: .cfa -28 + ^ r7: .cfa -24 + ^ r8: .cfa -20 + ^ r9: .cfa -16 + ^
STACK CFI 34a44 .cfa: sp 1764 +
STACK CFI 34a48 .cfa: sp 1768 +
STACK CFI INIT 34c9c 68 .cfa: sp 0 + .ra: lr
STACK CFI 34ca4 .cfa: sp 8 + .ra: .cfa -4 + ^ r4: .cfa -8 + ^
STACK CFI INIT 34d04 b30 .cfa: sp 0 + .ra: lr
STACK CFI 34d08 .cfa: sp 36 + .ra: .cfa -4 + ^ r10: .cfa -12 + ^ r11: .cfa -8 + ^ r4: .cfa -36 + ^ r5: .cfa -32 + ^ r6: .cfa -28 + ^ r7: .cfa -24 + ^ r8: .cfa -20 + ^ r9: .cfa -16 + ^
STACK CFI 34d10 .cfa: sp 76 + s16: .cfa -76 + ^ s18: .cfa -68 + ^ s20: .cfa -60 + ^ s22: .cfa -52 + ^ s24: .cfa -44 + ^
STACK CFI 34d14 .cfa: sp 1900 +
STACK CFI 34d18 .cfa: sp 1904 +
STACK CFI INIT 35834 1238 .cfa: sp 0 + .ra: lr
STACK CFI 35838 .cfa: sp 36 + .ra: .cfa -4 + ^ r10: .cfa -12 + ^ r11: .cfa -8 + ^ r4: .cfa -36 + ^ r5: .cfa -32 + ^ r6: .cfa -28 + ^ r7: .cfa -24 + ^ r8: .cfa -20 + ^ r9: .cfa -16 + ^
STACK CFI 35844 .cfa: sp 76 + s16: .cfa -76 + ^ s18: .cfa -68 + ^ s20: .cfa -60 + ^ s22: .cfa -52 + ^ s24: .cfa -44 + ^
STACK CFI 35848 .cfa: sp 1900 +
STACK CFI 3584c .cfa: sp 1904 +
STACK CFI INIT 36a6c 554 .cfa: sp 0 + .ra: lr
STACK CFI 36a70 .cfa: sp 36 + .ra: .cfa -4 + ^ r10: .cfa -12 + ^ r11: .cfa -8 + ^ r4: .cfa -36 + ^ r5: .cfa -32 + ^ r6: .cfa -28 + ^ r7: .cfa -24 + ^ r8: .cfa -20 + ^ r9: .cfa -16 + ^
STACK CFI 36a7c .cfa: sp 52 + s16: .cfa -52 + ^ s18: .cfa -44 + ^
STACK CFI 36a80 .cfa: sp 1796 +
STACK CFI 36a84 .cfa: sp 1808 +
STACK CFI INIT 36fc0 520 .cfa: sp 0 + .ra: lr
STACK CFI 36fc4 .cfa: sp 36 + .ra: .cfa -4 + ^ r10: .cfa -12 + ^ r11: .cfa -8 + ^ r4: .cfa -36 + ^ r5: .cfa -32 + ^ r6: .cfa -28 + ^ r7: .cfa -24 + ^ r8: .cfa -20 + ^ r9: .cfa -16 + ^
STACK CFI 36fd0 .cfa: sp 1780 +
STACK CFI 36fd4 .cfa: sp 1792 +
STACK CFI INIT 374e0 508 .cfa: sp 0 + .ra: lr
STACK CFI 374e4 .cfa: sp 32 + .ra: .cfa -4 + ^ r10: .cfa -8 + ^ r4: .cfa -32 + ^ r5: .cfa -28 + ^ r6: .cfa -24 + ^ r7: .cfa -20 + ^ r8: .cfa -16 + ^ r9: .cfa -12 + ^
STACK CFI 374f0 .cfa: sp 1744 +
STACK CFI INIT 379e8 158c .cfa: sp 0 + .ra: lr
STACK CFI 379f0 .cfa: sp 36 + .ra: .cfa -4 + ^ r10: .cfa -12 + ^ r11: .cfa -8 + ^ r4: .cfa -36 + ^ r5: .cfa -32 + ^ r6: .cfa -28 + ^ r7: .cfa -24 + ^ r8: .cfa -20 + ^ r9: .cfa -16 + ^
STACK CFI 379f8 .cfa: sp 100 + s16: .cfa -100 + ^ s18: .cfa -92 + ^ s20: .cfa -84 + ^ s22: .cfa -76 + ^ s24: .cfa -68 + ^ s26: .cfa -60 + ^ s28: .cfa -52 + ^ s30: .cfa -44 + ^
STACK CFI 379fc .cfa: sp 1956 +
STACK CFI 37a04 .cfa: sp 1968 +
STACK CFI INIT 38f74 464 .cfa: sp 0 + .ra: lr
STACK CFI 38f78 .cfa: sp 36 + .ra: .cfa -4 + ^ r10: .cfa -12 + ^ r11: .cfa -8 + ^ r4: .cfa -36 + ^ r5: .cfa -32 + ^ r6: .cfa -28 + ^ r7: .cfa -24 + ^ r8: .cfa -20 + ^ r9: .cfa -16 + ^
STACK CFI 38f84 .cfa: sp 1764 +
STACK CFI 38f88 .cfa: sp 1768 +
STACK CFI INIT 393d8 2a8 .cfa: sp 0 + .ra: lr
STACK CFI 393dc .cfa: sp 36 + .ra: .cfa -4 + ^ r10: .cfa -12 + ^ r11: .cfa -8 + ^ r4: .cfa -36 + ^ r5: .cfa -32 + ^ r6: .cfa -28 + ^ r7: .cfa -24 + ^ r8: .cfa -20 + ^ r9: .cfa -16 + ^
STACK CFI 393f4 .cfa: sp 68 + s16: .cfa -68 + ^ s18: .cfa -60 + ^ s20: .cfa -52 + ^ s22: .cfa -44 + ^
STACK CFI 393f8 .cfa: sp 1764 +
STACK CFI 393fc .cfa: sp 1776 +
STACK CFI INIT 39680 28 .cfa: sp 0 + .ra: lr
STACK CFI 39684 .cfa: sp 4 + .ra: .cfa -4 + ^
STACK CFI 39688 .cfa: sp 16 +
STACK CFI INIT 396a8 304 .cfa: sp 0 + .ra: lr
STACK CFI 396ac .cfa: sp 36 + .ra: .cfa -4 + ^ r10: .cfa -12 + ^ r11: .cfa -8 + ^ r4: .cfa -36 + ^ r5: .cfa -32 + ^ r6: .cfa -28 + ^ r7: .cfa -24 + ^ r8: .cfa -20 + ^ r9: .cfa -16 + ^
STACK CFI 396b4 .cfa: sp 52 + s16: .cfa -52 + ^ s18: .cfa -44 + ^
STACK CFI 396b8 .cfa: sp 1780 +
STACK CFI 396bc .cfa: sp 1792 +
STACK CFI INIT 399ac 8a0 .cfa: sp 0 + .ra: lr
STACK CFI 399b0 .cfa: sp 36 + .ra: .cfa -4 + ^ r10: .cfa -12 + ^ r11: .cfa -8 + ^ r4: .cfa -36 + ^ r5: .cfa -32 + ^ r6: .cfa -28 + ^ r7: .cfa -24 + ^ r8: .cfa -20 + ^ r9: .cfa -16 + ^
STACK CFI 399b4 .cfa: sp 1828 +
STACK CFI 399bc .cfa: sp 1840 +
STACK CFI INIT 3a24c 94 .cfa: sp 0 + .ra: lr
STACK CFI 3a250 .cfa: sp 12 + .ra: .cfa -4 + ^ r4: .cfa -12 + ^ r5: .cfa -8 + ^
STACK CFI 3a254 .cfa: sp 40 +
STACK CFI INIT 3a2e0 1b0 .cfa: sp 0 + .ra: lr
STACK CFI 3a2e4 .cfa: sp 24 + .ra: .cfa -4 + ^ r4: .cfa -24 + ^ r5: .cfa -20 + ^ r6: .cfa -16 + ^ r7: .cfa -12 + ^ r8: .cfa -8 + ^
STACK CFI 3a2e8 .cfa: sp 1736 +
STACK CFI INIT 3a490 4b0 .cfa: sp 0 + .ra: lr
STACK CFI 3a494 .cfa: sp 36 + .ra: .cfa -4 + ^ r10: .cfa -12 + ^ r11: .cfa -8 + ^ r4: .cfa -36 + ^ r5: .cfa -32 + ^ r6: .cfa -28 + ^ r7: .cfa -24 + ^ r8: .cfa -20 + ^ r9: .cfa -16 + ^
STACK CFI 3a49c .cfa: sp 92 + s16: .cfa -92 + ^ s18: .cfa -84 + ^ s20: .cfa -76 + ^ s22: .cfa -68 + ^ s24: .cfa -60 + ^ s26: .cfa -52 + ^ s28: .cfa -44 + ^
STACK CFI 3a4a0 .cfa: sp 1836 +
STACK CFI 3a4a4 .cfa: sp 1848 +
STACK CFI INIT 3a940 6c0 .cfa: sp 0 + .ra: lr
STACK CFI 3a944 .cfa: sp 36 + .ra: .cfa -4 + ^ r10: .cfa -12 + ^ r11: .cfa -8 + ^ r4: .cfa -36 + ^ r5: .cfa -32 + ^ r6: .cfa -28 + ^ r7: .cfa -24 + ^ r8: .cfa -20 + ^ r9: .cfa -16 + ^
STACK CFI 3a950 .cfa: sp 1812 +
STACK CFI 3a954 .cfa: sp 1816 +
STACK CFI INIT 3b000 1c .cfa: sp 0 + .ra: lr
STACK CFI 3b008 .cfa: sp 8 + .ra: .cfa -4 + ^ r3: .cfa -8 + ^
STACK CFI INIT 3b01c 1c .cfa: sp 0 + .ra: lr
STACK CFI 3b024 .cfa: sp 8 + .ra: .cfa -4 + ^ r3: .cfa -8 + ^
STACK CFI INIT 3b038 8 .cfa: sp 0 + .ra: lr
STACK CFI INIT 3b040 14 .cfa: sp 0 + .ra: lr
STACK CFI 3b044 .cfa: sp 8 + .ra: .cfa -4 + ^ r3: .cfa -8 + ^
STACK CFI INIT 3b054 8 .cfa: sp 0 + .ra: lr
STACK CFI INIT 3b05c 4 .cfa: sp 0 + .ra: lr
STACK CFI INIT 3b060 98 .cfa: sp 0 + .ra: lr
STACK CFI 3b068 .cfa: sp 16 + .ra: .cfa -4 + ^ r4: .cfa -16 + ^ r5: .cfa -12 + ^ r6: .cfa -8 + ^
STACK CFI INIT 3b0f8 7c .cfa: sp 0 + .ra: lr
STACK CFI 3b100 .cfa: sp 16 + .ra: .cfa -4 + ^ r4: .cfa -16 + ^ r5: .cfa -12 + ^ r6: .cfa -8 + ^
STACK CFI INIT 3b174 58 .cfa: sp 0 + .ra: lr
STACK CFI 3b17c .cfa: sp 16 + .ra: .cfa -4 + ^ r4: .cfa -16 + ^ r5: .cfa -12 + ^ r6: .cfa -8 + ^
STACK CFI INIT 3b1cc 90 .cfa: sp 0 + .ra: lr
STACK CFI 3b1e4 .cfa: sp 16 + .ra: .cfa -4 + ^ r4: .cfa -16 + ^ r5: .cfa -12 + ^ r6: .cfa -8 + ^
STACK CFI 3b1e8 .cfa: sp 40 +
STACK CFI INIT 3b25c 14 .cfa: sp 0 + .ra: lr
STACK CFI INIT 3b270 4 .cfa: sp 0 + .ra: lr
STACK CFI INIT 3b274 4 .cfa: sp 0 + .ra: lr
STACK CFI INIT 3b278 4 .cfa: sp 0 + .ra: lr
STACK CFI INIT 3b27c 4 .cfa: sp 0 + .ra: lr
STACK CFI INIT 3b280 4 .cfa: sp 0 + .ra: lr
STACK CFI INIT 3b284 4 .cfa: sp 0 + .ra: lr
STACK CFI INIT 306fc 18 .cfa: sp 0 + .ra: lr
STACK CFI INIT 30714 3c .cfa: sp 0 + .ra: lr
STACK CFI 30718 .cfa: sp 4 + .ra: .cfa -4 + ^
STACK CFI 3071c .cfa: sp 16 +
STACK CFI INIT 30750 18 .cfa: sp 0 + .ra: lr
STACK CFI INIT 30768 18 .cfa: sp 0 + .ra: lr
STACK CFI INIT 30828 28 .cfa: sp 0 + .ra: lr
STACK CFI 30830 .cfa: sp 8 + .ra: .cfa -4 + ^ r4: .cfa -8 + ^
STACK CFI INIT 30850 44 .cfa: sp 0 + .ra: lr
STACK CFI 30854 .cfa: sp 8 + .ra: .cfa -4 + ^ r4: .cfa -8 + ^
STACK CFI INIT 30894 28 .cfa: sp 0 + .ra: lr
STACK CFI INIT 308bc 28 .cfa: sp 0 + .ra: lr
STACK CFI INIT 308e4 20 .cfa: sp 0 + .ra: lr
STACK CFI 308ec .cfa: sp 8 + .ra: .cfa -4 + ^ r3: .cfa -8 + ^
STACK CFI INIT 30904 10 .cfa: sp 0 + .ra: lr
STACK CFI INIT 30914 58 .cfa: sp 0 + .ra: lr
STACK CFI 30918 .cfa: sp 16 + .ra: .cfa -4 + ^ r4: .cfa -16 + ^ r5: .cfa -12 + ^ r6: .cfa -8 + ^
STACK CFI INIT 3096c 20 .cfa: sp 0 + .ra: lr
STACK CFI 30974 .cfa: sp 8 + .ra: .cfa -4 + ^ r3: .cfa -8 + ^
STACK CFI INIT 3098c 38 .cfa: sp 0 + .ra: lr
STACK CFI 30994 .cfa: sp 8 + .ra: .cfa -4 + ^ r4: .cfa -8 + ^
STACK CFI INIT 309c4 18 .cfa: sp 0 + .ra: lr
STACK CFI INIT 309dc 24 .cfa: sp 0 + .ra: lr
STACK CFI INIT 30a00 18 .cfa: sp 0 + .ra: lr
STACK CFI INIT 1a2a0 30 .cfa: sp 0 + .ra: lr
STACK CFI 1a2a8 .cfa: sp 8 + .ra: .cfa -4 + ^ r4: .cfa -8 + ^
STACK CFI INIT 1a2d0 38 .cfa: sp 0 + .ra: lr
STACK CFI 1a2d8 .cfa: sp 8 + .ra: .cfa -4 + ^ r4: .cfa -8 + ^
STACK CFI INIT 3e040 30 .cfa: sp 0 + .ra: lr
STACK CFI 3e048 .cfa: sp 8 + .ra: .cfa -4 + ^ r4: .cfa -8 + ^
STACK CFI INIT 3e070 38 .cfa: sp 0 + .ra: lr
STACK CFI 3e078 .cfa: sp 8 + .ra: .cfa -4 + ^ r4: .cfa -8 + ^
STACK CFI INIT 3e0a8 30 .cfa: sp 0 + .ra: lr
STACK CFI 3e0b0 .cfa: sp 8 + .ra: .cfa -4 + ^ r4: .cfa -8 + ^
STACK CFI INIT 3e0d8 38 .cfa: sp 0 + .ra: lr
STACK CFI 3e0e0 .cfa: sp 8 + .ra: .cfa -4 + ^ r4: .cfa -8 + ^
STACK CFI INIT 3e110 30 .cfa: sp 0 + .ra: lr
STACK CFI 3e118 .cfa: sp 8 + .ra: .cfa -4 + ^ r4: .cfa -8 + ^
STACK CFI INIT 3e140 38 .cfa: sp 0 + .ra: lr
STACK CFI 3e148 .cfa: sp 8 + .ra: .cfa -4 + ^ r4: .cfa -8 + ^
STACK CFI INIT 3e178 30 .cfa: sp 0 + .ra: lr
STACK CFI 3e180 .cfa: sp 8 + .ra: .cfa -4 + ^ r4: .cfa -8 + ^
STACK CFI INIT 3e1a8 38 .cfa: sp 0 + .ra: lr
STACK CFI 3e1b0 .cfa: sp 8 + .ra: .cfa -4 + ^ r4: .cfa -8 + ^
STACK CFI INIT 3e1e0 30 .cfa: sp 0 + .ra: lr
STACK CFI 3e1e8 .cfa: sp 8 + .ra: .cfa -4 + ^ r4: .cfa -8 + ^
STACK CFI INIT 3e210 38 .cfa: sp 0 + .ra: lr
STACK CFI 3e218 .cfa: sp 8 + .ra: .cfa -4 + ^ r4: .cfa -8 + ^
STACK CFI INIT 2c4ec 30 .cfa: sp 0 + .ra: lr
STACK CFI 2c4f4 .cfa: sp 8 + .ra: .cfa -4 + ^ r4: .cfa -8 + ^
STACK CFI INIT 2c51c 38 .cfa: sp 0 + .ra: lr
STACK CFI 2c524 .cfa: sp 8 + .ra: .cfa -4 + ^ r4: .cfa -8 + ^
STACK CFI INIT 3e248 30 .cfa: sp 0 + .ra: lr
STACK CFI 3e250 .cfa: sp 8 + .ra: .cfa -4 + ^ r4: .cfa -8 + ^
STACK CFI INIT 3e278 38 .cfa: sp 0 + .ra: lr
STACK CFI 3e280 .cfa: sp 8 + .ra: .cfa -4 + ^ r4: .cfa -8 + ^
STACK CFI INIT 3e2b0 30 .cfa: sp 0 + .ra: lr
STACK CFI 3e2b8 .cfa: sp 8 + .ra: .cfa -4 + ^ r4: .cfa -8 + ^
STACK CFI INIT 3e2e0 38 .cfa: sp 0 + .ra: lr
STACK CFI 3e2e8 .cfa: sp 8 + .ra: .cfa -4 + ^ r4: .cfa -8 + ^
STACK CFI INIT 3e318 30 .cfa: sp 0 + .ra: lr
STACK CFI 3e320 .cfa: sp 8 + .ra: .cfa -4 + ^ r4: .cfa -8 + ^
STACK CFI INIT 3e348 38 .cfa: sp 0 + .ra: lr
STACK CFI 3e350 .cfa: sp 8 + .ra: .cfa -4 + ^ r4: .cfa -8 + ^
STACK CFI INIT 30a18 5c .cfa: sp 0 + .ra: lr
STACK CFI 30a1c .cfa: sp 8 + .ra: .cfa -4 + ^ r4: .cfa -8 + ^
STACK CFI INIT 30a74 64 .cfa: sp 0 + .ra: lr
STACK CFI 30a78 .cfa: sp 8 + .ra: .cfa -4 + ^ r4: .cfa -8 + ^
STACK CFI INIT 3b288 88 .cfa: sp 0 + .ra: lr
STACK CFI 3b290 .cfa: sp 12 + r4: .cfa -12 + ^ r5: .cfa -8 + ^ r6: .cfa -4 + ^
STACK CFI INIT 3b310 348 .cfa: sp 0 + .ra: lr
STACK CFI 3b314 .cfa: sp 28 + .ra: .cfa -4 + ^ r4: .cfa -28 + ^ r5: .cfa -24 + ^ r6: .cfa -20 + ^ r7: .cfa -16 + ^ r8: .cfa -12 + ^ r9: .cfa -8 + ^
STACK CFI 3b318 .cfa: sp 65308 +
STACK CFI 3b31c .cfa: sp 65400 +
STACK CFI INIT 3b658 8c .cfa: sp 0 + .ra: lr
STACK CFI 3b65c .cfa: sp 16 + .ra: .cfa -4 + ^ r4: .cfa -16 + ^ r5: .cfa -12 + ^ r6: .cfa -8 + ^
STACK CFI 3b660 .cfa: sp 40 +
STACK CFI INIT 3b6e4 ec .cfa: sp 0 + .ra: lr
STACK CFI 3b6e8 .cfa: sp 28 + .ra: .cfa -4 + ^ r4: .cfa -28 + ^ r5: .cfa -24 + ^ r6: .cfa -20 + ^ r7: .cfa -16 + ^ r8: .cfa -12 + ^ r9: .cfa -8 + ^
STACK CFI 3b6ec .cfa: sp 40 +
STACK CFI INIT 3b7d0 d0 .cfa: sp 0 + .ra: lr
STACK CFI 3b7d4 .cfa: sp 24 + .ra: .cfa -4 + ^ r4: .cfa -24 + ^ r5: .cfa -20 + ^ r6: .cfa -16 + ^ r7: .cfa -12 + ^ r8: .cfa -8 + ^
STACK CFI 3b7e0 .cfa: sp 48 +
STACK CFI INIT 3b8a0 958 .cfa: sp 0 + .ra: lr
STACK CFI 3b8a4 .cfa: sp 20 + .ra: .cfa -4 + ^ r4: .cfa -20 + ^ r5: .cfa -16 + ^ r6: .cfa -12 + ^ r7: .cfa -8 + ^
STACK CFI 3b8b0 .cfa: sp 65300 +
STACK CFI 3b8b4 .cfa: sp 65384 +
STACK CFI INIT 3c1f8 80 .cfa: sp 0 + .ra: lr
STACK CFI 3c1fc .cfa: sp 12 + .ra: .cfa -4 + ^ r4: .cfa -12 + ^ r5: .cfa -8 + ^
STACK CFI 3c208 .cfa: sp 32 +
STACK CFI INIT 3c278 54 .cfa: sp 0 + .ra: lr
STACK CFI 3c27c .cfa: sp 16 + .ra: .cfa -4 + ^ r4: .cfa -16 + ^ r5: .cfa -12 + ^ r6: .cfa -8 + ^
STACK CFI INIT 3c2cc d0 .cfa: sp 0 + .ra: lr
STACK CFI 3c2d0 .cfa: sp 24 + .ra: .cfa -4 + ^ r4: .cfa -24 + ^ r5: .cfa -20 + ^ r6: .cfa -16 + ^ r7: .cfa -12 + ^ r8: .cfa -8 + ^
STACK CFI 3c2dc .cfa: sp 48 +
STACK CFI INIT 3c39c 168c .cfa: sp 0 + .ra: lr
STACK CFI 3c3a0 .cfa: sp 36 + .ra: .cfa -4 + ^ r10: .cfa -12 + ^ r11: .cfa -8 + ^ r4: .cfa -36 + ^ r5: .cfa -32 + ^ r6: .cfa -28 + ^ r7: .cfa -24 + ^ r8: .cfa -20 + ^ r9: .cfa -16 + ^
STACK CFI 3c3ac .cfa: sp 65316 +
STACK CFI 3c3b0 .cfa: sp 65432 +
STACK CFI INIT 3da28 64 .cfa: sp 0 + .ra: lr
STACK CFI 3da30 .cfa: sp 16 + .ra: .cfa -4 + ^ r4: .cfa -16 + ^ r5: .cfa -12 + ^ r6: .cfa -8 + ^
STACK CFI 3da38 .cfa: sp 32 +
STACK CFI INIT 3da8c 90 .cfa: sp 0 + .ra: lr
STACK CFI 3da94 .cfa: sp 24 + .ra: .cfa -4 + ^ r4: .cfa -24 + ^ r5: .cfa -20 + ^ r6: .cfa -16 + ^ r7: .cfa -12 + ^ r8: .cfa -8 + ^
STACK CFI 3da98 .cfa: sp 72 +
STACK CFI INIT 3db1c 98 .cfa: sp 0 + .ra: lr
STACK CFI 3db20 .cfa: sp 16 + .ra: .cfa -4 + ^ r4: .cfa -16 + ^ r5: .cfa -12 + ^ r6: .cfa -8 + ^
STACK CFI 3db28 .cfa: sp 32 +
STACK CFI INIT 3dbb4 94 .cfa: sp 0 + .ra: lr
STACK CFI 3dbc0 .cfa: sp 16 + .ra: .cfa -4 + ^ r4: .cfa -16 + ^ r5: .cfa -12 + ^ r6: .cfa -8 + ^
STACK CFI 3dbc8 .cfa: sp 40 +
STACK CFI INIT 3dc48 60 .cfa: sp 0 + .ra: lr
STACK CFI 3dc4c .cfa: sp 24 + .ra: .cfa -4 + ^ r4: .cfa -24 + ^ r5: .cfa -20 + ^ r6: .cfa -16 + ^ r7: .cfa -12 + ^ r8: .cfa -8 + ^
STACK CFI 3dc50 .cfa: sp 56 +
STACK CFI INIT 3dca8 8c .cfa: sp 0 + .ra: lr
STACK CFI 3dcac .cfa: sp 16 + .ra: .cfa -4 + ^ r4: .cfa -16 + ^ r5: .cfa -12 + ^ r6: .cfa -8 + ^
STACK CFI 3dcb0 .cfa: sp 40 +
STACK CFI INIT 3dd34 150 .cfa: sp 0 + .ra: lr
STACK CFI 3dd38 .cfa: sp 36 + .ra: .cfa -4 + ^ r10: .cfa -12 + ^ r11: .cfa -8 + ^ r4: .cfa -36 + ^ r5: .cfa -32 + ^ r6: .cfa -28 + ^ r7: .cfa -24 + ^ r8: .cfa -20 + ^ r9: .cfa -16 + ^
STACK CFI 3dd40 .cfa: sp 304 +
STACK CFI INIT 3de84 64 .cfa: sp 0 + .ra: lr
STACK CFI 3de8c .cfa: sp 16 + .ra: .cfa -4 + ^ r4: .cfa -16 + ^ r5: .cfa -12 + ^ r6: .cfa -8 + ^
STACK CFI 3de94 .cfa: sp 32 +
STACK CFI INIT 3dee8 64 .cfa: sp 0 + .ra: lr
STACK CFI 3def0 .cfa: sp 16 + .ra: .cfa -4 + ^ r4: .cfa -16 + ^ r5: .cfa -12 + ^ r6: .cfa -8 + ^
STACK CFI 3def8 .cfa: sp 32 +
STACK CFI INIT 3df4c f4 .cfa: sp 0 + .ra: lr
STACK CFI 3df50 .cfa: sp 24 + .ra: .cfa -4 + ^ r4: .cfa -24 + ^ r5: .cfa -20 + ^ r6: .cfa -16 + ^ r7: .cfa -12 + ^ r8: .cfa -8 + ^
STACK CFI 3df5c .cfa: sp 2952 +
STACK CFI INIT 1a2a0 30 .cfa: sp 0 + .ra: lr
STACK CFI 1a2a8 .cfa: sp 8 + .ra: .cfa -4 + ^ r4: .cfa -8 + ^
STACK CFI INIT 1a2d0 38 .cfa: sp 0 + .ra: lr
STACK CFI 1a2d8 .cfa: sp 8 + .ra: .cfa -4 + ^ r4: .cfa -8 + ^
STACK CFI INIT 3e318 30 .cfa: sp 0 + .ra: lr
STACK CFI 3e320 .cfa: sp 8 + .ra: .cfa -4 + ^ r4: .cfa -8 + ^
STACK CFI INIT 3e348 38 .cfa: sp 0 + .ra: lr
STACK CFI 3e350 .cfa: sp 8 + .ra: .cfa -4 + ^ r4: .cfa -8 + ^
STACK CFI INIT 3e380 2c4 .cfa: sp 0 + .ra: lr
STACK CFI 3e38c .cfa: sp 24 + .ra: .cfa -4 + ^ r4: .cfa -24 + ^ r5: .cfa -20 + ^ r6: .cfa -16 + ^ r7: .cfa -12 + ^ r8: .cfa -8 + ^
STACK CFI 3e390 .cfa: sp 48 +
STACK CFI INIT 3e644 78 .cfa: sp 0 + .ra: lr
STACK CFI 3e648 .cfa: sp 16 + .ra: .cfa -4 + ^ r3: .cfa -16 + ^ r4: .cfa -12 + ^ r5: .cfa -8 + ^
STACK CFI INIT 3e6bc 278 .cfa: sp 0 + .ra: lr
STACK CFI 3e6c8 .cfa: sp 32 + .ra: .cfa -4 + ^ r3: .cfa -32 + ^ r4: .cfa -28 + ^ r5: .cfa -24 + ^ r6: .cfa -20 + ^ r7: .cfa -16 + ^ r8: .cfa -12 + ^ r9: .cfa -8 + ^
STACK CFI INIT 3e934 dc .cfa: sp 0 + .ra: lr
STACK CFI 3e93c .cfa: sp 16 + .ra: .cfa -4 + ^ r4: .cfa -16 + ^ r5: .cfa -12 + ^ r6: .cfa -8 + ^
STACK CFI INIT 3ea10 ac .cfa: sp 0 + .ra: lr
STACK CFI 3ea14 .cfa: sp 24 + .ra: .cfa -4 + ^ r3: .cfa -24 + ^ r4: .cfa -20 + ^ r5: .cfa -16 + ^ r6: .cfa -12 + ^ r7: .cfa -8 + ^
STACK CFI INIT 3eabc 5c .cfa: sp 0 + .ra: lr
STACK CFI 3eac4 .cfa: sp 8 + .ra: .cfa -4 + ^ r4: .cfa -8 + ^
STACK CFI INIT 3eb18 38 .cfa: sp 0 + .ra: lr
STACK CFI 3eb1c .cfa: sp 16 + .ra: .cfa -4 + ^ r3: .cfa -16 + ^ r4: .cfa -12 + ^ r5: .cfa -8 + ^
STACK CFI INIT 3eb50 130 .cfa: sp 0 + .ra: lr
STACK CFI 3eb54 .cfa: sp 32 + .ra: .cfa -4 + ^ r3: .cfa -32 + ^ r4: .cfa -28 + ^ r5: .cfa -24 + ^ r6: .cfa -20 + ^ r7: .cfa -16 + ^ r8: .cfa -12 + ^ r9: .cfa -8 + ^
STACK CFI INIT 3ec80 c0 .cfa: sp 0 + .ra: lr
STACK CFI 3ec84 .cfa: sp 16 + .ra: .cfa -4 + ^ r3: .cfa -16 + ^ r4: .cfa -12 + ^ r5: .cfa -8 + ^
STACK CFI INIT 3ed40 80 .cfa: sp 0 + .ra: lr
STACK CFI INIT 3edc0 5c .cfa: sp 0 + .ra: lr
STACK CFI 3edc4 .cfa: sp 16 + .ra: .cfa -4 + ^ r4: .cfa -16 + ^ r5: .cfa -12 + ^ r6: .cfa -8 + ^
STACK CFI INIT 3ee1c 38 .cfa: sp 0 + .ra: lr
STACK CFI 3ee24 .cfa: sp 4 + r4: .cfa -4 + ^
STACK CFI INIT 3ee54 1bc .cfa: sp 0 + .ra: lr
STACK CFI 3ee58 .cfa: sp 16 + .ra: .cfa -4 + ^ r4: .cfa -16 + ^ r5: .cfa -12 + ^ r6: .cfa -8 + ^
STACK CFI INIT 3f010 120 .cfa: sp 0 + .ra: lr
STACK CFI 3f014 .cfa: sp 36 + .ra: .cfa -4 + ^ r10: .cfa -12 + ^ r11: .cfa -8 + ^ r4: .cfa -36 + ^ r5: .cfa -32 + ^ r6: .cfa -28 + ^ r7: .cfa -24 + ^ r8: .cfa -20 + ^ r9: .cfa -16 + ^
STACK CFI 3f020 .cfa: sp 48 +
STACK CFI INIT 3f130 1cc .cfa: sp 0 + .ra: lr
STACK CFI 3f134 .cfa: sp 40 + .ra: .cfa -4 + ^ r10: .cfa -12 + ^ r11: .cfa -8 + ^ r3: .cfa -40 + ^ r4: .cfa -36 + ^ r5: .cfa -32 + ^ r6: .cfa -28 + ^ r7: .cfa -24 + ^ r8: .cfa -20 + ^ r9: .cfa -16 + ^
STACK CFI INIT 3f2fc bc .cfa: sp 0 + .ra: lr
STACK CFI 3f304 .cfa: sp 40 + .ra: .cfa -4 + ^ r10: .cfa -12 + ^ r11: .cfa -8 + ^ r3: .cfa -40 + ^ r4: .cfa -36 + ^ r5: .cfa -32 + ^ r6: .cfa -28 + ^ r7: .cfa -24 + ^ r8: .cfa -20 + ^ r9: .cfa -16 + ^
STACK CFI INIT 3f3b8 284 .cfa: sp 0 + .ra: lr
STACK CFI 3f3c0 .cfa: sp 36 + .ra: .cfa -4 + ^ r10: .cfa -12 + ^ r11: .cfa -8 + ^ r4: .cfa -36 + ^ r5: .cfa -32 + ^ r6: .cfa -28 + ^ r7: .cfa -24 + ^ r8: .cfa -20 + ^ r9: .cfa -16 + ^
STACK CFI 3f3c8 .cfa: sp 48 +
STACK CFI INIT 3f63c 49c .cfa: sp 0 + .ra: lr
STACK CFI 3f640 .cfa: sp 36 + .ra: .cfa -4 + ^ r10: .cfa -12 + ^ r11: .cfa -8 + ^ r4: .cfa -36 + ^ r5: .cfa -32 + ^ r6: .cfa -28 + ^ r7: .cfa -24 + ^ r8: .cfa -20 + ^ r9: .cfa -16 + ^
STACK CFI 3f644 .cfa: sp 80 +
STACK CFI INIT 3fad8 a4 .cfa: sp 0 + .ra: lr
STACK CFI 3fadc .cfa: sp 16 + .ra: .cfa -4 + ^ r4: .cfa -16 + ^ r5: .cfa -12 + ^ r6: .cfa -8 + ^
STACK CFI 3fae8 .cfa: sp 24 +
STACK CFI INIT 3fb7c 300 .cfa: sp 0 + .ra: lr
STACK CFI 3fb80 .cfa: sp 36 + .ra: .cfa -4 + ^ r10: .cfa -12 + ^ r11: .cfa -8 + ^ r4: .cfa -36 + ^ r5: .cfa -32 + ^ r6: .cfa -28 + ^ r7: .cfa -24 + ^ r8: .cfa -20 + ^ r9: .cfa -16 + ^
STACK CFI 3fb90 .cfa: sp 880 +
STACK CFI INIT 3fe7c c .cfa: sp 0 + .ra: lr
STACK CFI INIT 3fe88 c .cfa: sp 0 + .ra: lr
STACK CFI INIT 3fe94 18 .cfa: sp 0 + .ra: lr
STACK CFI INIT 3feac 1c .cfa: sp 0 + .ra: lr
STACK CFI INIT 3fec8 12c .cfa: sp 0 + .ra: lr
STACK CFI 3fecc .cfa: sp 36 + .ra: .cfa -4 + ^ r10: .cfa -12 + ^ r11: .cfa -8 + ^ r4: .cfa -36 + ^ r5: .cfa -32 + ^ r6: .cfa -28 + ^ r7: .cfa -24 + ^ r8: .cfa -20 + ^ r9: .cfa -16 + ^
STACK CFI 3fed4 .cfa: sp 56 +
STACK CFI INIT 3fff4 d00 .cfa: sp 0 + .ra: lr
STACK CFI 3fff8 .cfa: sp 36 + .ra: .cfa -4 + ^ r10: .cfa -12 + ^ r11: .cfa -8 + ^ r4: .cfa -36 + ^ r5: .cfa -32 + ^ r6: .cfa -28 + ^ r7: .cfa -24 + ^ r8: .cfa -20 + ^ r9: .cfa -16 + ^
STACK CFI 40004 .cfa: sp 67620 +
STACK CFI 40008 .cfa: sp 67840 +
STACK CFI INIT 40cf4 5c .cfa: sp 0 + .ra: lr
STACK CFI 40cf8 .cfa: sp 4 + r4: .cfa -4 + ^
STACK CFI INIT 40d50 64 .cfa: sp 0 + .ra: lr
STACK CFI 40d58 .cfa: sp 16 + .ra: .cfa -4 + ^ r3: .cfa -16 + ^ r4: .cfa -12 + ^ r5: .cfa -8 + ^
STACK CFI INIT 40db4 a0 .cfa: sp 0 + .ra: lr
STACK CFI 40db8 .cfa: sp 16 + .ra: .cfa -4 + ^ r3: .cfa -16 + ^ r4: .cfa -12 + ^ r5: .cfa -8 + ^
STACK CFI INIT 40e54 5c .cfa: sp 0 + .ra: lr
STACK CFI 40e58 .cfa: sp 16 + .ra: .cfa -4 + ^ r4: .cfa -16 + ^ r5: .cfa -12 + ^ r6: .cfa -8 + ^
STACK CFI INIT 40eb0 24 .cfa: sp 0 + .ra: lr
STACK CFI INIT 40ed4 10 .cfa: sp 0 + .ra: lr
STACK CFI INIT 40ee4 64 .cfa: sp 0 + .ra: lr
STACK CFI 40ee8 .cfa: sp 16 + .ra: .cfa -4 + ^ r3: .cfa -16 + ^ r4: .cfa -12 + ^ r5: .cfa -8 + ^
STACK CFI INIT 40f48 80 .cfa: sp 0 + .ra: lr
STACK CFI 40f4c .cfa: sp 16 + .ra: .cfa -4 + ^ r3: .cfa -16 + ^ r4: .cfa -12 + ^ r5: .cfa -8 + ^
STACK CFI INIT 40fc8 3c .cfa: sp 0 + .ra: lr
STACK CFI 40fcc .cfa: sp 16 + .ra: .cfa -4 + ^ r3: .cfa -16 + ^ r4: .cfa -12 + ^ r5: .cfa -8 + ^
STACK CFI INIT 41004 104 .cfa: sp 0 + .ra: lr
STACK CFI 41008 .cfa: sp 32 + .ra: .cfa -4 + ^ r3: .cfa -32 + ^ r4: .cfa -28 + ^ r5: .cfa -24 + ^ r6: .cfa -20 + ^ r7: .cfa -16 + ^ r8: .cfa -12 + ^ r9: .cfa -8 + ^
STACK CFI INIT 41108 160 .cfa: sp 0 + .ra: lr
STACK CFI 4110c .cfa: sp 32 + .ra: .cfa -4 + ^ r10: .cfa -8 + ^ r4: .cfa -32 + ^ r5: .cfa -28 + ^ r6: .cfa -24 + ^ r7: .cfa -20 + ^ r8: .cfa -16 + ^ r9: .cfa -12 + ^
STACK CFI INIT 41268 78 .cfa: sp 0 + .ra: lr
STACK CFI 4126c .cfa: sp 16 + .ra: .cfa -4 + ^ r4: .cfa -16 + ^ r5: .cfa -12 + ^ r6: .cfa -8 + ^
STACK CFI INIT 412e0 94 .cfa: sp 0 + .ra: lr
STACK CFI 412e4 .cfa: sp 8 + .ra: .cfa -4 + ^ r4: .cfa -8 + ^
STACK CFI INIT 41374 38 .cfa: sp 0 + .ra: lr
STACK CFI 41378 .cfa: sp 16 + .ra: .cfa -4 + ^ r3: .cfa -16 + ^ r4: .cfa -12 + ^ r5: .cfa -8 + ^
STACK CFI INIT 413ac 114 .cfa: sp 0 + .ra: lr
STACK CFI 413bc .cfa: sp 16 + .ra: .cfa -4 + ^ r4: .cfa -16 + ^ r5: .cfa -12 + ^ r6: .cfa -8 + ^
STACK CFI 413c4 .cfa: sp 352 +
STACK CFI INIT 414c0 1cc .cfa: sp 0 + .ra: lr
STACK CFI 414c4 .cfa: sp 32 + .ra: .cfa -4 + ^ r3: .cfa -32 + ^ r4: .cfa -28 + ^ r5: .cfa -24 + ^ r6: .cfa -20 + ^ r7: .cfa -16 + ^ r8: .cfa -12 + ^ r9: .cfa -8 + ^
STACK CFI INIT 4168c 42c .cfa: sp 0 + .ra: lr
STACK CFI 41690 .cfa: sp 36 + .ra: .cfa -4 + ^ r10: .cfa -12 + ^ r11: .cfa -8 + ^ r4: .cfa -36 + ^ r5: .cfa -32 + ^ r6: .cfa -28 + ^ r7: .cfa -24 + ^ r8: .cfa -20 + ^ r9: .cfa -16 + ^
STACK CFI 41694 .cfa: sp 65316 +
STACK CFI 41698 .cfa: sp 65416 +
STACK CFI INIT 41ab8 354 .cfa: sp 0 + .ra: lr
STACK CFI 41abc .cfa: sp 36 + .ra: .cfa -4 + ^ r10: .cfa -12 + ^ r11: .cfa -8 + ^ r4: .cfa -36 + ^ r5: .cfa -32 + ^ r6: .cfa -28 + ^ r7: .cfa -24 + ^ r8: .cfa -20 + ^ r9: .cfa -16 + ^
STACK CFI 41ac0 .cfa: sp 65316 +
STACK CFI 41ac4 .cfa: sp 65456 +
STACK CFI INIT 41e0c e0 .cfa: sp 0 + .ra: lr
STACK CFI 41e10 .cfa: sp 20 + .ra: .cfa -4 + ^ r4: .cfa -20 + ^ r5: .cfa -16 + ^ r6: .cfa -12 + ^ r7: .cfa -8 + ^
STACK CFI 41e14 .cfa: sp 32 +
STACK CFI INIT 41ef0 68 .cfa: sp 0 + .ra: lr
STACK CFI 41efc .cfa: sp 4 + .ra: .cfa -4 + ^
STACK CFI 41f00 .cfa: sp 16 +
STACK CFI INIT 41f58 8 .cfa: sp 0 + .ra: lr
STACK CFI INIT 41f60 14 .cfa: sp 0 + .ra: lr
STACK CFI INIT 41f74 20 .cfa: sp 0 + .ra: lr
STACK CFI 41f78 .cfa: sp 8 +
STACK CFI INIT 41f94 10 .cfa: sp 0 + .ra: lr
STACK CFI INIT 41fa4 10 .cfa: sp 0 + .ra: lr
STACK CFI INIT 41fb4 28 .cfa: sp 0 + .ra: lr
STACK CFI 41fb8 .cfa: sp 8 + .ra: .cfa -4 + ^ r4: .cfa -8 + ^
STACK CFI INIT 41fdc 8 .cfa: sp 0 + .ra: lr
STACK CFI INIT 41fe4 8 .cfa: sp 0 + .ra: lr
STACK CFI INIT 41fec 7c .cfa: sp 0 + .ra: lr
STACK CFI 41ff0 .cfa: sp 16 + .ra: .cfa -4 + ^ r3: .cfa -16 + ^ r4: .cfa -12 + ^ r5: .cfa -8 + ^
STACK CFI INIT 42068 78 .cfa: sp 0 + .ra: lr
STACK CFI 4206c .cfa: sp 16 + .ra: .cfa -4 + ^ r3: .cfa -16 + ^ r4: .cfa -12 + ^ r5: .cfa -8 + ^
STACK CFI INIT 420e0 8 .cfa: sp 0 + .ra: lr
STACK CFI INIT 420e8 10 .cfa: sp 0 + .ra: lr
STACK CFI INIT 420f8 8 .cfa: sp 0 + .ra: lr
STACK CFI INIT 42100 8 .cfa: sp 0 + .ra: lr
STACK CFI INIT 42108 8 .cfa: sp 0 + .ra: lr
STACK CFI INIT 42110 8 .cfa: sp 0 + .ra: lr
STACK CFI INIT 42118 8 .cfa: sp 0 + .ra: lr
STACK CFI INIT 42120 8 .cfa: sp 0 + .ra: lr
STACK CFI INIT 42128 8 .cfa: sp 0 + .ra: lr
STACK CFI INIT 42130 3c .cfa: sp 0 + .ra: lr
STACK CFI INIT 4216c 8 .cfa: sp 0 + .ra: lr
STACK CFI INIT 42174 3d0 .cfa: sp 0 + .ra: lr
STACK CFI 4217c .cfa: sp 8 + .ra: .cfa -4 + ^ r4: .cfa -8 + ^
STACK CFI INIT 42544 80 .cfa: sp 0 + .ra: lr
STACK CFI INIT 425c4 80 .cfa: sp 0 + .ra: lr
STACK CFI INIT 42644 30 .cfa: sp 0 + .ra: lr
STACK CFI 42648 .cfa: sp 8 + .ra: .cfa -4 + ^ r4: .cfa -8 + ^
STACK CFI INIT 42674 38 .cfa: sp 0 + .ra: lr
STACK CFI 42678 .cfa: sp 16 + .ra: .cfa -4 + ^ r3: .cfa -16 + ^ r4: .cfa -12 + ^ r5: .cfa -8 + ^
STACK CFI INIT 426ac 8 .cfa: sp 0 + .ra: lr
STACK CFI INIT 426b4 8 .cfa: sp 0 + .ra: lr
STACK CFI INIT 426bc 14 .cfa: sp 0 + .ra: lr
STACK CFI INIT 426d0 c .cfa: sp 0 + .ra: lr
STACK CFI INIT 426dc 1c .cfa: sp 0 + .ra: lr
STACK CFI INIT 426f8 8 .cfa: sp 0 + .ra: lr
STACK CFI INIT 42700 10 .cfa: sp 0 + .ra: lr
STACK CFI INIT 42710 20 .cfa: sp 0 + .ra: lr
STACK CFI INIT 42730 8 .cfa: sp 0 + .ra: lr
STACK CFI INIT 42738 8 .cfa: sp 0 + .ra: lr
STACK CFI INIT 42740 8 .cfa: sp 0 + .ra: lr
STACK CFI INIT 42748 8 .cfa: sp 0 + .ra: lr
STACK CFI INIT 42750 8 .cfa: sp 0 + .ra: lr
STACK CFI INIT 42758 8 .cfa: sp 0 + .ra: lr
STACK CFI INIT 42760 10 .cfa: sp 0 + .ra: lr
STACK CFI INIT 42770 8 .cfa: sp 0 + .ra: lr
STACK CFI INIT 42778 8 .cfa: sp 0 + .ra: lr
STACK CFI INIT 42780 8 .cfa: sp 0 + .ra: lr
STACK CFI INIT 42788 8 .cfa: sp 0 + .ra: lr
STACK CFI INIT 42790 8 .cfa: sp 0 + .ra: lr
STACK CFI INIT 42798 8 .cfa: sp 0 + .ra: lr
STACK CFI INIT 427a0 8 .cfa: sp 0 + .ra: lr
STACK CFI INIT 427a8 8 .cfa: sp 0 + .ra: lr
STACK CFI INIT 427b0 8 .cfa: sp 0 + .ra: lr
STACK CFI INIT 427b8 40 .cfa: sp 0 + .ra: lr
STACK CFI INIT 427f8 24 .cfa: sp 0 + .ra: lr
STACK CFI INIT 4281c 1c .cfa: sp 0 + .ra: lr
STACK CFI INIT 42838 bc .cfa: sp 0 + .ra: lr
STACK CFI 4283c .cfa: sp 16 + .ra: .cfa -4 + ^ r3: .cfa -16 + ^ r4: .cfa -12 + ^ r5: .cfa -8 + ^
STACK CFI INIT 428f4 8 .cfa: sp 0 + .ra: lr
STACK CFI INIT 428fc a8 .cfa: sp 0 + .ra: lr
STACK CFI 42900 .cfa: sp 16 + .ra: .cfa -4 + ^ r4: .cfa -16 + ^ r5: .cfa -12 + ^ r6: .cfa -8 + ^
STACK CFI INIT 429a4 1bc .cfa: sp 0 + .ra: lr
STACK CFI 429ac .cfa: sp 16 + .ra: .cfa -4 + ^ r4: .cfa -16 + ^ r5: .cfa -12 + ^ r6: .cfa -8 + ^
STACK CFI 429b4 .cfa: sp 24 +
STACK CFI INIT 42b60 224 .cfa: sp 0 + .ra: lr
STACK CFI 42b64 .cfa: sp 24 + .ra: .cfa -4 + ^ r4: .cfa -24 + ^ r5: .cfa -20 + ^ r6: .cfa -16 + ^ r7: .cfa -12 + ^ r8: .cfa -8 + ^
STACK CFI 42b6c .cfa: sp 48 +
STACK CFI INIT 42d84 c .cfa: sp 0 + .ra: lr
STACK CFI INIT 42d90 10 .cfa: sp 0 + .ra: lr
STACK CFI INIT 42da0 120 .cfa: sp 0 + .ra: lr
STACK CFI 42da4 .cfa: sp 32 + .ra: .cfa -4 + ^ r10: .cfa -8 + ^ r4: .cfa -32 + ^ r5: .cfa -28 + ^ r6: .cfa -24 + ^ r7: .cfa -20 + ^ r8: .cfa -16 + ^ r9: .cfa -12 + ^
STACK CFI INIT 42ec0 10c4 .cfa: sp 0 + .ra: lr
STACK CFI 42ec4 .cfa: sp 32 + r10: .cfa -8 + ^ r11: .cfa -4 + ^ r4: .cfa -32 + ^ r5: .cfa -28 + ^ r6: .cfa -24 + ^ r7: .cfa -20 + ^ r8: .cfa -16 + ^ r9: .cfa -12 + ^
STACK CFI 42ecc .cfa: sp 96 + s16: .cfa -96 + ^ s18: .cfa -88 + ^ s20: .cfa -80 + ^ s22: .cfa -72 + ^ s24: .cfa -64 + ^ s26: .cfa -56 + ^ s28: .cfa -48 + ^ s30: .cfa -40 + ^
STACK CFI 42ed0 .cfa: sp 144 +
STACK CFI INIT 43f84 f8 .cfa: sp 0 + .ra: lr
STACK CFI 43f88 .cfa: sp 24 + .ra: .cfa -4 + ^ r3: .cfa -24 + ^ r4: .cfa -20 + ^ r5: .cfa -16 + ^ r6: .cfa -12 + ^ r7: .cfa -8 + ^
STACK CFI INIT 4407c dc .cfa: sp 0 + .ra: lr
STACK CFI 44080 .cfa: sp 24 + .ra: .cfa -4 + ^ r4: .cfa -24 + ^ r5: .cfa -20 + ^ r6: .cfa -16 + ^ r7: .cfa -12 + ^ r8: .cfa -8 + ^
STACK CFI INIT 44158 68 .cfa: sp 0 + .ra: lr
STACK CFI 4415c .cfa: sp 16 + r4: .cfa -16 + ^ r5: .cfa -12 + ^ r6: .cfa -8 + ^ r7: .cfa -4 + ^
STACK CFI INIT 441c0 8c .cfa: sp 0 + .ra: lr
STACK CFI 441c4 .cfa: sp 16 + .ra: .cfa -4 + ^ r3: .cfa -16 + ^ r4: .cfa -12 + ^ r5: .cfa -8 + ^
STACK CFI INIT 4424c 8b4 .cfa: sp 0 + .ra: lr
STACK CFI 44250 .cfa: sp 36 + .ra: .cfa -4 + ^ r10: .cfa -12 + ^ r11: .cfa -8 + ^ r4: .cfa -36 + ^ r5: .cfa -32 + ^ r6: .cfa -28 + ^ r7: .cfa -24 + ^ r8: .cfa -20 + ^ r9: .cfa -16 + ^
STACK CFI 4425c .cfa: sp 968 +
STACK CFI INIT 44b00 6e8 .cfa: sp 0 + .ra: lr
STACK CFI 44b04 .cfa: sp 36 + .ra: .cfa -4 + ^ r10: .cfa -12 + ^ r11: .cfa -8 + ^ r4: .cfa -36 + ^ r5: .cfa -32 + ^ r6: .cfa -28 + ^ r7: .cfa -24 + ^ r8: .cfa -20 + ^ r9: .cfa -16 + ^
STACK CFI 44b08 .cfa: sp 248 +
STACK CFI INIT 1a2a0 30 .cfa: sp 0 + .ra: lr
STACK CFI 1a2a8 .cfa: sp 8 + .ra: .cfa -4 + ^ r4: .cfa -8 + ^
STACK CFI INIT 1a2d0 38 .cfa: sp 0 + .ra: lr
STACK CFI 1a2d8 .cfa: sp 8 + .ra: .cfa -4 + ^ r4: .cfa -8 + ^
STACK CFI INIT 451e8 10 .cfa: sp 0 + .ra: lr
STACK CFI INIT 451f8 2c .cfa: sp 0 + .ra: lr
STACK CFI 451fc .cfa: sp 4 + r4: .cfa -4 + ^
STACK CFI INIT 45224 78 .cfa: sp 0 + .ra: lr
STACK CFI 45228 .cfa: sp 16 + .ra: .cfa -4 + ^ r3: .cfa -16 + ^ r4: .cfa -12 + ^ r5: .cfa -8 + ^
STACK CFI INIT 4529c 44 .cfa: sp 0 + .ra: lr
STACK CFI 452a0 .cfa: sp 8 + .ra: .cfa -4 + ^ r4: .cfa -8 + ^
STACK CFI INIT 452e0 30 .cfa: sp 0 + .ra: lr
STACK CFI 452e4 .cfa: sp 8 + .ra: .cfa -4 + ^ r4: .cfa -8 + ^
STACK CFI INIT 45310 40 .cfa: sp 0 + .ra: lr
STACK CFI 45314 .cfa: sp 16 + .ra: .cfa -4 + ^ r4: .cfa -16 + ^ r5: .cfa -12 + ^ r6: .cfa -8 + ^
STACK CFI INIT 45350 64 .cfa: sp 0 + .ra: lr
STACK CFI 45354 .cfa: sp 24 + .ra: .cfa -4 + ^ r3: .cfa -24 + ^ r4: .cfa -20 + ^ r5: .cfa -16 + ^ r6: .cfa -12 + ^ r7: .cfa -8 + ^
STACK CFI INIT 453b4 1dc .cfa: sp 0 + .ra: lr
STACK CFI 453bc .cfa: sp 16 +
STACK CFI 453c0 .cfa: sp 48 + .ra: .cfa -20 + ^ r10: .cfa -24 + ^ r4: .cfa -48 + ^ r5: .cfa -44 + ^ r6: .cfa -40 + ^ r7: .cfa -36 + ^ r8: .cfa -32 + ^ r9: .cfa -28 + ^
STACK CFI INIT 45590 334 .cfa: sp 0 + .ra: lr
STACK CFI 45594 .cfa: sp 16 +
STACK CFI 45598 .cfa: sp 52 + .ra: .cfa -20 + ^ r10: .cfa -28 + ^ r11: .cfa -24 + ^ r4: .cfa -52 + ^ r5: .cfa -48 + ^ r6: .cfa -44 + ^ r7: .cfa -40 + ^ r8: .cfa -36 + ^ r9: .cfa -32 + ^
STACK CFI 455a8 .cfa: sp 92 + s16: .cfa -92 + ^ s18: .cfa -84 + ^ s20: .cfa -76 + ^ s22: .cfa -68 + ^ s24: .cfa -60 + ^
STACK CFI 455ac .cfa: sp 104 +
STACK CFI INIT 458c4 ac .cfa: sp 0 + .ra: lr
STACK CFI 458c8 .cfa: sp 16 + .ra: .cfa -4 + ^ r4: .cfa -16 + ^ r5: .cfa -12 + ^ r6: .cfa -8 + ^
STACK CFI 458d4 .cfa: sp 24 +
STACK CFI INIT 45970 d84 .cfa: sp 0 + .ra: lr
STACK CFI 4597c .cfa: sp 36 + .ra: .cfa -4 + ^ r10: .cfa -12 + ^ r11: .cfa -8 + ^ r4: .cfa -36 + ^ r5: .cfa -32 + ^ r6: .cfa -28 + ^ r7: .cfa -24 + ^ r8: .cfa -20 + ^ r9: .cfa -16 + ^
STACK CFI 45980 .cfa: sp 44 + s16: .cfa -44 + ^
STACK CFI 45984 .cfa: sp 136 +
STACK CFI INIT 466f4 160 .cfa: sp 0 + .ra: lr
STACK CFI 466f8 .cfa: sp 36 + .ra: .cfa -4 + ^ r10: .cfa -12 + ^ r11: .cfa -8 + ^ r4: .cfa -36 + ^ r5: .cfa -32 + ^ r6: .cfa -28 + ^ r7: .cfa -24 + ^ r8: .cfa -20 + ^ r9: .cfa -16 + ^
STACK CFI 466fc .cfa: sp 56 +
STACK CFI INIT 46854 9c .cfa: sp 0 + .ra: lr
STACK CFI 46858 .cfa: sp 24 + .ra: .cfa -4 + ^ r3: .cfa -24 + ^ r4: .cfa -20 + ^ r5: .cfa -16 + ^ r6: .cfa -12 + ^ r7: .cfa -8 + ^
STACK CFI INIT 468f0 158 .cfa: sp 0 + .ra: lr
STACK CFI 468f4 .cfa: sp 28 + .ra: .cfa -4 + ^ r4: .cfa -28 + ^ r5: .cfa -24 + ^ r6: .cfa -20 + ^ r7: .cfa -16 + ^ r8: .cfa -12 + ^ r9: .cfa -8 + ^
STACK CFI 468f8 .cfa: sp 1724 +
STACK CFI 46900 .cfa: sp 1736 +
STACK CFI INIT 46a48 3c .cfa: sp 0 + .ra: lr
STACK CFI 46a50 .cfa: sp 24 + .ra: .cfa -4 + ^ r3: .cfa -24 + ^ r4: .cfa -20 + ^ r5: .cfa -16 + ^ r6: .cfa -12 + ^ r7: .cfa -8 + ^
STACK CFI INIT 46a84 44 .cfa: sp 0 + .ra: lr
STACK CFI 46a8c .cfa: sp 16 + .ra: .cfa -4 + ^ r4: .cfa -16 + ^ r5: .cfa -12 + ^ r6: .cfa -8 + ^
STACK CFI INIT 46ac8 16c .cfa: sp 0 + .ra: lr
STACK CFI 46acc .cfa: sp 24 + r4: .cfa -24 + ^ r5: .cfa -20 + ^ r6: .cfa -16 + ^ r7: .cfa -12 + ^ r8: .cfa -8 + ^ r9: .cfa -4 + ^
STACK CFI INIT 46c34 414 .cfa: sp 0 + .ra: lr
STACK CFI 46c38 .cfa: sp 24 + .ra: .cfa -4 + ^ r3: .cfa -24 + ^ r4: .cfa -20 + ^ r5: .cfa -16 + ^ r6: .cfa -12 + ^ r7: .cfa -8 + ^
STACK CFI INIT 47048 12c .cfa: sp 0 + .ra: lr
STACK CFI 4704c .cfa: sp 32 + .ra: .cfa -4 + ^ r10: .cfa -8 + ^ r4: .cfa -32 + ^ r5: .cfa -28 + ^ r6: .cfa -24 + ^ r7: .cfa -20 + ^ r8: .cfa -16 + ^ r9: .cfa -12 + ^
STACK CFI INIT 47174 58 .cfa: sp 0 + .ra: lr
STACK CFI 47178 .cfa: sp 16 + .ra: .cfa -4 + ^ r4: .cfa -16 + ^ r5: .cfa -12 + ^ r6: .cfa -8 + ^
STACK CFI INIT 471cc 44 .cfa: sp 0 + .ra: lr
STACK CFI 471d4 .cfa: sp 16 + .ra: .cfa -4 + ^ r4: .cfa -16 + ^ r5: .cfa -12 + ^ r6: .cfa -8 + ^
STACK CFI INIT 47210 c4 .cfa: sp 0 + .ra: lr
STACK CFI 47214 .cfa: sp 32 + .ra: .cfa -4 + ^ r3: .cfa -32 + ^ r4: .cfa -28 + ^ r5: .cfa -24 + ^ r6: .cfa -20 + ^ r7: .cfa -16 + ^ r8: .cfa -12 + ^ r9: .cfa -8 + ^
STACK CFI INIT 472d4 414 .cfa: sp 0 + .ra: lr
STACK CFI 472d8 .cfa: sp 36 + .ra: .cfa -4 + ^ r10: .cfa -12 + ^ r11: .cfa -8 + ^ r4: .cfa -36 + ^ r5: .cfa -32 + ^ r6: .cfa -28 + ^ r7: .cfa -24 + ^ r8: .cfa -20 + ^ r9: .cfa -16 + ^
STACK CFI 472e4 .cfa: sp 160 +
STACK CFI INIT 476e8 10 .cfa: sp 0 + .ra: lr
STACK CFI INIT 476f8 c .cfa: sp 0 + .ra: lr
STACK CFI INIT 47704 c .cfa: sp 0 + .ra: lr
STACK CFI INIT 47710 54 .cfa: sp 0 + .ra: lr
STACK CFI 47724 .cfa: sp 8 + .ra: .cfa -4 + ^ r3: .cfa -8 + ^
STACK CFI INIT 47764 54 .cfa: sp 0 + .ra: lr
STACK CFI 47774 .cfa: sp 8 + .ra: .cfa -4 + ^ r3: .cfa -8 + ^
STACK CFI INIT 477b8 1c .cfa: sp 0 + .ra: lr
STACK CFI 477bc .cfa: sp 8 + .ra: .cfa -4 + ^ r4: .cfa -8 + ^
STACK CFI INIT 477d4 3c .cfa: sp 0 + .ra: lr
STACK CFI 477d8 .cfa: sp 24 + .ra: .cfa -4 + ^ r4: .cfa -24 + ^ r5: .cfa -20 + ^ r6: .cfa -16 + ^ r7: .cfa -12 + ^ r8: .cfa -8 + ^
STACK CFI INIT 47810 38 .cfa: sp 0 + .ra: lr
STACK CFI 47814 .cfa: sp 16 + .ra: .cfa -4 + ^ r4: .cfa -16 + ^ r5: .cfa -12 + ^ r6: .cfa -8 + ^
STACK CFI INIT 47848 24 .cfa: sp 0 + .ra: lr
STACK CFI INIT 4786c d4 .cfa: sp 0 + .ra: lr
STACK CFI 47870 .cfa: sp 20 + .ra: .cfa -4 + ^ r4: .cfa -20 + ^ r5: .cfa -16 + ^ r6: .cfa -12 + ^ r7: .cfa -8 + ^
STACK CFI 47874 .cfa: sp 48 +
STACK CFI INIT 47940 40 .cfa: sp 0 + .ra: lr
STACK CFI 47958 .cfa: sp 8 + .ra: .cfa -4 + ^ r4: .cfa -8 + ^
STACK CFI INIT 47980 14 .cfa: sp 0 + .ra: lr
STACK CFI INIT 47994 14 .cfa: sp 0 + .ra: lr
STACK CFI INIT 479a8 68 .cfa: sp 0 + .ra: lr
STACK CFI 479ac .cfa: sp 16 + .ra: .cfa -4 + ^ r3: .cfa -16 + ^ r4: .cfa -12 + ^ r5: .cfa -8 + ^
STACK CFI INIT 47a10 294 .cfa: sp 0 + .ra: lr
STACK CFI 47a14 .cfa: sp 32 + .ra: .cfa -4 + ^ r10: .cfa -8 + ^ r4: .cfa -32 + ^ r5: .cfa -28 + ^ r6: .cfa -24 + ^ r7: .cfa -20 + ^ r8: .cfa -16 + ^ r9: .cfa -12 + ^
STACK CFI 47a20 .cfa: sp 64 +
STACK CFI INIT 47ca4 78 .cfa: sp 0 + .ra: lr
STACK CFI 47ca8 .cfa: sp 16 + .ra: .cfa -4 + ^ r4: .cfa -16 + ^ r5: .cfa -12 + ^ r6: .cfa -8 + ^
STACK CFI INIT 47d1c 174 .cfa: sp 0 + .ra: lr
STACK CFI 47d20 .cfa: sp 32 + .ra: .cfa -4 + ^ r10: .cfa -8 + ^ r4: .cfa -32 + ^ r5: .cfa -28 + ^ r6: .cfa -24 + ^ r7: .cfa -20 + ^ r8: .cfa -16 + ^ r9: .cfa -12 + ^
STACK CFI INIT 306fc 18 .cfa: sp 0 + .ra: lr
STACK CFI INIT 30714 3c .cfa: sp 0 + .ra: lr
STACK CFI 30718 .cfa: sp 4 + .ra: .cfa -4 + ^
STACK CFI 3071c .cfa: sp 16 +
STACK CFI INIT 47e90 50 .cfa: sp 0 + .ra: lr
STACK CFI INIT 47ee0 14 .cfa: sp 0 + .ra: lr
STACK CFI INIT 47ef4 14 .cfa: sp 0 + .ra: lr
STACK CFI INIT 47f08 10 .cfa: sp 0 + .ra: lr
STACK CFI INIT 47f18 2c .cfa: sp 0 + .ra: lr
STACK CFI INIT 47f44 2c .cfa: sp 0 + .ra: lr
STACK CFI INIT 47f70 34 .cfa: sp 0 + .ra: lr
STACK CFI 47f78 .cfa: sp 8 + .ra: .cfa -4 + ^ r4: .cfa -8 + ^
STACK CFI INIT 47fa4 70 .cfa: sp 0 + .ra: lr
STACK CFI 47fac .cfa: sp 24 + .ra: .cfa -4 + ^ r4: .cfa -24 + ^ r5: .cfa -20 + ^ r6: .cfa -16 + ^ r7: .cfa -12 + ^ r8: .cfa -8 + ^
STACK CFI INIT 48014 8 .cfa: sp 0 + .ra: lr
STACK CFI INIT 30828 28 .cfa: sp 0 + .ra: lr
STACK CFI 30830 .cfa: sp 8 + .ra: .cfa -4 + ^ r4: .cfa -8 + ^
STACK CFI INIT 4801c 38 .cfa: sp 0 + .ra: lr
STACK CFI 48020 .cfa: sp 8 + .ra: .cfa -4 + ^ r4: .cfa -8 + ^
STACK CFI INIT 48054 3c .cfa: sp 0 + .ra: lr
STACK CFI 4805c .cfa: sp 8 + .ra: .cfa -4 + ^ r4: .cfa -8 + ^
STACK CFI INIT 48090 1c .cfa: sp 0 + .ra: lr
STACK CFI 48094 .cfa: sp 8 + .ra: .cfa -4 + ^ r4: .cfa -8 + ^
STACK CFI INIT 480ac 94 .cfa: sp 0 + .ra: lr
STACK CFI 480b4 .cfa: sp 24 + .ra: .cfa -4 + ^ r4: .cfa -24 + ^ r5: .cfa -20 + ^ r6: .cfa -16 + ^ r7: .cfa -12 + ^ r8: .cfa -8 + ^
STACK CFI INIT 48140 40 .cfa: sp 0 + .ra: lr
STACK CFI 48148 .cfa: sp 8 + r4: .cfa -8 + ^ r5: .cfa -4 + ^
STACK CFI INIT 48180 48 .cfa: sp 0 + .ra: lr
STACK CFI 48188 .cfa: sp 8 + .ra: .cfa -4 + ^ r4: .cfa -8 + ^
STACK CFI INIT 481c8 14 .cfa: sp 0 + .ra: lr
STACK CFI INIT 481dc 8c .cfa: sp 0 + .ra: lr
STACK CFI 481e4 .cfa: sp 16 + .ra: .cfa -4 + ^ r4: .cfa -16 + ^ r5: .cfa -12 + ^ r6: .cfa -8 + ^
STACK CFI INIT 48268 90 .cfa: sp 0 + .ra: lr
STACK CFI 48270 .cfa: sp 24 + .ra: .cfa -4 + ^ r3: .cfa -24 + ^ r4: .cfa -20 + ^ r5: .cfa -16 + ^ r6: .cfa -12 + ^ r7: .cfa -8 + ^
STACK CFI INIT 482f8 6c .cfa: sp 0 + .ra: lr
STACK CFI 48300 .cfa: sp 16 + .ra: .cfa -4 + ^ r3: .cfa -16 + ^ r4: .cfa -12 + ^ r5: .cfa -8 + ^
STACK CFI INIT 48364 14 .cfa: sp 0 + .ra: lr
STACK CFI 48368 .cfa: sp 8 + .ra: .cfa -4 + ^ r3: .cfa -8 + ^
STACK CFI INIT 48378 2ec .cfa: sp 0 + .ra: lr
STACK CFI 4837c .cfa: sp 32 + .ra: .cfa -4 + ^ r10: .cfa -8 + ^ r4: .cfa -32 + ^ r5: .cfa -28 + ^ r6: .cfa -24 + ^ r7: .cfa -20 + ^ r8: .cfa -16 + ^ r9: .cfa -12 + ^
STACK CFI 48380 .cfa: sp 88 +
STACK CFI INIT 48664 208 .cfa: sp 0 + .ra: lr
STACK CFI 48670 .cfa: sp 24 + .ra: .cfa -4 + ^ r4: .cfa -24 + ^ r5: .cfa -20 + ^ r6: .cfa -16 + ^ r7: .cfa -12 + ^ r8: .cfa -8 + ^
STACK CFI INIT 4886c e44 .cfa: sp 0 + .ra: lr
STACK CFI 48870 .cfa: sp 36 + .ra: .cfa -4 + ^ r10: .cfa -12 + ^ r11: .cfa -8 + ^ r4: .cfa -36 + ^ r5: .cfa -32 + ^ r6: .cfa -28 + ^ r7: .cfa -24 + ^ r8: .cfa -20 + ^ r9: .cfa -16 + ^
STACK CFI 4887c .cfa: sp 168 +
STACK CFI INIT 496b0 6c .cfa: sp 0 + .ra: lr
STACK CFI 496b4 .cfa: sp 16 + .ra: .cfa -4 + ^ r3: .cfa -16 + ^ r4: .cfa -12 + ^ r5: .cfa -8 + ^
STACK CFI INIT 4971c 48 .cfa: sp 0 + .ra: lr
STACK CFI 49720 .cfa: sp 16 + .ra: .cfa -4 + ^ r4: .cfa -16 + ^ r5: .cfa -12 + ^ r6: .cfa -8 + ^
STACK CFI INIT 49764 10 .cfa: sp 0 + .ra: lr
STACK CFI INIT 49774 20 .cfa: sp 0 + .ra: lr
STACK CFI INIT 49794 3c .cfa: sp 0 + .ra: lr
STACK CFI INIT 497d0 4 .cfa: sp 0 + .ra: lr
STACK CFI INIT 497d4 12c .cfa: sp 0 + .ra: lr
STACK CFI 497dc .cfa: sp 16 + .ra: .cfa -4 + ^ r4: .cfa -16 + ^ r5: .cfa -12 + ^ r6: .cfa -8 + ^
STACK CFI INIT 49900 b3c .cfa: sp 0 + .ra: lr
STACK CFI 49904 .cfa: sp 36 + .ra: .cfa -4 + ^ r10: .cfa -12 + ^ r11: .cfa -8 + ^ r4: .cfa -36 + ^ r5: .cfa -32 + ^ r6: .cfa -28 + ^ r7: .cfa -24 + ^ r8: .cfa -20 + ^ r9: .cfa -16 + ^
STACK CFI 4990c .cfa: sp 44 + s16: .cfa -44 + ^
STACK CFI 49910 .cfa: sp 96 +
STACK CFI INIT 4a43c 244 .cfa: sp 0 + .ra: lr
STACK CFI 4a440 .cfa: sp 36 + .ra: .cfa -4 + ^ r10: .cfa -12 + ^ r11: .cfa -8 + ^ r4: .cfa -36 + ^ r5: .cfa -32 + ^ r6: .cfa -28 + ^ r7: .cfa -24 + ^ r8: .cfa -20 + ^ r9: .cfa -16 + ^
STACK CFI 4a450 .cfa: sp 64 +
STACK CFI INIT 4a680 c4 .cfa: sp 0 + .ra: lr
STACK CFI 4a68c .cfa: sp 28 + .ra: .cfa -4 + ^ r4: .cfa -28 + ^ r5: .cfa -24 + ^ r6: .cfa -20 + ^ r7: .cfa -16 + ^ r8: .cfa -12 + ^ r9: .cfa -8 + ^
STACK CFI 4a694 .cfa: sp 1040 +
STACK CFI INIT 4a744 54 .cfa: sp 0 + .ra: lr
STACK CFI 4a748 .cfa: sp 24 + .ra: .cfa -4 + ^ r4: .cfa -24 + ^ r5: .cfa -20 + ^ r6: .cfa -16 + ^ r7: .cfa -12 + ^ r8: .cfa -8 + ^
STACK CFI INIT 4a798 5b4 .cfa: sp 0 + .ra: lr
STACK CFI 4a7a0 .cfa: sp 36 + .ra: .cfa -4 + ^ r10: .cfa -12 + ^ r11: .cfa -8 + ^ r4: .cfa -36 + ^ r5: .cfa -32 + ^ r6: .cfa -28 + ^ r7: .cfa -24 + ^ r8: .cfa -20 + ^ r9: .cfa -16 + ^
STACK CFI 4a7a8 .cfa: sp 56 +
STACK CFI INIT 4ad4c 12c .cfa: sp 0 + .ra: lr
STACK CFI 4ad54 .cfa: sp 28 + .ra: .cfa -4 + ^ r4: .cfa -28 + ^ r5: .cfa -24 + ^ r6: .cfa -20 + ^ r7: .cfa -16 + ^ r8: .cfa -12 + ^ r9: .cfa -8 + ^
STACK CFI 4ad5c .cfa: sp 56 +
STACK CFI INIT 4ae78 6c .cfa: sp 0 + .ra: lr
STACK CFI 4ae7c .cfa: sp 4 + r4: .cfa -4 + ^
STACK CFI INIT 4aee4 174 .cfa: sp 0 + .ra: lr
STACK CFI 4aee8 .cfa: sp 24 + .ra: .cfa -4 + ^ r3: .cfa -24 + ^ r4: .cfa -20 + ^ r5: .cfa -16 + ^ r6: .cfa -12 + ^ r7: .cfa -8 + ^
STACK CFI INIT 4b058 1640 .cfa: sp 0 + .ra: lr
STACK CFI 4b05c .cfa: sp 36 + .ra: .cfa -4 + ^ r10: .cfa -12 + ^ r11: .cfa -8 + ^ r4: .cfa -36 + ^ r5: .cfa -32 + ^ r6: .cfa -28 + ^ r7: .cfa -24 + ^ r8: .cfa -20 + ^ r9: .cfa -16 + ^
STACK CFI 4b068 .cfa: sp 80 +
STACK CFI INIT 4c698 f90 .cfa: sp 0 + .ra: lr
STACK CFI 4c69c .cfa: sp 36 + .ra: .cfa -4 + ^ r10: .cfa -12 + ^ r11: .cfa -8 + ^ r4: .cfa -36 + ^ r5: .cfa -32 + ^ r6: .cfa -28 + ^ r7: .cfa -24 + ^ r8: .cfa -20 + ^ r9: .cfa -16 + ^
STACK CFI 4c6a8 .cfa: sp 60 + s16: .cfa -60 + ^ s18: .cfa -52 + ^ s20: .cfa -44 + ^
STACK CFI 4c6ac .cfa: sp 6972 +
STACK CFI 4c6b4 .cfa: sp 7008 +
STACK CFI INIT 4d628 520 .cfa: sp 0 + .ra: lr
STACK CFI 4d630 .cfa: sp 36 + .ra: .cfa -4 + ^ r10: .cfa -12 + ^ r11: .cfa -8 + ^ r4: .cfa -36 + ^ r5: .cfa -32 + ^ r6: .cfa -28 + ^ r7: .cfa -24 + ^ r8: .cfa -20 + ^ r9: .cfa -16 + ^
STACK CFI 4d634 .cfa: sp 3140 +
STACK CFI 4d638 .cfa: sp 3144 +
STACK CFI INIT 4db48 3dc .cfa: sp 0 + .ra: lr
STACK CFI 4db50 .cfa: sp 36 + .ra: .cfa -4 + ^ r10: .cfa -12 + ^ r11: .cfa -8 + ^ r4: .cfa -36 + ^ r5: .cfa -32 + ^ r6: .cfa -28 + ^ r7: .cfa -24 + ^ r8: .cfa -20 + ^ r9: .cfa -16 + ^
STACK CFI 4db54 .cfa: sp 2116 +
STACK CFI 4db58 .cfa: sp 2120 +
STACK CFI INIT 4df24 32c .cfa: sp 0 + .ra: lr
STACK CFI 4df28 .cfa: sp 36 + .ra: .cfa -4 + ^ r10: .cfa -12 + ^ r11: .cfa -8 + ^ r4: .cfa -36 + ^ r5: .cfa -32 + ^ r6: .cfa -28 + ^ r7: .cfa -24 + ^ r8: .cfa -20 + ^ r9: .cfa -16 + ^
STACK CFI 4df34 .cfa: sp 52 + s16: .cfa -52 + ^ s18: .cfa -44 + ^
STACK CFI 4df38 .cfa: sp 80 +
STACK CFI INIT 4e250 390 .cfa: sp 0 + .ra: lr
STACK CFI 4e254 .cfa: sp 36 + .ra: .cfa -4 + ^ r10: .cfa -12 + ^ r11: .cfa -8 + ^ r4: .cfa -36 + ^ r5: .cfa -32 + ^ r6: .cfa -28 + ^ r7: .cfa -24 + ^ r8: .cfa -20 + ^ r9: .cfa -16 + ^
STACK CFI 4e260 .cfa: sp 52 + s16: .cfa -52 + ^ s18: .cfa -44 + ^
STACK CFI 4e264 .cfa: sp 80 +
STACK CFI INIT 4e5e0 14c .cfa: sp 0 + .ra: lr
STACK CFI 4e5e4 .cfa: sp 24 + .ra: .cfa -4 + ^ r4: .cfa -24 + ^ r5: .cfa -20 + ^ r6: .cfa -16 + ^ r7: .cfa -12 + ^ r8: .cfa -8 + ^
STACK CFI INIT 4e72c 280 .cfa: sp 0 + .ra: lr
STACK CFI 4e734 .cfa: sp 16 + .ra: .cfa -4 + ^ r4: .cfa -16 + ^ r5: .cfa -12 + ^ r6: .cfa -8 + ^
STACK CFI 4e73c .cfa: sp 24 + s16: .cfa -24 + ^
STACK CFI INIT 4e9ac 178 .cfa: sp 0 + .ra: lr
STACK CFI 4e9b0 .cfa: sp 28 + .ra: .cfa -4 + ^ r4: .cfa -28 + ^ r5: .cfa -24 + ^ r6: .cfa -20 + ^ r7: .cfa -16 + ^ r8: .cfa -12 + ^ r9: .cfa -8 + ^
STACK CFI 4e9b4 .cfa: sp 48 +
STACK CFI INIT 4eb24 70 .cfa: sp 0 + .ra: lr
STACK CFI INIT 4eb94 bc .cfa: sp 0 + .ra: lr
STACK CFI INIT 4ec50 48 .cfa: sp 0 + .ra: lr
STACK CFI INIT 4ec98 5c .cfa: sp 0 + .ra: lr
STACK CFI INIT 4ecf4 98 .cfa: sp 0 + .ra: lr
STACK CFI INIT 4ed8c 90 .cfa: sp 0 + .ra: lr
STACK CFI 4ed94 .cfa: sp 8 + .ra: .cfa -4 + ^ r3: .cfa -8 + ^
STACK CFI 4ed9c .cfa: sp 32 + s16: .cfa -32 + ^ s18: .cfa -24 + ^ s20: .cfa -16 + ^
STACK CFI INIT 4ee1c 40 .cfa: sp 0 + .ra: lr
STACK CFI INIT 4ee5c 7c .cfa: sp 0 + .ra: lr
STACK CFI INIT 4eed8 80 .cfa: sp 0 + .ra: lr
STACK CFI 4eef0 .cfa: sp 8 + .ra: .cfa -4 + ^ r3: .cfa -8 + ^
STACK CFI 4eef4 .cfa: sp 32 + s16: .cfa -32 + ^ s18: .cfa -24 + ^ s20: .cfa -16 + ^
STACK CFI INIT 4ef58 90 .cfa: sp 0 + .ra: lr
STACK CFI INIT 4efe8 4c .cfa: sp 0 + .ra: lr
STACK CFI 4eff8 .cfa: sp 8 + .ra: .cfa -4 + ^ r3: .cfa -8 + ^
STACK CFI 4f000 .cfa: sp 16 + s16: .cfa -16 + ^
STACK CFI INIT 4f034 74 .cfa: sp 0 + .ra: lr
STACK CFI 4f03c .cfa: sp 8 + .ra: .cfa -4 + ^ r3: .cfa -8 + ^
STACK CFI 4f040 .cfa: sp 24 + s16: .cfa -24 + ^ s18: .cfa -16 + ^
STACK CFI INIT 4f0a8 160 .cfa: sp 0 + .ra: lr
STACK CFI INIT 4f208 e8 .cfa: sp 0 + .ra: lr
STACK CFI INIT 4f2f0 f0 .cfa: sp 0 + .ra: lr
STACK CFI INIT 4f3e0 130 .cfa: sp 0 + .ra: lr
STACK CFI 4f3e4 .cfa: sp 8 + .ra: .cfa -4 + ^ r3: .cfa -8 + ^
STACK CFI 4f3e8 .cfa: sp 56 + s16: .cfa -56 + ^ s18: .cfa -48 + ^ s20: .cfa -40 + ^ s22: .cfa -32 + ^ s24: .cfa -24 + ^ s26: .cfa -16 + ^
STACK CFI INIT 4f510 58 .cfa: sp 0 + .ra: lr
STACK CFI 4f514 .cfa: sp 8 + .ra: .cfa -4 + ^ r3: .cfa -8 + ^
STACK CFI 4f518 .cfa: sp 16 + s16: .cfa -16 + ^
STACK CFI INIT 4f568 40 .cfa: sp 0 + .ra: lr
STACK CFI 4f574 .cfa: sp 8 + .ra: .cfa -4 + ^ r3: .cfa -8 + ^
STACK CFI INIT 4f5a8 94 .cfa: sp 0 + .ra: lr
STACK CFI INIT 4f63c f4 .cfa: sp 0 + .ra: lr
STACK CFI INIT 4f730 f8 .cfa: sp 0 + .ra: lr
STACK CFI INIT 4f828 68 .cfa: sp 0 + .ra: lr
STACK CFI 4f834 .cfa: sp 8 + .ra: .cfa -4 + ^ r3: .cfa -8 + ^
STACK CFI 4f838 .cfa: sp 16 + s16: .cfa -16 + ^
STACK CFI INIT 4f890 16fc .cfa: sp 0 + .ra: lr
STACK CFI 4f894 .cfa: sp 36 + .ra: .cfa -4 + ^ r10: .cfa -12 + ^ r11: .cfa -8 + ^ r4: .cfa -36 + ^ r5: .cfa -32 + ^ r6: .cfa -28 + ^ r7: .cfa -24 + ^ r8: .cfa -20 + ^ r9: .cfa -16 + ^
STACK CFI 4f89c .cfa: sp 60 + s16: .cfa -60 + ^ s18: .cfa -52 + ^ s20: .cfa -44 + ^
STACK CFI 4f8a0 .cfa: sp 200 +
STACK CFI INIT 50f8c 82c .cfa: sp 0 + .ra: lr
STACK CFI 50f90 .cfa: sp 36 + .ra: .cfa -4 + ^ r10: .cfa -12 + ^ r11: .cfa -8 + ^ r4: .cfa -36 + ^ r5: .cfa -32 + ^ r6: .cfa -28 + ^ r7: .cfa -24 + ^ r8: .cfa -20 + ^ r9: .cfa -16 + ^
STACK CFI 50f98 .cfa: sp 60 + s16: .cfa -60 + ^ s18: .cfa -52 + ^ s20: .cfa -44 + ^
STACK CFI 50f9c .cfa: sp 232 +
STACK CFI INIT 306fc 18 .cfa: sp 0 + .ra: lr
STACK CFI INIT 30714 3c .cfa: sp 0 + .ra: lr
STACK CFI 30718 .cfa: sp 4 + .ra: .cfa -4 + ^
STACK CFI 3071c .cfa: sp 16 +
STACK CFI INIT 30750 18 .cfa: sp 0 + .ra: lr
STACK CFI INIT 30768 18 .cfa: sp 0 + .ra: lr
STACK CFI INIT 52c60 18 .cfa: sp 0 + .ra: lr
STACK CFI INIT 52c78 60 .cfa: sp 0 + .ra: lr
STACK CFI 52c7c .cfa: sp 16 + .ra: .cfa -4 + ^ r3: .cfa -16 + ^ r4: .cfa -12 + ^ r5: .cfa -8 + ^
STACK CFI INIT 52cd8 18 .cfa: sp 0 + .ra: lr
STACK CFI INIT 52cf0 b4 .cfa: sp 0 + .ra: lr
STACK CFI 52cf4 .cfa: sp 16 + .ra: .cfa -4 + ^ r3: .cfa -16 + ^ r4: .cfa -12 + ^ r5: .cfa -8 + ^
STACK CFI INIT 52da4 4 .cfa: sp 0 + .ra: lr
STACK CFI INIT 30828 28 .cfa: sp 0 + .ra: lr
STACK CFI 30830 .cfa: sp 8 + .ra: .cfa -4 + ^ r4: .cfa -8 + ^
STACK CFI INIT 30850 44 .cfa: sp 0 + .ra: lr
STACK CFI 30854 .cfa: sp 8 + .ra: .cfa -4 + ^ r4: .cfa -8 + ^
STACK CFI INIT 30894 28 .cfa: sp 0 + .ra: lr
STACK CFI INIT 308bc 28 .cfa: sp 0 + .ra: lr
STACK CFI INIT 308e4 20 .cfa: sp 0 + .ra: lr
STACK CFI 308ec .cfa: sp 8 + .ra: .cfa -4 + ^ r3: .cfa -8 + ^
STACK CFI INIT 30904 10 .cfa: sp 0 + .ra: lr
STACK CFI INIT 30914 58 .cfa: sp 0 + .ra: lr
STACK CFI 30918 .cfa: sp 16 + .ra: .cfa -4 + ^ r4: .cfa -16 + ^ r5: .cfa -12 + ^ r6: .cfa -8 + ^
STACK CFI INIT 3096c 20 .cfa: sp 0 + .ra: lr
STACK CFI 30974 .cfa: sp 8 + .ra: .cfa -4 + ^ r3: .cfa -8 + ^
STACK CFI INIT 3098c 38 .cfa: sp 0 + .ra: lr
STACK CFI 30994 .cfa: sp 8 + .ra: .cfa -4 + ^ r4: .cfa -8 + ^
STACK CFI INIT 309c4 18 .cfa: sp 0 + .ra: lr
STACK CFI INIT 309dc 24 .cfa: sp 0 + .ra: lr
STACK CFI INIT 30a00 18 .cfa: sp 0 + .ra: lr
STACK CFI INIT 1a2a0 30 .cfa: sp 0 + .ra: lr
STACK CFI 1a2a8 .cfa: sp 8 + .ra: .cfa -4 + ^ r4: .cfa -8 + ^
STACK CFI INIT 1a2d0 38 .cfa: sp 0 + .ra: lr
STACK CFI 1a2d8 .cfa: sp 8 + .ra: .cfa -4 + ^ r4: .cfa -8 + ^
STACK CFI INIT 517b8 64 .cfa: sp 0 + .ra: lr
STACK CFI 517bc .cfa: sp 16 + .ra: .cfa -4 + ^ r3: .cfa -16 + ^ r4: .cfa -12 + ^ r5: .cfa -8 + ^
STACK CFI INIT 5181c 1c .cfa: sp 0 + .ra: lr
STACK CFI 51820 .cfa: sp 8 + .ra: .cfa -4 + ^ r4: .cfa -8 + ^
STACK CFI INIT 51838 20 .cfa: sp 0 + .ra: lr
STACK CFI 5183c .cfa: sp 8 + .ra: .cfa -4 + ^ r4: .cfa -8 + ^
STACK CFI INIT 52da8 98 .cfa: sp 0 + .ra: lr
STACK CFI 52dac .cfa: sp 16 + .ra: .cfa -4 + ^ r3: .cfa -16 + ^ r4: .cfa -12 + ^ r5: .cfa -8 + ^
STACK CFI INIT 30a18 5c .cfa: sp 0 + .ra: lr
STACK CFI 30a1c .cfa: sp 8 + .ra: .cfa -4 + ^ r4: .cfa -8 + ^
STACK CFI INIT 30a74 64 .cfa: sp 0 + .ra: lr
STACK CFI 30a78 .cfa: sp 8 + .ra: .cfa -4 + ^ r4: .cfa -8 + ^
STACK CFI INIT 52e40 104 .cfa: sp 0 + .ra: lr
STACK CFI 52e44 .cfa: sp 40 + .ra: .cfa -4 + ^ r10: .cfa -12 + ^ r11: .cfa -8 + ^ r3: .cfa -40 + ^ r4: .cfa -36 + ^ r5: .cfa -32 + ^ r6: .cfa -28 + ^ r7: .cfa -24 + ^ r8: .cfa -20 + ^ r9: .cfa -16 + ^
STACK CFI INIT 51858 40 .cfa: sp 0 + .ra: lr
STACK CFI 5185c .cfa: sp 8 + .ra: .cfa -4 + ^ r4: .cfa -8 + ^
STACK CFI INIT 51898 a0 .cfa: sp 0 + .ra: lr
STACK CFI 5189c .cfa: sp 16 + .ra: .cfa -4 + ^ r4: .cfa -16 + ^ r5: .cfa -12 + ^ r6: .cfa -8 + ^
STACK CFI INIT 51938 200 .cfa: sp 0 + .ra: lr
STACK CFI 5193c .cfa: sp 36 + .ra: .cfa -4 + ^ r10: .cfa -12 + ^ r11: .cfa -8 + ^ r4: .cfa -36 + ^ r5: .cfa -32 + ^ r6: .cfa -28 + ^ r7: .cfa -24 + ^ r8: .cfa -20 + ^ r9: .cfa -16 + ^
STACK CFI 5194c .cfa: sp 2260 +
STACK CFI 51958 .cfa: sp 2264 +
STACK CFI INIT 51b38 b48 .cfa: sp 0 + .ra: lr
STACK CFI 51b3c .cfa: sp 36 + .ra: .cfa -4 + ^ r10: .cfa -12 + ^ r11: .cfa -8 + ^ r4: .cfa -36 + ^ r5: .cfa -32 + ^ r6: .cfa -28 + ^ r7: .cfa -24 + ^ r8: .cfa -20 + ^ r9: .cfa -16 + ^
STACK CFI 51b44 .cfa: sp 44 + s16: .cfa -44 + ^
STACK CFI 51b48 .cfa: sp 5164 +
STACK CFI 51b50 .cfa: sp 5184 +
STACK CFI INIT 52680 5e0 .cfa: sp 0 + .ra: lr
STACK CFI 52684 .cfa: sp 36 + .ra: .cfa -4 + ^ r10: .cfa -12 + ^ r11: .cfa -8 + ^ r4: .cfa -36 + ^ r5: .cfa -32 + ^ r6: .cfa -28 + ^ r7: .cfa -24 + ^ r8: .cfa -20 + ^ r9: .cfa -16 + ^
STACK CFI 52688 .cfa: sp 960 +
STACK CFI INIT 54640 3c .cfa: sp 0 + .ra: lr
STACK CFI 54644 .cfa: sp 16 + .ra: .cfa -4 + ^ r3: .cfa -16 + ^ r4: .cfa -12 + ^ r5: .cfa -8 + ^
STACK CFI INIT 5467c 50 .cfa: sp 0 + .ra: lr
STACK CFI 54680 .cfa: sp 16 + .ra: .cfa -4 + ^ r4: .cfa -16 + ^ r5: .cfa -12 + ^ r6: .cfa -8 + ^
STACK CFI INIT 546cc 3c .cfa: sp 0 + .ra: lr
STACK CFI 546d0 .cfa: sp 8 + .ra: .cfa -4 + ^ r4: .cfa -8 + ^
STACK CFI INIT 54708 50 .cfa: sp 0 + .ra: lr
STACK CFI 5470c .cfa: sp 16 + .ra: .cfa -4 + ^ r4: .cfa -16 + ^ r5: .cfa -12 + ^ r6: .cfa -8 + ^
STACK CFI INIT 52f48 34 .cfa: sp 0 + .ra: lr
STACK CFI 52f4c .cfa: sp 8 + .ra: .cfa -4 + ^ r4: .cfa -8 + ^
STACK CFI INIT 52f7c 7c .cfa: sp 0 + .ra: lr
STACK CFI 52f84 .cfa: sp 20 + r4: .cfa -20 + ^ r5: .cfa -16 + ^ r6: .cfa -12 + ^ r7: .cfa -8 + ^ r8: .cfa -4 + ^
STACK CFI INIT 52ff8 d00 .cfa: sp 0 + .ra: lr
STACK CFI 52ffc .cfa: sp 36 + .ra: .cfa -4 + ^ r10: .cfa -12 + ^ r11: .cfa -8 + ^ r4: .cfa -36 + ^ r5: .cfa -32 + ^ r6: .cfa -28 + ^ r7: .cfa -24 + ^ r8: .cfa -20 + ^ r9: .cfa -16 + ^
STACK CFI 53000 .cfa: sp 288 +
STACK CFI INIT 53cf8 948 .cfa: sp 0 + .ra: lr
STACK CFI 53cfc .cfa: sp 36 + .ra: .cfa -4 + ^ r10: .cfa -12 + ^ r11: .cfa -8 + ^ r4: .cfa -36 + ^ r5: .cfa -32 + ^ r6: .cfa -28 + ^ r7: .cfa -24 + ^ r8: .cfa -20 + ^ r9: .cfa -16 + ^
STACK CFI 53d00 .cfa: sp 456 +
STACK CFI INIT 54758 1ec .cfa: sp 0 + .ra: lr
STACK CFI 5475c .cfa: sp 24 + .ra: .cfa -4 + ^ r4: .cfa -24 + ^ r5: .cfa -20 + ^ r6: .cfa -16 + ^ r7: .cfa -12 + ^ r8: .cfa -8 + ^
STACK CFI 54764 .cfa: sp 48 +
STACK CFI INIT 54944 244 .cfa: sp 0 + .ra: lr
STACK CFI 54948 .cfa: sp 28 + .ra: .cfa -4 + ^ r4: .cfa -28 + ^ r5: .cfa -24 + ^ r6: .cfa -20 + ^ r7: .cfa -16 + ^ r8: .cfa -12 + ^ r9: .cfa -8 + ^
STACK CFI 5494c .cfa: sp 824 +
STACK CFI INIT 1a2a0 30 .cfa: sp 0 + .ra: lr
STACK CFI 1a2a8 .cfa: sp 8 + .ra: .cfa -4 + ^ r4: .cfa -8 + ^
STACK CFI INIT 1a2d0 38 .cfa: sp 0 + .ra: lr
STACK CFI 1a2d8 .cfa: sp 8 + .ra: .cfa -4 + ^ r4: .cfa -8 + ^
STACK CFI INIT 54b88 58 .cfa: sp 0 + .ra: lr
STACK CFI 54b8c .cfa: sp 8 + .ra: .cfa -4 + ^ r4: .cfa -8 + ^
STACK CFI INIT 54be0 1c .cfa: sp 0 + .ra: lr
STACK CFI 54be4 .cfa: sp 8 + .ra: .cfa -4 + ^ r4: .cfa -8 + ^
STACK CFI INIT 54bfc a0c .cfa: sp 0 + .ra: lr
STACK CFI 54c00 .cfa: sp 36 + .ra: .cfa -4 + ^ r10: .cfa -12 + ^ r11: .cfa -8 + ^ r4: .cfa -36 + ^ r5: .cfa -32 + ^ r6: .cfa -28 + ^ r7: .cfa -24 + ^ r8: .cfa -20 + ^ r9: .cfa -16 + ^
STACK CFI 54c04 .cfa: sp 1124 +
STACK CFI 54c0c .cfa: sp 1128 +
STACK CFI INIT 55608 210 .cfa: sp 0 + .ra: lr
STACK CFI 5560c .cfa: sp 24 + .ra: .cfa -4 + ^ r4: .cfa -24 + ^ r5: .cfa -20 + ^ r6: .cfa -16 + ^ r7: .cfa -12 + ^ r8: .cfa -8 + ^
STACK CFI 55618 .cfa: sp 40 +
STACK CFI INIT 55818 208 .cfa: sp 0 + .ra: lr
STACK CFI 5581c .cfa: sp 36 + .ra: .cfa -4 + ^ r10: .cfa -12 + ^ r11: .cfa -8 + ^ r4: .cfa -36 + ^ r5: .cfa -32 + ^ r6: .cfa -28 + ^ r7: .cfa -24 + ^ r8: .cfa -20 + ^ r9: .cfa -16 + ^
STACK CFI 55828 .cfa: sp 1732 +
STACK CFI 5582c .cfa: sp 1744 +
STACK CFI INIT 55a20 1ec .cfa: sp 0 + .ra: lr
STACK CFI 55a24 .cfa: sp 32 + r10: .cfa -8 + ^ r11: .cfa -4 + ^ r4: .cfa -32 + ^ r5: .cfa -28 + ^ r6: .cfa -24 + ^ r7: .cfa -20 + ^ r8: .cfa -16 + ^ r9: .cfa -12 + ^
STACK CFI 55a2c .cfa: sp 40 +
STACK CFI INIT 55c0c 18 .cfa: sp 0 + .ra: lr
STACK CFI INIT 55c24 c .cfa: sp 0 + .ra: lr
STACK CFI INIT 55c30 3b0 .cfa: sp 0 + .ra: lr
STACK CFI 55c34 .cfa: sp 32 + r10: .cfa -8 + ^ r11: .cfa -4 + ^ r4: .cfa -32 + ^ r5: .cfa -28 + ^ r6: .cfa -24 + ^ r7: .cfa -20 + ^ r8: .cfa -16 + ^ r9: .cfa -12 + ^
STACK CFI INIT 55fe0 158 .cfa: sp 0 + .ra: lr
STACK CFI 55fe4 .cfa: sp 32 + r10: .cfa -8 + ^ r11: .cfa -4 + ^ r4: .cfa -32 + ^ r5: .cfa -28 + ^ r6: .cfa -24 + ^ r7: .cfa -20 + ^ r8: .cfa -16 + ^ r9: .cfa -12 + ^
STACK CFI 55fe8 .cfa: sp 40 +
STACK CFI INIT 56138 2638 .cfa: sp 0 + .ra: lr
STACK CFI 5613c .cfa: sp 36 + .ra: .cfa -4 + ^ r10: .cfa -12 + ^ r11: .cfa -8 + ^ r4: .cfa -36 + ^ r5: .cfa -32 + ^ r6: .cfa -28 + ^ r7: .cfa -24 + ^ r8: .cfa -20 + ^ r9: .cfa -16 + ^
STACK CFI 56150 .cfa: sp 100 + s16: .cfa -100 + ^ s18: .cfa -92 + ^ s20: .cfa -84 + ^ s22: .cfa -76 + ^ s24: .cfa -68 + ^ s26: .cfa -60 + ^ s28: .cfa -52 + ^ s30: .cfa -44 + ^
STACK CFI 56154 .cfa: sp 360 +
STACK CFI INIT 58770 240 .cfa: sp 0 + .ra: lr
STACK CFI 58784 .cfa: sp 36 + .ra: .cfa -4 + ^ r10: .cfa -12 + ^ r11: .cfa -8 + ^ r4: .cfa -36 + ^ r5: .cfa -32 + ^ r6: .cfa -28 + ^ r7: .cfa -24 + ^ r8: .cfa -20 + ^ r9: .cfa -16 + ^
STACK CFI 5878c .cfa: sp 136 +
STACK CFI INIT 589b0 18c .cfa: sp 0 + .ra: lr
STACK CFI 589b8 .cfa: sp 36 + .ra: .cfa -4 + ^ r10: .cfa -12 + ^ r11: .cfa -8 + ^ r4: .cfa -36 + ^ r5: .cfa -32 + ^ r6: .cfa -28 + ^ r7: .cfa -24 + ^ r8: .cfa -20 + ^ r9: .cfa -16 + ^
STACK CFI 589c0 .cfa: sp 8420 +
STACK CFI 589c4 .cfa: sp 8448 +
STACK CFI INIT 58b3c 4 .cfa: sp 0 + .ra: lr
STACK CFI INIT 58b40 c .cfa: sp 0 + .ra: lr
STACK CFI INIT 58b4c 18 .cfa: sp 0 + .ra: lr
STACK CFI INIT 58b64 14 .cfa: sp 0 + .ra: lr
STACK CFI INIT 58b78 4 .cfa: sp 0 + .ra: lr
STACK CFI INIT 58b7c 4 .cfa: sp 0 + .ra: lr
STACK CFI INIT 58b80 18 .cfa: sp 0 + .ra: lr
STACK CFI INIT 58b98 4 .cfa: sp 0 + .ra: lr
STACK CFI INIT 58b9c 4 .cfa: sp 0 + .ra: lr
STACK CFI INIT 58ba0 4 .cfa: sp 0 + .ra: lr
STACK CFI INIT 58ba4 68 .cfa: sp 0 + .ra: lr
STACK CFI INIT 58c0c 54 .cfa: sp 0 + .ra: lr
STACK CFI 58c14 .cfa: sp 24 + .ra: .cfa -4 + ^ r3: .cfa -24 + ^ r4: .cfa -20 + ^ r5: .cfa -16 + ^ r6: .cfa -12 + ^ r7: .cfa -8 + ^
STACK CFI INIT 58c60 80 .cfa: sp 0 + .ra: lr
STACK CFI 58c68 .cfa: sp 8 + .ra: .cfa -4 + ^ r4: .cfa -8 + ^
STACK CFI INIT 58ce0 a4 .cfa: sp 0 + .ra: lr
STACK CFI 58ce4 .cfa: sp 32 + .ra: .cfa -4 + ^ r3: .cfa -32 + ^ r4: .cfa -28 + ^ r5: .cfa -24 + ^ r6: .cfa -20 + ^ r7: .cfa -16 + ^ r8: .cfa -12 + ^ r9: .cfa -8 + ^
STACK CFI INIT 58d84 154 .cfa: sp 0 + .ra: lr
STACK CFI 58d8c .cfa: sp 36 + .ra: .cfa -4 + ^ r10: .cfa -12 + ^ r11: .cfa -8 + ^ r4: .cfa -36 + ^ r5: .cfa -32 + ^ r6: .cfa -28 + ^ r7: .cfa -24 + ^ r8: .cfa -20 + ^ r9: .cfa -16 + ^
STACK CFI 58db8 .cfa: sp 64 +
STACK CFI INIT 58ed8 c0 .cfa: sp 0 + .ra: lr
STACK CFI 58edc .cfa: sp 16 + .ra: .cfa -4 + ^ r3: .cfa -16 + ^ r4: .cfa -12 + ^ r5: .cfa -8 + ^
STACK CFI INIT 58f98 414 .cfa: sp 0 + .ra: lr
STACK CFI 58f9c .cfa: sp 36 + .ra: .cfa -4 + ^ r10: .cfa -12 + ^ r11: .cfa -8 + ^ r4: .cfa -36 + ^ r5: .cfa -32 + ^ r6: .cfa -28 + ^ r7: .cfa -24 + ^ r8: .cfa -20 + ^ r9: .cfa -16 + ^
STACK CFI 58fac .cfa: sp 52 + s16: .cfa -52 + ^ s18: .cfa -44 + ^
STACK CFI 58fb0 .cfa: sp 72 +
STACK CFI INIT 593ac 260 .cfa: sp 0 + .ra: lr
STACK CFI 593b0 .cfa: sp 36 + .ra: .cfa -4 + ^ r10: .cfa -12 + ^ r11: .cfa -8 + ^ r4: .cfa -36 + ^ r5: .cfa -32 + ^ r6: .cfa -28 + ^ r7: .cfa -24 + ^ r8: .cfa -20 + ^ r9: .cfa -16 + ^
STACK CFI 593cc .cfa: sp 48 +
STACK CFI INIT 5960c 2b0 .cfa: sp 0 + .ra: lr
STACK CFI 59610 .cfa: sp 36 + .ra: .cfa -4 + ^ r10: .cfa -12 + ^ r11: .cfa -8 + ^ r4: .cfa -36 + ^ r5: .cfa -32 + ^ r6: .cfa -28 + ^ r7: .cfa -24 + ^ r8: .cfa -20 + ^ r9: .cfa -16 + ^
STACK CFI 59618 .cfa: sp 824 +
STACK CFI INIT 598bc 16c .cfa: sp 0 + .ra: lr
STACK CFI 598c4 .cfa: sp 36 + .ra: .cfa -4 + ^ r10: .cfa -12 + ^ r11: .cfa -8 + ^ r4: .cfa -36 + ^ r5: .cfa -32 + ^ r6: .cfa -28 + ^ r7: .cfa -24 + ^ r8: .cfa -20 + ^ r9: .cfa -16 + ^
STACK CFI 598cc .cfa: sp 912 +
STACK CFI INIT 59a28 208 .cfa: sp 0 + .ra: lr
STACK CFI 59a2c .cfa: sp 36 + .ra: .cfa -4 + ^ r10: .cfa -12 + ^ r11: .cfa -8 + ^ r4: .cfa -36 + ^ r5: .cfa -32 + ^ r6: .cfa -28 + ^ r7: .cfa -24 + ^ r8: .cfa -20 + ^ r9: .cfa -16 + ^
STACK CFI 59a38 .cfa: sp 56 +
STACK CFI INIT 59c30 19c .cfa: sp 0 + .ra: lr
STACK CFI 59c34 .cfa: sp 40 + .ra: .cfa -4 + ^ r10: .cfa -12 + ^ r11: .cfa -8 + ^ r3: .cfa -40 + ^ r4: .cfa -36 + ^ r5: .cfa -32 + ^ r6: .cfa -28 + ^ r7: .cfa -24 + ^ r8: .cfa -20 + ^ r9: .cfa -16 + ^
STACK CFI INIT 59dcc 28 .cfa: sp 0 + .ra: lr
STACK CFI INIT 59df4 58 .cfa: sp 0 + .ra: lr
STACK CFI 59e00 .cfa: sp 12 + .ra: .cfa -4 + ^ r4: .cfa -12 + ^ r5: .cfa -8 + ^
STACK CFI 59e04 .cfa: sp 24 +
STACK CFI INIT 59e4c 5c .cfa: sp 0 + .ra: lr
STACK CFI INIT 59ea8 3d0 .cfa: sp 0 + .ra: lr
STACK CFI 59eac .cfa: sp 36 + .ra: .cfa -4 + ^ r10: .cfa -12 + ^ r11: .cfa -8 + ^ r4: .cfa -36 + ^ r5: .cfa -32 + ^ r6: .cfa -28 + ^ r7: .cfa -24 + ^ r8: .cfa -20 + ^ r9: .cfa -16 + ^
STACK CFI 59ec0 .cfa: sp 104 +
STACK CFI INIT 5a278 54 .cfa: sp 0 + .ra: lr
STACK CFI 5a284 .cfa: sp 12 + .ra: .cfa -4 + ^ r4: .cfa -12 + ^ r5: .cfa -8 + ^
STACK CFI 5a290 .cfa: sp 24 +
STACK CFI INIT 5a2cc 368 .cfa: sp 0 + .ra: lr
STACK CFI 5a2e0 .cfa: sp 36 + .ra: .cfa -4 + ^ r10: .cfa -12 + ^ r11: .cfa -8 + ^ r4: .cfa -36 + ^ r5: .cfa -32 + ^ r6: .cfa -28 + ^ r7: .cfa -24 + ^ r8: .cfa -20 + ^ r9: .cfa -16 + ^
STACK CFI 5a2e8 .cfa: sp 80 +
STACK CFI INIT 5a634 1c .cfa: sp 0 + .ra: lr
STACK CFI 5a63c .cfa: sp 8 + .ra: .cfa -4 + ^ r3: .cfa -8 + ^
STACK CFI INIT 5a650 4 .cfa: sp 0 + .ra: lr
STACK CFI INIT 5a654 1a0 .cfa: sp 0 + .ra: lr
STACK CFI 5a65c .cfa: sp 20 + .ra: .cfa -4 + ^ r4: .cfa -20 + ^ r5: .cfa -16 + ^ r6: .cfa -12 + ^ r7: .cfa -8 + ^
STACK CFI 5a664 .cfa: sp 32 +
STACK CFI INIT 5a7f4 64 .cfa: sp 0 + .ra: lr
STACK CFI 5a800 .cfa: sp 16 + .ra: .cfa -4 + ^ r4: .cfa -16 + ^ r5: .cfa -12 + ^ r6: .cfa -8 + ^
STACK CFI INIT 5a858 254 .cfa: sp 0 + .ra: lr
STACK CFI 5a85c .cfa: sp 36 + .ra: .cfa -4 + ^ r10: .cfa -12 + ^ r11: .cfa -8 + ^ r4: .cfa -36 + ^ r5: .cfa -32 + ^ r6: .cfa -28 + ^ r7: .cfa -24 + ^ r8: .cfa -20 + ^ r9: .cfa -16 + ^
STACK CFI 5a86c .cfa: sp 64 +
STACK CFI INIT 5aaac e0 .cfa: sp 0 + .ra: lr
STACK CFI 5aab0 .cfa: sp 32 + .ra: .cfa -4 + ^ r3: .cfa -32 + ^ r4: .cfa -28 + ^ r5: .cfa -24 + ^ r6: .cfa -20 + ^ r7: .cfa -16 + ^ r8: .cfa -12 + ^ r9: .cfa -8 + ^
STACK CFI INIT 5ab8c 274 .cfa: sp 0 + .ra: lr
STACK CFI 5ab90 .cfa: sp 36 + .ra: .cfa -4 + ^ r10: .cfa -12 + ^ r11: .cfa -8 + ^ r4: .cfa -36 + ^ r5: .cfa -32 + ^ r6: .cfa -28 + ^ r7: .cfa -24 + ^ r8: .cfa -20 + ^ r9: .cfa -16 + ^
STACK CFI 5ab98 .cfa: sp 56 +
STACK CFI INIT 5ae00 74 .cfa: sp 0 + .ra: lr
STACK CFI 5ae04 .cfa: sp 32 + .ra: .cfa -4 + ^ r3: .cfa -32 + ^ r4: .cfa -28 + ^ r5: .cfa -24 + ^ r6: .cfa -20 + ^ r7: .cfa -16 + ^ r8: .cfa -12 + ^ r9: .cfa -8 + ^
STACK CFI INIT 5ae74 18c .cfa: sp 0 + .ra: lr
STACK CFI 5ae7c .cfa: sp 36 + .ra: .cfa -4 + ^ r10: .cfa -12 + ^ r11: .cfa -8 + ^ r4: .cfa -36 + ^ r5: .cfa -32 + ^ r6: .cfa -28 + ^ r7: .cfa -24 + ^ r8: .cfa -20 + ^ r9: .cfa -16 + ^
STACK CFI 5ae84 .cfa: sp 48 +
STACK CFI INIT 5b000 2a4 .cfa: sp 0 + .ra: lr
STACK CFI 5b008 .cfa: sp 36 + .ra: .cfa -4 + ^ r10: .cfa -12 + ^ r11: .cfa -8 + ^ r4: .cfa -36 + ^ r5: .cfa -32 + ^ r6: .cfa -28 + ^ r7: .cfa -24 + ^ r8: .cfa -20 + ^ r9: .cfa -16 + ^
STACK CFI 5b00c .cfa: sp 56 +
STACK CFI INIT 5b2a4 a4 .cfa: sp 0 + .ra: lr
STACK CFI 5b2ac .cfa: sp 32 + .ra: .cfa -4 + ^ r10: .cfa -8 + ^ r4: .cfa -32 + ^ r5: .cfa -28 + ^ r6: .cfa -24 + ^ r7: .cfa -20 + ^ r8: .cfa -16 + ^ r9: .cfa -12 + ^
STACK CFI INIT 5b348 158 .cfa: sp 0 + .ra: lr
STACK CFI 5b34c .cfa: sp 32 + r10: .cfa -8 + ^ r11: .cfa -4 + ^ r4: .cfa -32 + ^ r5: .cfa -28 + ^ r6: .cfa -24 + ^ r7: .cfa -20 + ^ r8: .cfa -16 + ^ r9: .cfa -12 + ^
STACK CFI 5b35c .cfa: sp 40 +
STACK CFI INIT 5b4a0 1d0 .cfa: sp 0 + .ra: lr
STACK CFI 5b4a8 .cfa: sp 20 + r4: .cfa -20 + ^ r5: .cfa -16 + ^ r6: .cfa -12 + ^ r7: .cfa -8 + ^ r8: .cfa -4 + ^
STACK CFI INIT 5b670 12c .cfa: sp 0 + .ra: lr
STACK CFI 5b678 .cfa: sp 4 + r4: .cfa -4 + ^
STACK CFI INIT 5b79c 4a0 .cfa: sp 0 + .ra: lr
STACK CFI 5b7a0 .cfa: sp 36 + .ra: .cfa -4 + ^ r10: .cfa -12 + ^ r11: .cfa -8 + ^ r4: .cfa -36 + ^ r5: .cfa -32 + ^ r6: .cfa -28 + ^ r7: .cfa -24 + ^ r8: .cfa -20 + ^ r9: .cfa -16 + ^
STACK CFI 5b7a4 .cfa: sp 224 +
STACK CFI INIT 5bc3c 468 .cfa: sp 0 + .ra: lr
STACK CFI 5bc58 .cfa: sp 32 + r10: .cfa -8 + ^ r11: .cfa -4 + ^ r4: .cfa -32 + ^ r5: .cfa -28 + ^ r6: .cfa -24 + ^ r7: .cfa -20 + ^ r8: .cfa -16 + ^ r9: .cfa -12 + ^
STACK CFI INIT 5c0a4 5d8 .cfa: sp 0 + .ra: lr
STACK CFI 5c0ac .cfa: sp 36 + .ra: .cfa -4 + ^ r10: .cfa -12 + ^ r11: .cfa -8 + ^ r4: .cfa -36 + ^ r5: .cfa -32 + ^ r6: .cfa -28 + ^ r7: .cfa -24 + ^ r8: .cfa -20 + ^ r9: .cfa -16 + ^
STACK CFI 5c0b8 .cfa: sp 52 + s16: .cfa -52 + ^ s18: .cfa -44 + ^
STACK CFI 5c0bc .cfa: sp 2980 +
STACK CFI 5c0c4 .cfa: sp 2984 +
STACK CFI INIT 5c67c 248 .cfa: sp 0 + .ra: lr
STACK CFI 5c684 .cfa: sp 36 + .ra: .cfa -4 + ^ r10: .cfa -12 + ^ r11: .cfa -8 + ^ r4: .cfa -36 + ^ r5: .cfa -32 + ^ r6: .cfa -28 + ^ r7: .cfa -24 + ^ r8: .cfa -20 + ^ r9: .cfa -16 + ^
STACK CFI 5c68c .cfa: sp 88 +
STACK CFI INIT 5c8c4 218 .cfa: sp 0 + .ra: lr
STACK CFI 5c8dc .cfa: sp 36 + .ra: .cfa -4 + ^ r10: .cfa -12 + ^ r11: .cfa -8 + ^ r4: .cfa -36 + ^ r5: .cfa -32 + ^ r6: .cfa -28 + ^ r7: .cfa -24 + ^ r8: .cfa -20 + ^ r9: .cfa -16 + ^
STACK CFI 5c8e8 .cfa: sp 5156 +
STACK CFI 5c8f8 .cfa: sp 5200 +
STACK CFI INIT 5cadc 68 .cfa: sp 0 + .ra: lr
STACK CFI 5cae0 .cfa: sp 16 + .ra: .cfa -4 + ^ r4: .cfa -16 + ^ r5: .cfa -12 + ^ r6: .cfa -8 + ^
STACK CFI INIT 5cb44 158 .cfa: sp 0 + .ra: lr
STACK CFI 5cb4c .cfa: sp 40 + .ra: .cfa -4 + ^ r10: .cfa -12 + ^ r11: .cfa -8 + ^ r3: .cfa -40 + ^ r4: .cfa -36 + ^ r5: .cfa -32 + ^ r6: .cfa -28 + ^ r7: .cfa -24 + ^ r8: .cfa -20 + ^ r9: .cfa -16 + ^
STACK CFI INIT 5cc9c 148 .cfa: sp 0 + .ra: lr
STACK CFI 5cca4 .cfa: sp 36 + .ra: .cfa -4 + ^ r10: .cfa -12 + ^ r11: .cfa -8 + ^ r4: .cfa -36 + ^ r5: .cfa -32 + ^ r6: .cfa -28 + ^ r7: .cfa -24 + ^ r8: .cfa -20 + ^ r9: .cfa -16 + ^
STACK CFI 5ccac .cfa: sp 56 +
STACK CFI INIT 5cde4 498 .cfa: sp 0 + .ra: lr
STACK CFI 5cdf0 .cfa: sp 36 + .ra: .cfa -4 + ^ r10: .cfa -12 + ^ r11: .cfa -8 + ^ r4: .cfa -36 + ^ r5: .cfa -32 + ^ r6: .cfa -28 + ^ r7: .cfa -24 + ^ r8: .cfa -20 + ^ r9: .cfa -16 + ^
STACK CFI 5cdfc .cfa: sp 120 +
STACK CFI INIT 5d27c 6b0 .cfa: sp 0 + .ra: lr
STACK CFI 5d280 .cfa: sp 36 + .ra: .cfa -4 + ^ r10: .cfa -12 + ^ r11: .cfa -8 + ^ r4: .cfa -36 + ^ r5: .cfa -32 + ^ r6: .cfa -28 + ^ r7: .cfa -24 + ^ r8: .cfa -20 + ^ r9: .cfa -16 + ^
STACK CFI 5d284 .cfa: sp 311332 +
STACK CFI 5d288 .cfa: sp 311784 +
STACK CFI INIT 5d92c 174 .cfa: sp 0 + .ra: lr
STACK CFI 5d930 .cfa: sp 40 + .ra: .cfa -4 + ^ r10: .cfa -12 + ^ r11: .cfa -8 + ^ r3: .cfa -40 + ^ r4: .cfa -36 + ^ r5: .cfa -32 + ^ r6: .cfa -28 + ^ r7: .cfa -24 + ^ r8: .cfa -20 + ^ r9: .cfa -16 + ^
STACK CFI INIT 5daa0 28 .cfa: sp 0 + .ra: lr
STACK CFI 5daa4 .cfa: sp 16 + .ra: .cfa -4 + ^ r3: .cfa -16 + ^ r4: .cfa -12 + ^ r5: .cfa -8 + ^
STACK CFI INIT 5dac8 27c .cfa: sp 0 + .ra: lr
STACK CFI 5dad0 .cfa: sp 24 + .ra: .cfa -4 + ^ r3: .cfa -24 + ^ r4: .cfa -20 + ^ r5: .cfa -16 + ^ r6: .cfa -12 + ^ r7: .cfa -8 + ^
STACK CFI INIT 5dd44 530 .cfa: sp 0 + .ra: lr
STACK CFI 5dd50 .cfa: sp 36 + .ra: .cfa -4 + ^ r10: .cfa -12 + ^ r11: .cfa -8 + ^ r4: .cfa -36 + ^ r5: .cfa -32 + ^ r6: .cfa -28 + ^ r7: .cfa -24 + ^ r8: .cfa -20 + ^ r9: .cfa -16 + ^
STACK CFI 5dd58 .cfa: sp 88 +
STACK CFI INIT 5e274 70 .cfa: sp 0 + .ra: lr
STACK CFI 5e278 .cfa: sp 16 + .ra: .cfa -4 + ^ r4: .cfa -16 + ^ r5: .cfa -12 + ^ r6: .cfa -8 + ^
STACK CFI INIT 5e2e4 8c .cfa: sp 0 + .ra: lr
STACK CFI 5e2f0 .cfa: sp 12 + .ra: .cfa -4 + ^ r4: .cfa -12 + ^ r5: .cfa -8 + ^
STACK CFI 5e2f4 .cfa: sp 16396 +
STACK CFI 5e2f8 .cfa: sp 16400 +
STACK CFI INIT 5e370 578 .cfa: sp 0 + .ra: lr
STACK CFI 5e378 .cfa: sp 36 + .ra: .cfa -4 + ^ r10: .cfa -12 + ^ r11: .cfa -8 + ^ r4: .cfa -36 + ^ r5: .cfa -32 + ^ r6: .cfa -28 + ^ r7: .cfa -24 + ^ r8: .cfa -20 + ^ r9: .cfa -16 + ^
STACK CFI 5e380 .cfa: sp 376 +
STACK CFI INIT 5e8e8 384 .cfa: sp 0 + .ra: lr
STACK CFI 5e8ec .cfa: sp 36 + .ra: .cfa -4 + ^ r10: .cfa -12 + ^ r11: .cfa -8 + ^ r4: .cfa -36 + ^ r5: .cfa -32 + ^ r6: .cfa -28 + ^ r7: .cfa -24 + ^ r8: .cfa -20 + ^ r9: .cfa -16 + ^
STACK CFI 5e8f0 .cfa: sp 65572 +
STACK CFI 5e8f8 .cfa: sp 65584 +
STACK CFI INIT 5ec6c a0 .cfa: sp 0 + .ra: lr
STACK CFI 5ec70 .cfa: sp 16 + .ra: .cfa -4 + ^ r3: .cfa -16 + ^ r4: .cfa -12 + ^ r5: .cfa -8 + ^
STACK CFI INIT 5ed0c 198 .cfa: sp 0 + .ra: lr
STACK CFI 5ed14 .cfa: sp 36 + .ra: .cfa -4 + ^ r10: .cfa -12 + ^ r11: .cfa -8 + ^ r4: .cfa -36 + ^ r5: .cfa -32 + ^ r6: .cfa -28 + ^ r7: .cfa -24 + ^ r8: .cfa -20 + ^ r9: .cfa -16 + ^
STACK CFI 5ed18 .cfa: sp 64 +
STACK CFI INIT 5eea4 3ac .cfa: sp 0 + .ra: lr
STACK CFI 5eea8 .cfa: sp 36 + .ra: .cfa -4 + ^ r10: .cfa -12 + ^ r11: .cfa -8 + ^ r4: .cfa -36 + ^ r5: .cfa -32 + ^ r6: .cfa -28 + ^ r7: .cfa -24 + ^ r8: .cfa -20 + ^ r9: .cfa -16 + ^
STACK CFI 5eeb4 .cfa: sp 64 +
STACK CFI INIT 5f250 30c .cfa: sp 0 + .ra: lr
STACK CFI 5f254 .cfa: sp 36 + .ra: .cfa -4 + ^ r10: .cfa -12 + ^ r11: .cfa -8 + ^ r4: .cfa -36 + ^ r5: .cfa -32 + ^ r6: .cfa -28 + ^ r7: .cfa -24 + ^ r8: .cfa -20 + ^ r9: .cfa -16 + ^
STACK CFI 5f25c .cfa: sp 44 + s16: .cfa -44 + ^
STACK CFI 5f260 .cfa: sp 96 +
STACK CFI INIT 5f55c 318 .cfa: sp 0 + .ra: lr
STACK CFI 5f560 .cfa: sp 36 + .ra: .cfa -4 + ^ r10: .cfa -12 + ^ r11: .cfa -8 + ^ r4: .cfa -36 + ^ r5: .cfa -32 + ^ r6: .cfa -28 + ^ r7: .cfa -24 + ^ r8: .cfa -20 + ^ r9: .cfa -16 + ^
STACK CFI 5f564 .cfa: sp 176 +
STACK CFI INIT 5f874 590 .cfa: sp 0 + .ra: lr
STACK CFI 5f878 .cfa: sp 36 + .ra: .cfa -4 + ^ r10: .cfa -12 + ^ r11: .cfa -8 + ^ r4: .cfa -36 + ^ r5: .cfa -32 + ^ r6: .cfa -28 + ^ r7: .cfa -24 + ^ r8: .cfa -20 + ^ r9: .cfa -16 + ^
STACK CFI 5f87c .cfa: sp 160 +
STACK CFI INIT 5fe04 1c4 .cfa: sp 0 + .ra: lr
STACK CFI 5fe0c .cfa: sp 32 + r10: .cfa -8 + ^ r11: .cfa -4 + ^ r4: .cfa -32 + ^ r5: .cfa -28 + ^ r6: .cfa -24 + ^ r7: .cfa -20 + ^ r8: .cfa -16 + ^ r9: .cfa -12 + ^
STACK CFI INIT 5ffc8 1c0 .cfa: sp 0 + .ra: lr
STACK CFI 5ffd0 .cfa: sp 36 + .ra: .cfa -4 + ^ r10: .cfa -12 + ^ r11: .cfa -8 + ^ r4: .cfa -36 + ^ r5: .cfa -32 + ^ r6: .cfa -28 + ^ r7: .cfa -24 + ^ r8: .cfa -20 + ^ r9: .cfa -16 + ^
STACK CFI 5ffd8 .cfa: sp 144 +
STACK CFI INIT 60188 13c .cfa: sp 0 + .ra: lr
STACK CFI 6018c .cfa: sp 36 + .ra: .cfa -4 + ^ r10: .cfa -12 + ^ r11: .cfa -8 + ^ r4: .cfa -36 + ^ r5: .cfa -32 + ^ r6: .cfa -28 + ^ r7: .cfa -24 + ^ r8: .cfa -20 + ^ r9: .cfa -16 + ^
STACK CFI 601a0 .cfa: sp 56 +
STACK CFI INIT 602c4 118 .cfa: sp 0 + .ra: lr
STACK CFI 602d0 .cfa: sp 8 + .ra: .cfa -4 + ^ r4: .cfa -8 + ^
STACK CFI 602d8 .cfa: sp 264 +
STACK CFI INIT 603dc f4 .cfa: sp 0 + .ra: lr
STACK CFI 603e8 .cfa: sp 12 + .ra: .cfa -4 + ^ r4: .cfa -12 + ^ r5: .cfa -8 + ^
STACK CFI 603f0 .cfa: sp 1036 +
STACK CFI 603fc .cfa: sp 1048 +
STACK CFI INIT 604d0 b4 .cfa: sp 0 + .ra: lr
STACK CFI 604dc .cfa: sp 20 + .ra: .cfa -4 + ^ r4: .cfa -20 + ^ r5: .cfa -16 + ^ r6: .cfa -12 + ^ r7: .cfa -8 + ^
STACK CFI 604e4 .cfa: sp 40 +
STACK CFI INIT 60584 148 .cfa: sp 0 + .ra: lr
STACK CFI 60590 .cfa: sp 16 + .ra: .cfa -4 + ^ r4: .cfa -16 + ^ r5: .cfa -12 + ^ r6: .cfa -8 + ^
STACK CFI 60594 .cfa: sp 168 +
STACK CFI INIT 606cc 7c .cfa: sp 0 + .ra: lr
STACK CFI 606d8 .cfa: sp 12 + .ra: .cfa -4 + ^ r4: .cfa -12 + ^ r5: .cfa -8 + ^
STACK CFI 606e0 .cfa: sp 440 +
STACK CFI INIT 60748 8c .cfa: sp 0 + .ra: lr
STACK CFI 60750 .cfa: sp 12 + r4: .cfa -12 + ^ r5: .cfa -8 + ^ r6: .cfa -4 + ^
STACK CFI INIT 607d4 560 .cfa: sp 0 + .ra: lr
STACK CFI 607d8 .cfa: sp 36 + .ra: .cfa -4 + ^ r10: .cfa -12 + ^ r11: .cfa -8 + ^ r4: .cfa -36 + ^ r5: .cfa -32 + ^ r6: .cfa -28 + ^ r7: .cfa -24 + ^ r8: .cfa -20 + ^ r9: .cfa -16 + ^
STACK CFI 607e0 .cfa: sp 44 + s16: .cfa -44 + ^
STACK CFI 607e4 .cfa: sp 128 +
STACK CFI INIT 60d34 fc0 .cfa: sp 0 + .ra: lr
STACK CFI 60d3c .cfa: sp 36 + .ra: .cfa -4 + ^ r10: .cfa -12 + ^ r11: .cfa -8 + ^ r4: .cfa -36 + ^ r5: .cfa -32 + ^ r6: .cfa -28 + ^ r7: .cfa -24 + ^ r8: .cfa -20 + ^ r9: .cfa -16 + ^
STACK CFI 60d44 .cfa: sp 52 + s16: .cfa -52 + ^ s18: .cfa -44 + ^
STACK CFI 60d48 .cfa: sp 131124 +
STACK CFI 60d50 .cfa: sp 131304 +
STACK CFI INIT 61cf4 20 .cfa: sp 0 + .ra: lr
STACK CFI INIT 61d14 22c .cfa: sp 0 + .ra: lr
STACK CFI 61d20 .cfa: sp 36 + .ra: .cfa -4 + ^ r10: .cfa -12 + ^ r11: .cfa -8 + ^ r4: .cfa -36 + ^ r5: .cfa -32 + ^ r6: .cfa -28 + ^ r7: .cfa -24 + ^ r8: .cfa -20 + ^ r9: .cfa -16 + ^
STACK CFI 61d28 .cfa: sp 56 +
STACK CFI INIT 61f40 d8 .cfa: sp 0 + .ra: lr
STACK CFI 61f48 .cfa: sp 32 + .ra: .cfa -4 + ^ r10: .cfa -12 + ^ r11: .cfa -8 + ^ r4: .cfa -32 + ^ r5: .cfa -28 + ^ r6: .cfa -24 + ^ r7: .cfa -20 + ^ r8: .cfa -16 + ^
STACK CFI 61f50 .cfa: sp 40 +
STACK CFI INIT 62018 6e0 .cfa: sp 0 + .ra: lr
STACK CFI 6201c .cfa: sp 36 + .ra: .cfa -4 + ^ r10: .cfa -12 + ^ r11: .cfa -8 + ^ r4: .cfa -36 + ^ r5: .cfa -32 + ^ r6: .cfa -28 + ^ r7: .cfa -24 + ^ r8: .cfa -20 + ^ r9: .cfa -16 + ^
STACK CFI 62038 .cfa: sp 100 + s16: .cfa -100 + ^ s18: .cfa -92 + ^ s20: .cfa -84 + ^ s22: .cfa -76 + ^ s24: .cfa -68 + ^ s26: .cfa -60 + ^ s28: .cfa -52 + ^ s30: .cfa -44 + ^
STACK CFI 6203c .cfa: sp 144 +
STACK CFI INIT 626f8 228 .cfa: sp 0 + .ra: lr
STACK CFI 626fc .cfa: sp 36 + .ra: .cfa -4 + ^ r10: .cfa -12 + ^ r11: .cfa -8 + ^ r4: .cfa -36 + ^ r5: .cfa -32 + ^ r6: .cfa -28 + ^ r7: .cfa -24 + ^ r8: .cfa -20 + ^ r9: .cfa -16 + ^
STACK CFI 62700 .cfa: sp 160 +
STACK CFI INIT 62920 d4 .cfa: sp 0 + .ra: lr
STACK CFI 62924 .cfa: sp 24 + .ra: .cfa -4 + ^ r3: .cfa -24 + ^ r4: .cfa -20 + ^ r5: .cfa -16 + ^ r6: .cfa -12 + ^ r7: .cfa -8 + ^
STACK CFI INIT 629f4 234 .cfa: sp 0 + .ra: lr
STACK CFI 629f8 .cfa: sp 36 + .ra: .cfa -4 + ^ r10: .cfa -12 + ^ r11: .cfa -8 + ^ r4: .cfa -36 + ^ r5: .cfa -32 + ^ r6: .cfa -28 + ^ r7: .cfa -24 + ^ r8: .cfa -20 + ^ r9: .cfa -16 + ^
STACK CFI 62a00 .cfa: sp 72 +
STACK CFI INIT 62c28 78 .cfa: sp 0 + .ra: lr
STACK CFI 62c2c .cfa: sp 24 + .ra: .cfa -4 + ^ r3: .cfa -24 + ^ r4: .cfa -20 + ^ r5: .cfa -16 + ^ r6: .cfa -12 + ^ r7: .cfa -8 + ^
STACK CFI INIT 62ca0 114 .cfa: sp 0 + .ra: lr
STACK CFI 62ca4 .cfa: sp 32 + .ra: .cfa -4 + ^ r3: .cfa -32 + ^ r4: .cfa -28 + ^ r5: .cfa -24 + ^ r6: .cfa -20 + ^ r7: .cfa -16 + ^ r8: .cfa -12 + ^ r9: .cfa -8 + ^
STACK CFI INIT 62db4 eb8 .cfa: sp 0 + .ra: lr
STACK CFI 62dc0 .cfa: sp 36 + .ra: .cfa -4 + ^ r10: .cfa -12 + ^ r11: .cfa -8 + ^ r4: .cfa -36 + ^ r5: .cfa -32 + ^ r6: .cfa -28 + ^ r7: .cfa -24 + ^ r8: .cfa -20 + ^ r9: .cfa -16 + ^
STACK CFI 62dc8 .cfa: sp 7140 +
STACK CFI 62dd4 .cfa: sp 7160 +
STACK CFI INIT 63c6c 488 .cfa: sp 0 + .ra: lr
STACK CFI 63c74 .cfa: sp 36 + .ra: .cfa -4 + ^ r10: .cfa -12 + ^ r11: .cfa -8 + ^ r4: .cfa -36 + ^ r5: .cfa -32 + ^ r6: .cfa -28 + ^ r7: .cfa -24 + ^ r8: .cfa -20 + ^ r9: .cfa -16 + ^
STACK CFI 63c7c .cfa: sp 848 +
STACK CFI INIT 640f4 21c .cfa: sp 0 + .ra: lr
STACK CFI 640fc .cfa: sp 36 + .ra: .cfa -4 + ^ r10: .cfa -12 + ^ r11: .cfa -8 + ^ r4: .cfa -36 + ^ r5: .cfa -32 + ^ r6: .cfa -28 + ^ r7: .cfa -24 + ^ r8: .cfa -20 + ^ r9: .cfa -16 + ^
STACK CFI 64104 .cfa: sp 576 +
STACK CFI INIT 64310 43c .cfa: sp 0 + .ra: lr
STACK CFI 64318 .cfa: sp 36 + .ra: .cfa -4 + ^ r10: .cfa -12 + ^ r11: .cfa -8 + ^ r4: .cfa -36 + ^ r5: .cfa -32 + ^ r6: .cfa -28 + ^ r7: .cfa -24 + ^ r8: .cfa -20 + ^ r9: .cfa -16 + ^
STACK CFI 64320 .cfa: sp 864 +
STACK CFI INIT 6474c 1a0 .cfa: sp 0 + .ra: lr
STACK CFI 64760 .cfa: sp 36 + .ra: .cfa -4 + ^ r10: .cfa -12 + ^ r11: .cfa -8 + ^ r4: .cfa -36 + ^ r5: .cfa -32 + ^ r6: .cfa -28 + ^ r7: .cfa -24 + ^ r8: .cfa -20 + ^ r9: .cfa -16 + ^
STACK CFI 64764 .cfa: sp 1604 +
STACK CFI 6476c .cfa: sp 1616 +
STACK CFI INIT 648ec 434 .cfa: sp 0 + .ra: lr
STACK CFI 648f4 .cfa: sp 32 + r10: .cfa -8 + ^ r11: .cfa -4 + ^ r4: .cfa -32 + ^ r5: .cfa -28 + ^ r6: .cfa -24 + ^ r7: .cfa -20 + ^ r8: .cfa -16 + ^ r9: .cfa -12 + ^
STACK CFI 648f8 .cfa: sp 40 +
STACK CFI INIT 64d20 4c4 .cfa: sp 0 + .ra: lr
STACK CFI 64d2c .cfa: sp 36 + .ra: .cfa -4 + ^ r10: .cfa -12 + ^ r11: .cfa -8 + ^ r4: .cfa -36 + ^ r5: .cfa -32 + ^ r6: .cfa -28 + ^ r7: .cfa -24 + ^ r8: .cfa -20 + ^ r9: .cfa -16 + ^
STACK CFI 64d34 .cfa: sp 144 +
STACK CFI INIT 651e4 86c .cfa: sp 0 + .ra: lr
STACK CFI 651e8 .cfa: sp 36 + .ra: .cfa -4 + ^ r10: .cfa -12 + ^ r11: .cfa -8 + ^ r4: .cfa -36 + ^ r5: .cfa -32 + ^ r6: .cfa -28 + ^ r7: .cfa -24 + ^ r8: .cfa -20 + ^ r9: .cfa -16 + ^
STACK CFI 651ec .cfa: sp 144 +
STACK CFI INIT 65a50 78 .cfa: sp 0 + .ra: lr
STACK CFI 65a5c .cfa: sp 12 + .ra: .cfa -4 + ^ r4: .cfa -12 + ^ r5: .cfa -8 + ^
STACK CFI 65a64 .cfa: sp 32 +
STACK CFI INIT 65ac8 64 .cfa: sp 0 + .ra: lr
STACK CFI 65ad8 .cfa: sp 4 + r4: .cfa -4 + ^
STACK CFI INIT 65b2c 434 .cfa: sp 0 + .ra: lr
STACK CFI 65b34 .cfa: sp 36 + .ra: .cfa -4 + ^ r10: .cfa -12 + ^ r11: .cfa -8 + ^ r4: .cfa -36 + ^ r5: .cfa -32 + ^ r6: .cfa -28 + ^ r7: .cfa -24 + ^ r8: .cfa -20 + ^ r9: .cfa -16 + ^
STACK CFI 65b3c .cfa: sp 112 +
STACK CFI INIT 65f60 164 .cfa: sp 0 + .ra: lr
STACK CFI 65f6c .cfa: sp 28 + .ra: .cfa -4 + ^ r4: .cfa -28 + ^ r5: .cfa -24 + ^ r6: .cfa -20 + ^ r7: .cfa -16 + ^ r8: .cfa -12 + ^ r9: .cfa -8 + ^
STACK CFI 65f70 .cfa: sp 2076 +
STACK CFI 65f78 .cfa: sp 2080 +
STACK CFI INIT 660c4 444 .cfa: sp 0 + .ra: lr
STACK CFI 660d4 .cfa: sp 36 + .ra: .cfa -4 + ^ r10: .cfa -12 + ^ r11: .cfa -8 + ^ r4: .cfa -36 + ^ r5: .cfa -32 + ^ r6: .cfa -28 + ^ r7: .cfa -24 + ^ r8: .cfa -20 + ^ r9: .cfa -16 + ^
STACK CFI 660d8 .cfa: sp 232 +
STACK CFI INIT 66508 30c .cfa: sp 0 + .ra: lr
STACK CFI 6650c .cfa: sp 36 + .ra: .cfa -4 + ^ r10: .cfa -12 + ^ r11: .cfa -8 + ^ r4: .cfa -36 + ^ r5: .cfa -32 + ^ r6: .cfa -28 + ^ r7: .cfa -24 + ^ r8: .cfa -20 + ^ r9: .cfa -16 + ^
STACK CFI 6651c .cfa: sp 64 +
STACK CFI INIT 66814 2d4 .cfa: sp 0 + .ra: lr
STACK CFI 66818 .cfa: sp 32 + r10: .cfa -8 + ^ r11: .cfa -4 + ^ r4: .cfa -32 + ^ r5: .cfa -28 + ^ r6: .cfa -24 + ^ r7: .cfa -20 + ^ r8: .cfa -16 + ^ r9: .cfa -12 + ^
STACK CFI 66820 .cfa: sp 184 +
STACK CFI INIT 66ae8 538 .cfa: sp 0 + .ra: lr
STACK CFI 66af0 .cfa: sp 32 + .ra: .cfa -4 + ^ r10: .cfa -8 + ^ r4: .cfa -32 + ^ r5: .cfa -28 + ^ r6: .cfa -24 + ^ r7: .cfa -20 + ^ r8: .cfa -16 + ^ r9: .cfa -12 + ^
STACK CFI 66af8 .cfa: sp 224 +
STACK CFI INIT 67020 5e4 .cfa: sp 0 + .ra: lr
STACK CFI 67024 .cfa: sp 32 + r10: .cfa -8 + ^ r11: .cfa -4 + ^ r4: .cfa -32 + ^ r5: .cfa -28 + ^ r6: .cfa -24 + ^ r7: .cfa -20 + ^ r8: .cfa -16 + ^ r9: .cfa -12 + ^
STACK CFI 67028 .cfa: sp 152 +
STACK CFI INIT 67604 1098 .cfa: sp 0 + .ra: lr
STACK CFI 6760c .cfa: sp 36 + .ra: .cfa -4 + ^ r10: .cfa -12 + ^ r11: .cfa -8 + ^ r4: .cfa -36 + ^ r5: .cfa -32 + ^ r6: .cfa -28 + ^ r7: .cfa -24 + ^ r8: .cfa -20 + ^ r9: .cfa -16 + ^
STACK CFI 67614 .cfa: sp 68 + s16: .cfa -68 + ^ s18: .cfa -60 + ^ s20: .cfa -52 + ^ s22: .cfa -44 + ^
STACK CFI 67618 .cfa: sp 208 +
STACK CFI INIT 6869c 1400 .cfa: sp 0 + .ra: lr
STACK CFI 686a4 .cfa: sp 36 + .ra: .cfa -4 + ^ r10: .cfa -12 + ^ r11: .cfa -8 + ^ r4: .cfa -36 + ^ r5: .cfa -32 + ^ r6: .cfa -28 + ^ r7: .cfa -24 + ^ r8: .cfa -20 + ^ r9: .cfa -16 + ^
STACK CFI 686bc .cfa: sp 44 + s16: .cfa -44 + ^
STACK CFI 686c0 .cfa: sp 384 +
STACK CFI INIT 69a9c 20c .cfa: sp 0 + .ra: lr
STACK CFI 69aa0 .cfa: sp 40 + .ra: .cfa -4 + ^ r10: .cfa -12 + ^ r11: .cfa -8 + ^ r3: .cfa -40 + ^ r4: .cfa -36 + ^ r5: .cfa -32 + ^ r6: .cfa -28 + ^ r7: .cfa -24 + ^ r8: .cfa -20 + ^ r9: .cfa -16 + ^
STACK CFI INIT 69ca8 38c .cfa: sp 0 + .ra: lr
STACK CFI 69cb0 .cfa: sp 36 + .ra: .cfa -4 + ^ r10: .cfa -12 + ^ r11: .cfa -8 + ^ r4: .cfa -36 + ^ r5: .cfa -32 + ^ r6: .cfa -28 + ^ r7: .cfa -24 + ^ r8: .cfa -20 + ^ r9: .cfa -16 + ^
STACK CFI 69cb8 .cfa: sp 144 +
STACK CFI INIT 6a034 598 .cfa: sp 0 + .ra: lr
STACK CFI 6a03c .cfa: sp 36 + .ra: .cfa -4 + ^ r10: .cfa -12 + ^ r11: .cfa -8 + ^ r4: .cfa -36 + ^ r5: .cfa -32 + ^ r6: .cfa -28 + ^ r7: .cfa -24 + ^ r8: .cfa -20 + ^ r9: .cfa -16 + ^
STACK CFI 6a040 .cfa: sp 32804 +
STACK CFI 6a044 .cfa: sp 32872 +
STACK CFI INIT 6a5cc af8 .cfa: sp 0 + .ra: lr
STACK CFI 6a5d0 .cfa: sp 36 + .ra: .cfa -4 + ^ r10: .cfa -12 + ^ r11: .cfa -8 + ^ r4: .cfa -36 + ^ r5: .cfa -32 + ^ r6: .cfa -28 + ^ r7: .cfa -24 + ^ r8: .cfa -20 + ^ r9: .cfa -16 + ^
STACK CFI 6a5d4 .cfa: sp 1220 +
STACK CFI 6a5dc .cfa: sp 1224 +
STACK CFI INIT 6b0c4 7f4 .cfa: sp 0 + .ra: lr
STACK CFI 6b0cc .cfa: sp 36 + .ra: .cfa -4 + ^ r10: .cfa -12 + ^ r11: .cfa -8 + ^ r4: .cfa -36 + ^ r5: .cfa -32 + ^ r6: .cfa -28 + ^ r7: .cfa -24 + ^ r8: .cfa -20 + ^ r9: .cfa -16 + ^
STACK CFI 6b0d4 .cfa: sp 144 +
STACK CFI INIT 6b8b8 15c0 .cfa: sp 0 + .ra: lr
STACK CFI 6b8c0 .cfa: sp 36 + .ra: .cfa -4 + ^ r10: .cfa -12 + ^ r11: .cfa -8 + ^ r4: .cfa -36 + ^ r5: .cfa -32 + ^ r6: .cfa -28 + ^ r7: .cfa -24 + ^ r8: .cfa -20 + ^ r9: .cfa -16 + ^
STACK CFI 6b8c4 .cfa: sp 60 + s16: .cfa -60 + ^ s18: .cfa -52 + ^ s20: .cfa -44 + ^
STACK CFI 6b8c8 .cfa: sp 262204 +
STACK CFI 6b8d0 .cfa: sp 262456 +
STACK CFI INIT 6ce78 338 .cfa: sp 0 + .ra: lr
STACK CFI 6ce80 .cfa: sp 36 + .ra: .cfa -4 + ^ r10: .cfa -12 + ^ r11: .cfa -8 + ^ r4: .cfa -36 + ^ r5: .cfa -32 + ^ r6: .cfa -28 + ^ r7: .cfa -24 + ^ r8: .cfa -20 + ^ r9: .cfa -16 + ^
STACK CFI 6ce84 .cfa: sp 120 +
STACK CFI INIT 6d1b0 94c .cfa: sp 0 + .ra: lr
STACK CFI 6d1b4 .cfa: sp 36 + .ra: .cfa -4 + ^ r10: .cfa -12 + ^ r11: .cfa -8 + ^ r4: .cfa -36 + ^ r5: .cfa -32 + ^ r6: .cfa -28 + ^ r7: .cfa -24 + ^ r8: .cfa -20 + ^ r9: .cfa -16 + ^
STACK CFI 6d1c4 .cfa: sp 44 + s16: .cfa -44 + ^
STACK CFI 6d1c8 .cfa: sp 152 +
STACK CFI INIT 6dafc 81c .cfa: sp 0 + .ra: lr
STACK CFI 6db04 .cfa: sp 36 + .ra: .cfa -4 + ^ r10: .cfa -12 + ^ r11: .cfa -8 + ^ r4: .cfa -36 + ^ r5: .cfa -32 + ^ r6: .cfa -28 + ^ r7: .cfa -24 + ^ r8: .cfa -20 + ^ r9: .cfa -16 + ^
STACK CFI 6db0c .cfa: sp 52 + s16: .cfa -52 + ^ s18: .cfa -44 + ^
STACK CFI 6db10 .cfa: sp 160 +
STACK CFI INIT 6e318 ac .cfa: sp 0 + .ra: lr
STACK CFI 6e31c .cfa: sp 32 + .ra: .cfa -4 + ^ r3: .cfa -32 + ^ r4: .cfa -28 + ^ r5: .cfa -24 + ^ r6: .cfa -20 + ^ r7: .cfa -16 + ^ r8: .cfa -12 + ^ r9: .cfa -8 + ^
STACK CFI INIT 6e3c4 d0 .cfa: sp 0 + .ra: lr
STACK CFI 6e3c8 .cfa: sp 36 + .ra: .cfa -4 + ^ r10: .cfa -12 + ^ r11: .cfa -8 + ^ r4: .cfa -36 + ^ r5: .cfa -32 + ^ r6: .cfa -28 + ^ r7: .cfa -24 + ^ r8: .cfa -20 + ^ r9: .cfa -16 + ^
STACK CFI 6e3cc .cfa: sp 88 +
STACK CFI INIT 6e494 120 .cfa: sp 0 + .ra: lr
STACK CFI 6e49c .cfa: sp 16 + .ra: .cfa -4 + ^ r4: .cfa -16 + ^ r5: .cfa -12 + ^ r6: .cfa -8 + ^
STACK CFI 6e4a4 .cfa: sp 104 +
STACK CFI INIT 6e5b4 1d0 .cfa: sp 0 + .ra: lr
STACK CFI 6e5b8 .cfa: sp 36 + .ra: .cfa -4 + ^ r10: .cfa -12 + ^ r11: .cfa -8 + ^ r4: .cfa -36 + ^ r5: .cfa -32 + ^ r6: .cfa -28 + ^ r7: .cfa -24 + ^ r8: .cfa -20 + ^ r9: .cfa -16 + ^
STACK CFI 6e5bc .cfa: sp 96 +
STACK CFI INIT 6e784 22c .cfa: sp 0 + .ra: lr
STACK CFI 6e790 .cfa: sp 20 + r4: .cfa -20 + ^ r5: .cfa -16 + ^ r6: .cfa -12 + ^ r7: .cfa -8 + ^ r8: .cfa -4 + ^
STACK CFI INIT 6e9b0 520 .cfa: sp 0 + .ra: lr
STACK CFI 6e9b4 .cfa: sp 36 + .ra: .cfa -4 + ^ r10: .cfa -12 + ^ r11: .cfa -8 + ^ r4: .cfa -36 + ^ r5: .cfa -32 + ^ r6: .cfa -28 + ^ r7: .cfa -24 + ^ r8: .cfa -20 + ^ r9: .cfa -16 + ^
STACK CFI 6e9b8 .cfa: sp 176 +
STACK CFI INIT 6eed0 f0 .cfa: sp 0 + .ra: lr
STACK CFI 6eed4 .cfa: sp 16 + .ra: .cfa -4 + ^ r3: .cfa -16 + ^ r4: .cfa -12 + ^ r5: .cfa -8 + ^
STACK CFI INIT 6efc0 2e4 .cfa: sp 0 + .ra: lr
STACK CFI 6efc4 .cfa: sp 36 + .ra: .cfa -4 + ^ r10: .cfa -12 + ^ r11: .cfa -8 + ^ r4: .cfa -36 + ^ r5: .cfa -32 + ^ r6: .cfa -28 + ^ r7: .cfa -24 + ^ r8: .cfa -20 + ^ r9: .cfa -16 + ^
STACK CFI 6efcc .cfa: sp 76 + s16: .cfa -76 + ^ s18: .cfa -68 + ^ s20: .cfa -60 + ^ s22: .cfa -52 + ^ s24: .cfa -44 + ^
STACK CFI 6efd0 .cfa: sp 152 +
STACK CFI INIT 6f2a4 27c .cfa: sp 0 + .ra: lr
STACK CFI 6f2b0 .cfa: sp 36 + .ra: .cfa -4 + ^ r10: .cfa -12 + ^ r11: .cfa -8 + ^ r4: .cfa -36 + ^ r5: .cfa -32 + ^ r6: .cfa -28 + ^ r7: .cfa -24 + ^ r8: .cfa -20 + ^ r9: .cfa -16 + ^
STACK CFI 6f2b8 .cfa: sp 72 +
STACK CFI INIT 6f520 2614 .cfa: sp 0 + .ra: lr
STACK CFI 6f524 .cfa: sp 36 + .ra: .cfa -4 + ^ r10: .cfa -12 + ^ r11: .cfa -8 + ^ r4: .cfa -36 + ^ r5: .cfa -32 + ^ r6: .cfa -28 + ^ r7: .cfa -24 + ^ r8: .cfa -20 + ^ r9: .cfa -16 + ^
STACK CFI 6f53c .cfa: sp 76 + s16: .cfa -76 + ^ s18: .cfa -68 + ^ s20: .cfa -60 + ^ s22: .cfa -52 + ^ s24: .cfa -44 + ^
STACK CFI 6f540 .cfa: sp 1056 +
STACK CFI INIT 71b34 1568 .cfa: sp 0 + .ra: lr
STACK CFI 71b3c .cfa: sp 36 + .ra: .cfa -4 + ^ r10: .cfa -12 + ^ r11: .cfa -8 + ^ r4: .cfa -36 + ^ r5: .cfa -32 + ^ r6: .cfa -28 + ^ r7: .cfa -24 + ^ r8: .cfa -20 + ^ r9: .cfa -16 + ^
STACK CFI 71b44 .cfa: sp 76 + s16: .cfa -76 + ^ s18: .cfa -68 + ^ s20: .cfa -60 + ^ s22: .cfa -52 + ^ s24: .cfa -44 + ^
STACK CFI 71b48 .cfa: sp 496 +
STACK CFI INIT 7309c 368 .cfa: sp 0 + .ra: lr
STACK CFI 730a0 .cfa: sp 36 + .ra: .cfa -4 + ^ r10: .cfa -12 + ^ r11: .cfa -8 + ^ r4: .cfa -36 + ^ r5: .cfa -32 + ^ r6: .cfa -28 + ^ r7: .cfa -24 + ^ r8: .cfa -20 + ^ r9: .cfa -16 + ^
STACK CFI 730b8 .cfa: sp 44 + s16: .cfa -44 + ^
STACK CFI 730c0 .cfa: sp 120 +
STACK CFI INIT 73404 920 .cfa: sp 0 + .ra: lr
STACK CFI 73408 .cfa: sp 36 + .ra: .cfa -4 + ^ r10: .cfa -12 + ^ r11: .cfa -8 + ^ r4: .cfa -36 + ^ r5: .cfa -32 + ^ r6: .cfa -28 + ^ r7: .cfa -24 + ^ r8: .cfa -20 + ^ r9: .cfa -16 + ^
STACK CFI 73414 .cfa: sp 160 +
STACK CFI INIT 73d24 2bc .cfa: sp 0 + .ra: lr
STACK CFI 73d2c .cfa: sp 36 + .ra: .cfa -4 + ^ r10: .cfa -12 + ^ r11: .cfa -8 + ^ r4: .cfa -36 + ^ r5: .cfa -32 + ^ r6: .cfa -28 + ^ r7: .cfa -24 + ^ r8: .cfa -20 + ^ r9: .cfa -16 + ^
STACK CFI 73d34 .cfa: sp 48 +
STACK CFI INIT 73fe0 3a0 .cfa: sp 0 + .ra: lr
STACK CFI 73fe4 .cfa: sp 36 + .ra: .cfa -4 + ^ r10: .cfa -12 + ^ r11: .cfa -8 + ^ r4: .cfa -36 + ^ r5: .cfa -32 + ^ r6: .cfa -28 + ^ r7: .cfa -24 + ^ r8: .cfa -20 + ^ r9: .cfa -16 + ^
STACK CFI 73fec .cfa: sp 64 +
STACK CFI INIT 74380 880 .cfa: sp 0 + .ra: lr
STACK CFI 74388 .cfa: sp 36 + .ra: .cfa -4 + ^ r10: .cfa -12 + ^ r11: .cfa -8 + ^ r4: .cfa -36 + ^ r5: .cfa -32 + ^ r6: .cfa -28 + ^ r7: .cfa -24 + ^ r8: .cfa -20 + ^ r9: .cfa -16 + ^
STACK CFI 743a8 .cfa: sp 60 + s16: .cfa -60 + ^ s18: .cfa -52 + ^ s20: .cfa -44 + ^
STACK CFI 743ac .cfa: sp 96 +
STACK CFI INIT 74c00 324 .cfa: sp 0 + .ra: lr
STACK CFI 74c04 .cfa: sp 36 + .ra: .cfa -4 + ^ r10: .cfa -12 + ^ r11: .cfa -8 + ^ r4: .cfa -36 + ^ r5: .cfa -32 + ^ r6: .cfa -28 + ^ r7: .cfa -24 + ^ r8: .cfa -20 + ^ r9: .cfa -16 + ^
STACK CFI 74c10 .cfa: sp 232 +
STACK CFI INIT 74f24 210 .cfa: sp 0 + .ra: lr
STACK CFI 74f34 .cfa: sp 36 + .ra: .cfa -4 + ^ r10: .cfa -12 + ^ r11: .cfa -8 + ^ r4: .cfa -36 + ^ r5: .cfa -32 + ^ r6: .cfa -28 + ^ r7: .cfa -24 + ^ r8: .cfa -20 + ^ r9: .cfa -16 + ^
STACK CFI 74f3c .cfa: sp 48 +
STACK CFI INIT 75134 51c .cfa: sp 0 + .ra: lr
STACK CFI 75138 .cfa: sp 36 + .ra: .cfa -4 + ^ r10: .cfa -12 + ^ r11: .cfa -8 + ^ r4: .cfa -36 + ^ r5: .cfa -32 + ^ r6: .cfa -28 + ^ r7: .cfa -24 + ^ r8: .cfa -20 + ^ r9: .cfa -16 + ^
STACK CFI 75144 .cfa: sp 104 +
STACK CFI INIT 75650 18c .cfa: sp 0 + .ra: lr
STACK CFI 7565c .cfa: sp 40 + .ra: .cfa -4 + ^ r10: .cfa -12 + ^ r11: .cfa -8 + ^ r3: .cfa -40 + ^ r4: .cfa -36 + ^ r5: .cfa -32 + ^ r6: .cfa -28 + ^ r7: .cfa -24 + ^ r8: .cfa -20 + ^ r9: .cfa -16 + ^
STACK CFI INIT 757dc 168 .cfa: sp 0 + .ra: lr
STACK CFI 757e8 .cfa: sp 40 + .ra: .cfa -4 + ^ r10: .cfa -12 + ^ r11: .cfa -8 + ^ r3: .cfa -40 + ^ r4: .cfa -36 + ^ r5: .cfa -32 + ^ r6: .cfa -28 + ^ r7: .cfa -24 + ^ r8: .cfa -20 + ^ r9: .cfa -16 + ^
STACK CFI INIT 75944 3f8 .cfa: sp 0 + .ra: lr
STACK CFI 75950 .cfa: sp 28 + .ra: .cfa -4 + ^ r4: .cfa -28 + ^ r5: .cfa -24 + ^ r6: .cfa -20 + ^ r7: .cfa -16 + ^ r8: .cfa -12 + ^ r9: .cfa -8 + ^
STACK CFI 75954 .cfa: sp 232 +
STACK CFI INIT 75d3c 25c .cfa: sp 0 + .ra: lr
STACK CFI 75d48 .cfa: sp 20 + .ra: .cfa -4 + ^ r4: .cfa -20 + ^ r5: .cfa -16 + ^ r6: .cfa -12 + ^ r7: .cfa -8 + ^
STACK CFI 75d50 .cfa: sp 32 +
STACK CFI INIT 75f98 398 .cfa: sp 0 + .ra: lr
STACK CFI 75fa8 .cfa: sp 24 + .ra: .cfa -4 + ^ r4: .cfa -24 + ^ r5: .cfa -20 + ^ r6: .cfa -16 + ^ r7: .cfa -12 + ^ r8: .cfa -8 + ^
STACK CFI INIT 76330 88 .cfa: sp 0 + .ra: lr
STACK CFI 76338 .cfa: sp 24 + .ra: .cfa -4 + ^ r4: .cfa -24 + ^ r5: .cfa -20 + ^ r6: .cfa -16 + ^ r7: .cfa -12 + ^ r8: .cfa -8 + ^
STACK CFI INIT 763b8 590 .cfa: sp 0 + .ra: lr
STACK CFI 763c4 .cfa: sp 36 + .ra: .cfa -4 + ^ r10: .cfa -12 + ^ r11: .cfa -8 + ^ r4: .cfa -36 + ^ r5: .cfa -32 + ^ r6: .cfa -28 + ^ r7: .cfa -24 + ^ r8: .cfa -20 + ^ r9: .cfa -16 + ^
STACK CFI 763cc .cfa: sp 44 + s16: .cfa -44 + ^
STACK CFI 763d0 .cfa: sp 2252 +
STACK CFI 763d8 .cfa: sp 2264 +
STACK CFI INIT 76948 1e4 .cfa: sp 0 + .ra: lr
STACK CFI 7694c .cfa: sp 36 + .ra: .cfa -4 + ^ r10: .cfa -12 + ^ r11: .cfa -8 + ^ r4: .cfa -36 + ^ r5: .cfa -32 + ^ r6: .cfa -28 + ^ r7: .cfa -24 + ^ r8: .cfa -20 + ^ r9: .cfa -16 + ^
STACK CFI 7695c .cfa: sp 272 +
STACK CFI INIT 76b2c 344 .cfa: sp 0 + .ra: lr
STACK CFI 76b40 .cfa: sp 32 + r10: .cfa -8 + ^ r11: .cfa -4 + ^ r4: .cfa -32 + ^ r5: .cfa -28 + ^ r6: .cfa -24 + ^ r7: .cfa -20 + ^ r8: .cfa -16 + ^ r9: .cfa -12 + ^
STACK CFI 76b44 .cfa: sp 56 +
STACK CFI INIT 76e70 108 .cfa: sp 0 + .ra: lr
STACK CFI 76e7c .cfa: sp 24 + .ra: .cfa -4 + ^ r4: .cfa -24 + ^ r5: .cfa -20 + ^ r6: .cfa -16 + ^ r7: .cfa -12 + ^ r8: .cfa -8 + ^
STACK CFI 76e84 .cfa: sp 40 + s16: .cfa -40 + ^ s18: .cfa -32 + ^
STACK CFI 76e88 .cfa: sp 48 +
STACK CFI INIT 76f78 5d78 .cfa: sp 0 + .ra: lr
STACK CFI 76f7c .cfa: sp 36 + .ra: .cfa -4 + ^ r10: .cfa -12 + ^ r11: .cfa -8 + ^ r4: .cfa -36 + ^ r5: .cfa -32 + ^ r6: .cfa -28 + ^ r7: .cfa -24 + ^ r8: .cfa -20 + ^ r9: .cfa -16 + ^
STACK CFI 7700c .cfa: sp 192 +
STACK CFI INIT 7ccf0 c90 .cfa: sp 0 + .ra: lr
STACK CFI 7ccf4 .cfa: sp 36 + .ra: .cfa -4 + ^ r10: .cfa -12 + ^ r11: .cfa -8 + ^ r4: .cfa -36 + ^ r5: .cfa -32 + ^ r6: .cfa -28 + ^ r7: .cfa -24 + ^ r8: .cfa -20 + ^ r9: .cfa -16 + ^
STACK CFI 7cd0c .cfa: sp 44 + s16: .cfa -44 + ^
STACK CFI 7cd10 .cfa: sp 344 +
STACK CFI INIT 7d980 2e4 .cfa: sp 0 + .ra: lr
STACK CFI 7d984 .cfa: sp 36 + .ra: .cfa -4 + ^ r10: .cfa -12 + ^ r11: .cfa -8 + ^ r4: .cfa -36 + ^ r5: .cfa -32 + ^ r6: .cfa -28 + ^ r7: .cfa -24 + ^ r8: .cfa -20 + ^ r9: .cfa -16 + ^
STACK CFI 7d994 .cfa: sp 44 + s16: .cfa -44 + ^
STACK CFI 7d998 .cfa: sp 72 +
STACK CFI INIT 7dc64 3ac .cfa: sp 0 + .ra: lr
STACK CFI 7dc68 .cfa: sp 36 + .ra: .cfa -4 + ^ r10: .cfa -12 + ^ r11: .cfa -8 + ^ r4: .cfa -36 + ^ r5: .cfa -32 + ^ r6: .cfa -28 + ^ r7: .cfa -24 + ^ r8: .cfa -20 + ^ r9: .cfa -16 + ^
STACK CFI 7dc80 .cfa: sp 52 + s16: .cfa -52 + ^ s18: .cfa -44 + ^
STACK CFI 7dc84 .cfa: sp 72 +
STACK CFI INIT 7e010 48 .cfa: sp 0 + .ra: lr
STACK CFI INIT 7e058 1f0 .cfa: sp 0 + .ra: lr
STACK CFI 7e05c .cfa: sp 24 + .ra: .cfa -4 + ^ r3: .cfa -24 + ^ r4: .cfa -20 + ^ r5: .cfa -16 + ^ r6: .cfa -12 + ^ r7: .cfa -8 + ^
STACK CFI 7e084 .cfa: sp 64 + s16: .cfa -64 + ^ s18: .cfa -56 + ^ s20: .cfa -48 + ^ s22: .cfa -40 + ^ s24: .cfa -32 + ^
STACK CFI INIT 7e248 90 .cfa: sp 0 + .ra: lr
STACK CFI 7e254 .cfa: sp 8 + r4: .cfa -8 + ^ r5: .cfa -4 + ^
STACK CFI INIT 7e2d8 80c .cfa: sp 0 + .ra: lr
STACK CFI 7e2dc .cfa: sp 36 + .ra: .cfa -4 + ^ r10: .cfa -12 + ^ r11: .cfa -8 + ^ r4: .cfa -36 + ^ r5: .cfa -32 + ^ r6: .cfa -28 + ^ r7: .cfa -24 + ^ r8: .cfa -20 + ^ r9: .cfa -16 + ^
STACK CFI 7e2e8 .cfa: sp 56 +
STACK CFI INIT 7eae4 124 .cfa: sp 0 + .ra: lr
STACK CFI 7eae8 .cfa: sp 24 + .ra: .cfa -4 + ^ r4: .cfa -24 + ^ r5: .cfa -20 + ^ r6: .cfa -16 + ^ r7: .cfa -12 + ^ r8: .cfa -8 + ^
STACK CFI 7eaf0 .cfa: sp 1416 +
STACK CFI INIT 7ec08 3c8 .cfa: sp 0 + .ra: lr
STACK CFI 7ec10 .cfa: sp 36 + .ra: .cfa -4 + ^ r10: .cfa -12 + ^ r11: .cfa -8 + ^ r4: .cfa -36 + ^ r5: .cfa -32 + ^ r6: .cfa -28 + ^ r7: .cfa -24 + ^ r8: .cfa -20 + ^ r9: .cfa -16 + ^
STACK CFI 7ec20 .cfa: sp 66596 +
STACK CFI 7ec30 .cfa: sp 67000 +
STACK CFI INIT 7efd0 a8 .cfa: sp 0 + .ra: lr
STACK CFI 7efd4 .cfa: sp 24 + .ra: .cfa -4 + ^ r3: .cfa -24 + ^ r4: .cfa -20 + ^ r5: .cfa -16 + ^ r6: .cfa -12 + ^ r7: .cfa -8 + ^
STACK CFI INIT 7f078 48 .cfa: sp 0 + .ra: lr
STACK CFI 7f080 .cfa: sp 8 + .ra: .cfa -4 + ^ r4: .cfa -8 + ^
STACK CFI INIT 7f0c0 25c .cfa: sp 0 + .ra: lr
STACK CFI 7f0c4 .cfa: sp 8 + .ra: .cfa -4 + ^ r4: .cfa -8 + ^
STACK CFI INIT 7f31c 780 .cfa: sp 0 + .ra: lr
STACK CFI 7f328 .cfa: sp 36 + .ra: .cfa -4 + ^ r10: .cfa -12 + ^ r11: .cfa -8 + ^ r4: .cfa -36 + ^ r5: .cfa -32 + ^ r6: .cfa -28 + ^ r7: .cfa -24 + ^ r8: .cfa -20 + ^ r9: .cfa -16 + ^
STACK CFI 7f330 .cfa: sp 44 + s16: .cfa -44 + ^
STACK CFI 7f338 .cfa: sp 64 +
STACK CFI INIT 7faa0 38 .cfa: sp 0 + .ra: lr
STACK CFI 7faa4 .cfa: sp 16 + .ra: .cfa -4 + ^ r3: .cfa -16 + ^ r4: .cfa -12 + ^ r5: .cfa -8 + ^
STACK CFI INIT 192d0 3c .cfa: sp 0 + .ra: lr
STACK CFI 192d4 .cfa: sp 16 + .ra: .cfa -4 + ^ r4: .cfa -16 + ^ r5: .cfa -12 + ^ r6: .cfa -8 + ^
STACK CFI INIT 7fad8 9c .cfa: sp 0 + .ra: lr
STACK CFI 7fadc .cfa: sp 16 + .ra: .cfa -4 + ^ r4: .cfa -16 + ^ r5: .cfa -12 + ^ r6: .cfa -8 + ^
STACK CFI 7fae8 .cfa: sp 24 +
STACK CFI INIT 7fb74 1c .cfa: sp 0 + .ra: lr
STACK CFI INIT 7fb90 31dc .cfa: sp 0 + .ra: lr
STACK CFI 7fb94 .cfa: sp 36 + .ra: .cfa -4 + ^ r10: .cfa -12 + ^ r11: .cfa -8 + ^ r4: .cfa -36 + ^ r5: .cfa -32 + ^ r6: .cfa -28 + ^ r7: .cfa -24 + ^ r8: .cfa -20 + ^ r9: .cfa -16 + ^
STACK CFI 7fb98 .cfa: sp 800 +
STACK CFI INIT 82d6c 3d4 .cfa: sp 0 + .ra: lr
STACK CFI 82d74 .cfa: sp 36 + .ra: .cfa -4 + ^ r10: .cfa -12 + ^ r11: .cfa -8 + ^ r4: .cfa -36 + ^ r5: .cfa -32 + ^ r6: .cfa -28 + ^ r7: .cfa -24 + ^ r8: .cfa -20 + ^ r9: .cfa -16 + ^
STACK CFI 82d7c .cfa: sp 96 +
STACK CFI INIT 83140 29b0 .cfa: sp 0 + .ra: lr
STACK CFI 83144 .cfa: sp 36 + .ra: .cfa -4 + ^ r10: .cfa -12 + ^ r11: .cfa -8 + ^ r4: .cfa -36 + ^ r5: .cfa -32 + ^ r6: .cfa -28 + ^ r7: .cfa -24 + ^ r8: .cfa -20 + ^ r9: .cfa -16 + ^
STACK CFI 83150 .cfa: sp 256 +
STACK CFI INIT 85af0 268 .cfa: sp 0 + .ra: lr
STACK CFI 85af4 .cfa: sp 40 + .ra: .cfa -4 + ^ r10: .cfa -12 + ^ r11: .cfa -8 + ^ r3: .cfa -40 + ^ r4: .cfa -36 + ^ r5: .cfa -32 + ^ r6: .cfa -28 + ^ r7: .cfa -24 + ^ r8: .cfa -20 + ^ r9: .cfa -16 + ^
STACK CFI INIT 85d58 d4 .cfa: sp 0 + .ra: lr
STACK CFI 85d60 .cfa: sp 16 + .ra: .cfa -4 + ^ r4: .cfa -16 + ^ r5: .cfa -12 + ^ r6: .cfa -8 + ^
STACK CFI INIT 85e2c 88 .cfa: sp 0 + .ra: lr
STACK CFI 85e34 .cfa: sp 8 + .ra: .cfa -4 + ^ r4: .cfa -8 + ^
STACK CFI INIT 85eb4 44 .cfa: sp 0 + .ra: lr
STACK CFI INIT 85ef8 48 .cfa: sp 0 + .ra: lr
STACK CFI 85efc .cfa: sp 4 + r4: .cfa -4 + ^
STACK CFI INIT 85f40 1e4 .cfa: sp 0 + .ra: lr
STACK CFI 85f44 .cfa: sp 24 + .ra: .cfa -4 + ^ r4: .cfa -24 + ^ r5: .cfa -20 + ^ r6: .cfa -16 + ^ r7: .cfa -12 + ^ r8: .cfa -8 + ^
STACK CFI INIT 86124 1c4 .cfa: sp 0 + .ra: lr
STACK CFI 8612c .cfa: sp 12 + r4: .cfa -12 + ^ r5: .cfa -8 + ^ r6: .cfa -4 + ^
STACK CFI INIT 862e8 924 .cfa: sp 0 + .ra: lr
STACK CFI 862f4 .cfa: sp 36 + .ra: .cfa -4 + ^ r10: .cfa -12 + ^ r11: .cfa -8 + ^ r4: .cfa -36 + ^ r5: .cfa -32 + ^ r6: .cfa -28 + ^ r7: .cfa -24 + ^ r8: .cfa -20 + ^ r9: .cfa -16 + ^
STACK CFI 862f8 .cfa: sp 1876 +
STACK CFI 86310 .cfa: sp 1880 +
STACK CFI INIT 86c0c 170 .cfa: sp 0 + .ra: lr
STACK CFI 86c10 .cfa: sp 40 + .ra: .cfa -4 + ^ r10: .cfa -12 + ^ r11: .cfa -8 + ^ r3: .cfa -40 + ^ r4: .cfa -36 + ^ r5: .cfa -32 + ^ r6: .cfa -28 + ^ r7: .cfa -24 + ^ r8: .cfa -20 + ^ r9: .cfa -16 + ^
STACK CFI INIT 86d7c 4c .cfa: sp 0 + .ra: lr
STACK CFI INIT 86dc8 34 .cfa: sp 0 + .ra: lr
STACK CFI INIT 86dfc 14 .cfa: sp 0 + .ra: lr
STACK CFI INIT 86e10 d14 .cfa: sp 0 + .ra: lr
STACK CFI 86e14 .cfa: sp 36 + .ra: .cfa -4 + ^ r10: .cfa -12 + ^ r11: .cfa -8 + ^ r4: .cfa -36 + ^ r5: .cfa -32 + ^ r6: .cfa -28 + ^ r7: .cfa -24 + ^ r8: .cfa -20 + ^ r9: .cfa -16 + ^
STACK CFI 86e1c .cfa: sp 104 +
STACK CFI INIT 87b24 60 .cfa: sp 0 + .ra: lr
STACK CFI INIT 87b84 60 .cfa: sp 0 + .ra: lr
STACK CFI INIT 87be4 84 .cfa: sp 0 + .ra: lr
STACK CFI INIT 87c68 9c .cfa: sp 0 + .ra: lr
STACK CFI 87c70 .cfa: sp 16 + .ra: .cfa -4 + ^ r3: .cfa -16 + ^ r4: .cfa -12 + ^ r5: .cfa -8 + ^
STACK CFI INIT 87d04 b8 .cfa: sp 0 + .ra: lr
STACK CFI 87d0c .cfa: sp 16 + .ra: .cfa -4 + ^ r3: .cfa -16 + ^ r4: .cfa -12 + ^ r5: .cfa -8 + ^
STACK CFI INIT 87dbc 100 .cfa: sp 0 + .ra: lr
STACK CFI 87dc0 .cfa: sp 16 + .ra: .cfa -4 + ^ r3: .cfa -16 + ^ r4: .cfa -12 + ^ r5: .cfa -8 + ^
STACK CFI INIT 87ebc 3d8 .cfa: sp 0 + .ra: lr
STACK CFI 87ec0 .cfa: sp 36 + .ra: .cfa -4 + ^ r10: .cfa -12 + ^ r11: .cfa -8 + ^ r4: .cfa -36 + ^ r5: .cfa -32 + ^ r6: .cfa -28 + ^ r7: .cfa -24 + ^ r8: .cfa -20 + ^ r9: .cfa -16 + ^
STACK CFI 87ec4 .cfa: sp 88 +
STACK CFI INIT 88294 220 .cfa: sp 0 + .ra: lr
STACK CFI 88298 .cfa: sp 36 + .ra: .cfa -4 + ^ r10: .cfa -12 + ^ r11: .cfa -8 + ^ r4: .cfa -36 + ^ r5: .cfa -32 + ^ r6: .cfa -28 + ^ r7: .cfa -24 + ^ r8: .cfa -20 + ^ r9: .cfa -16 + ^
STACK CFI 8829c .cfa: sp 4132 +
STACK CFI 882a0 .cfa: sp 4184 +
STACK CFI INIT 884b4 130 .cfa: sp 0 + .ra: lr
STACK CFI 884bc .cfa: sp 16 + .ra: .cfa -4 + ^ r3: .cfa -16 + ^ r4: .cfa -12 + ^ r5: .cfa -8 + ^
STACK CFI INIT 885e4 b0 .cfa: sp 0 + .ra: lr
STACK CFI 885ec .cfa: sp 16 + .ra: .cfa -4 + ^ r4: .cfa -16 + ^ r5: .cfa -12 + ^ r6: .cfa -8 + ^
STACK CFI INIT fadec 44 .cfa: sp 0 + .ra: lr
STACK CFI fadf8 .cfa: sp 4 + r4: .cfa -4 + ^
STACK CFI INIT fae30 11c .cfa: sp 0 + .ra: lr
STACK CFI fae38 .cfa: sp 24 + .ra: .cfa -4 + ^ r4: .cfa -24 + ^ r5: .cfa -20 + ^ r6: .cfa -16 + ^ r7: .cfa -12 + ^ r8: .cfa -8 + ^
STACK CFI fae40 .cfa: sp 40 +
STACK CFI INIT faf4c 74 .cfa: sp 0 + .ra: lr
STACK CFI faf54 .cfa: sp 8 + .ra: .cfa -4 + ^ r3: .cfa -8 + ^
STACK CFI INIT fafc0 e0 .cfa: sp 0 + .ra: lr
STACK CFI fafc4 .cfa: sp 24 + .ra: .cfa -4 + ^ r3: .cfa -24 + ^ r4: .cfa -20 + ^ r5: .cfa -16 + ^ r6: .cfa -12 + ^ r7: .cfa -8 + ^
STACK CFI INIT fb0a0 668 .cfa: sp 0 + .ra: lr
STACK CFI fb0a8 .cfa: sp 36 + .ra: .cfa -4 + ^ r10: .cfa -12 + ^ r11: .cfa -8 + ^ r4: .cfa -36 + ^ r5: .cfa -32 + ^ r6: .cfa -28 + ^ r7: .cfa -24 + ^ r8: .cfa -20 + ^ r9: .cfa -16 + ^
STACK CFI fb0b0 .cfa: sp 128 +
STACK CFI INIT fb708 8 .cfa: sp 0 + .ra: lr
STACK CFI INIT fb710 e0 .cfa: sp 0 + .ra: lr
STACK CFI fb714 .cfa: sp 8 + .ra: .cfa -4 + ^ r4: .cfa -8 + ^
STACK CFI INIT fb7f0 d8 .cfa: sp 0 + .ra: lr
STACK CFI fb7f4 .cfa: sp 8 + .ra: .cfa -4 + ^ r3: .cfa -8 + ^
STACK CFI INIT fb8c8 18 .cfa: sp 0 + .ra: lr
STACK CFI fb8cc .cfa: sp 8 + .ra: .cfa -4 + ^ r3: .cfa -8 + ^
STACK CFI INIT fb8e0 a4 .cfa: sp 0 + .ra: lr
STACK CFI fb8e8 .cfa: sp 16 + .ra: .cfa -4 + ^ r4: .cfa -16 + ^ r5: .cfa -12 + ^ r6: .cfa -8 + ^
STACK CFI INIT fb984 70 .cfa: sp 0 + .ra: lr
STACK CFI INIT fb9f4 2c .cfa: sp 0 + .ra: lr
STACK CFI fb9f8 .cfa: sp 8 + .ra: .cfa -4 + ^ r4: .cfa -8 + ^
STACK CFI INIT fba20 168 .cfa: sp 0 + .ra: lr
STACK CFI fba24 .cfa: sp 36 + .ra: .cfa -4 + ^ r10: .cfa -12 + ^ r11: .cfa -8 + ^ r4: .cfa -36 + ^ r5: .cfa -32 + ^ r6: .cfa -28 + ^ r7: .cfa -24 + ^ r8: .cfa -20 + ^ r9: .cfa -16 + ^
STACK CFI fba28 .cfa: sp 64 +
STACK CFI INIT fbb88 34 .cfa: sp 0 + .ra: lr
STACK CFI fbb8c .cfa: sp 8 + .ra: .cfa -4 + ^ r4: .cfa -8 + ^
STACK CFI INIT fbbbc 3c .cfa: sp 0 + .ra: lr
STACK CFI fbbc0 .cfa: sp 16 + .ra: .cfa -4 + ^ r3: .cfa -16 + ^ r4: .cfa -12 + ^ r5: .cfa -8 + ^
STACK CFI INIT fbbf8 48 .cfa: sp 0 + .ra: lr
STACK CFI fbbfc .cfa: sp 8 + .ra: .cfa -4 + ^ r3: .cfa -8 + ^
STACK CFI INIT fbc40 90 .cfa: sp 0 + .ra: lr
STACK CFI fbc48 .cfa: sp 8 + .ra: .cfa -4 + ^ r4: .cfa -8 + ^
STACK CFI INIT 193c4 5c .cfa: sp 0 + .ra: lr
STACK CFI 193c8 .cfa: sp 8 + .ra: .cfa -4 + ^ r4: .cfa -8 + ^
STACK CFI INIT fbcd0 28 .cfa: sp 0 + .ra: lr
STACK CFI fbcd8 .cfa: sp 8 + .ra: .cfa -4 + ^ r4: .cfa -8 + ^
STACK CFI INIT fbcf8 1c .cfa: sp 0 + .ra: lr
STACK CFI fbcfc .cfa: sp 8 + .ra: .cfa -4 + ^ r4: .cfa -8 + ^
STACK CFI INIT fbd14 64 .cfa: sp 0 + .ra: lr
STACK CFI fbd18 .cfa: sp 16 + .ra: .cfa -4 + ^ r4: .cfa -16 + ^ r5: .cfa -12 + ^ r6: .cfa -8 + ^
STACK CFI fbd1c .cfa: sp 32 +
STACK CFI INIT fbd78 e0 .cfa: sp 0 + .ra: lr
STACK CFI fbd7c .cfa: sp 36 + .ra: .cfa -4 + ^ r10: .cfa -12 + ^ r11: .cfa -8 + ^ r4: .cfa -36 + ^ r5: .cfa -32 + ^ r6: .cfa -28 + ^ r7: .cfa -24 + ^ r8: .cfa -20 + ^ r9: .cfa -16 + ^
STACK CFI fbd80 .cfa: sp 56 +
STACK CFI INIT fbe58 40 .cfa: sp 0 + .ra: lr
STACK CFI fbe5c .cfa: sp 24 + .ra: .cfa -4 + ^ r3: .cfa -24 + ^ r4: .cfa -20 + ^ r5: .cfa -16 + ^ r6: .cfa -12 + ^ r7: .cfa -8 + ^
STACK CFI INIT fbe98 4 .cfa: sp 0 + .ra: lr
STACK CFI INIT fbe9c 5c .cfa: sp 0 + .ra: lr
STACK CFI fbea4 .cfa: sp 12 + .ra: .cfa -4 + ^ r4: .cfa -12 + ^ r5: .cfa -8 + ^
STACK CFI fbea8 .cfa: sp 32 +
STACK CFI INIT fbef8 14 .cfa: sp 0 + .ra: lr
STACK CFI INIT fbf0c 28 .cfa: sp 0 + .ra: lr
STACK CFI fbf14 .cfa: sp 8 + .ra: .cfa -4 + ^ r4: .cfa -8 + ^
STACK CFI INIT fbf34 1c .cfa: sp 0 + .ra: lr
STACK CFI fbf38 .cfa: sp 8 + .ra: .cfa -4 + ^ r4: .cfa -8 + ^
STACK CFI INIT fbf50 2c .cfa: sp 0 + .ra: lr
STACK CFI fbf54 .cfa: sp 16 + .ra: .cfa -4 + ^ r3: .cfa -16 + ^ r4: .cfa -12 + ^ r5: .cfa -8 + ^
STACK CFI INIT fbf7c 44 .cfa: sp 0 + .ra: lr
STACK CFI fbf80 .cfa: sp 24 + .ra: .cfa -4 + ^ r3: .cfa -24 + ^ r4: .cfa -20 + ^ r5: .cfa -16 + ^ r6: .cfa -12 + ^ r7: .cfa -8 + ^
STACK CFI INIT fbfc0 78 .cfa: sp 0 + .ra: lr
STACK CFI fbfc4 .cfa: sp 16 + .ra: .cfa -4 + ^ r4: .cfa -16 + ^ r5: .cfa -12 + ^ r6: .cfa -8 + ^
STACK CFI fbfc8 .cfa: sp 24 +
STACK CFI INIT fc038 60 .cfa: sp 0 + .ra: lr
STACK CFI fc040 .cfa: sp 8 + .ra: .cfa -4 + ^ r4: .cfa -8 + ^
STACK CFI INIT fc098 b8 .cfa: sp 0 + .ra: lr
STACK CFI fc09c .cfa: sp 32 + .ra: .cfa -4 + ^ r3: .cfa -32 + ^ r4: .cfa -28 + ^ r5: .cfa -24 + ^ r6: .cfa -20 + ^ r7: .cfa -16 + ^ r8: .cfa -12 + ^ r9: .cfa -8 + ^
STACK CFI INIT fc150 b0 .cfa: sp 0 + .ra: lr
STACK CFI fc154 .cfa: sp 8 + .ra: .cfa -4 + ^ r4: .cfa -8 + ^
STACK CFI INIT fc200 28 .cfa: sp 0 + .ra: lr
STACK CFI fc208 .cfa: sp 8 + .ra: .cfa -4 + ^ r4: .cfa -8 + ^
STACK CFI INIT fc228 1c .cfa: sp 0 + .ra: lr
STACK CFI fc22c .cfa: sp 8 + .ra: .cfa -4 + ^ r4: .cfa -8 + ^
STACK CFI INIT fc244 18 .cfa: sp 0 + .ra: lr
STACK CFI INIT fc25c 28 .cfa: sp 0 + .ra: lr
STACK CFI fc264 .cfa: sp 8 + .ra: .cfa -4 + ^ r4: .cfa -8 + ^
STACK CFI INIT fc284 18 .cfa: sp 0 + .ra: lr
STACK CFI INIT fc29c 18 .cfa: sp 0 + .ra: lr
STACK CFI INIT fc2b4 10 .cfa: sp 0 + .ra: lr
STACK CFI INIT fc2c4 10 .cfa: sp 0 + .ra: lr
STACK CFI INIT fc2d4 1c .cfa: sp 0 + .ra: lr
STACK CFI fc2d8 .cfa: sp 8 + .ra: .cfa -4 + ^ r4: .cfa -8 + ^
STACK CFI INIT fc2f0 1c .cfa: sp 0 + .ra: lr
STACK CFI fc2f4 .cfa: sp 8 + .ra: .cfa -4 + ^ r4: .cfa -8 + ^
STACK CFI INIT fc30c 1c .cfa: sp 0 + .ra: lr
STACK CFI fc310 .cfa: sp 8 + .ra: .cfa -4 + ^ r4: .cfa -8 + ^
STACK CFI INIT fc328 1c .cfa: sp 0 + .ra: lr
STACK CFI fc32c .cfa: sp 8 + .ra: .cfa -4 + ^ r4: .cfa -8 + ^
STACK CFI INIT fc344 c .cfa: sp 0 + .ra: lr
STACK CFI INIT fc360 144 .cfa: sp 0 + .ra: lr
STACK CFI fc364 .cfa: sp 20 + .ra: .cfa -4 + ^ r4: .cfa -20 + ^ r5: .cfa -16 + ^ r6: .cfa -12 + ^ r7: .cfa -8 + ^
STACK CFI fc370 .cfa: sp 32 +
STACK CFI INIT fc4a4 b4 .cfa: sp 0 + .ra: lr
STACK CFI fc4a8 .cfa: sp 8 + .ra: .cfa -4 + ^ r4: .cfa -8 + ^
STACK CFI INIT fc558 b4 .cfa: sp 0 + .ra: lr
STACK CFI fc55c .cfa: sp 8 + .ra: .cfa -4 + ^ r3: .cfa -8 + ^
STACK CFI INIT fc60c 34 .cfa: sp 0 + .ra: lr
STACK CFI fc610 .cfa: sp 8 + .ra: .cfa -4 + ^ r3: .cfa -8 + ^
STACK CFI INIT fc640 18 .cfa: sp 0 + .ra: lr
STACK CFI fc644 .cfa: sp 8 + .ra: .cfa -4 + ^ r3: .cfa -8 + ^
STACK CFI INIT fc658 c .cfa: sp 0 + .ra: lr
STACK CFI fc65c .cfa: sp 8 + .ra: .cfa -4 + ^ r3: .cfa -8 + ^
STACK CFI INIT fc664 18 .cfa: sp 0 + .ra: lr
STACK CFI fc668 .cfa: sp 8 + .ra: .cfa -4 + ^ r3: .cfa -8 + ^
STACK CFI INIT fc67c 1c .cfa: sp 0 + .ra: lr
STACK CFI INIT fc698 1c .cfa: sp 0 + .ra: lr
STACK CFI INIT fc6b4 1c .cfa: sp 0 + .ra: lr
STACK CFI fc6b8 .cfa: sp 8 + .ra: .cfa -4 + ^ r3: .cfa -8 + ^
STACK CFI INIT fc6d0 10 .cfa: sp 0 + .ra: lr
STACK CFI INIT fc6e0 10 .cfa: sp 0 + .ra: lr
STACK CFI INIT fc6f0 28 .cfa: sp 0 + .ra: lr
STACK CFI fc6f8 .cfa: sp 8 + .ra: .cfa -4 + ^ r4: .cfa -8 + ^
STACK CFI INIT fc718 28 .cfa: sp 0 + .ra: lr
STACK CFI fc720 .cfa: sp 8 + .ra: .cfa -4 + ^ r4: .cfa -8 + ^
STACK CFI INIT fc740 30 .cfa: sp 0 + .ra: lr
STACK CFI fc748 .cfa: sp 8 + .ra: .cfa -4 + ^ r4: .cfa -8 + ^
STACK CFI INIT fc770 30 .cfa: sp 0 + .ra: lr
STACK CFI fc778 .cfa: sp 8 + .ra: .cfa -4 + ^ r4: .cfa -8 + ^
STACK CFI INIT fc7a0 3c .cfa: sp 0 + .ra: lr
STACK CFI fc7a4 .cfa: sp 8 + .ra: .cfa -4 + ^ r3: .cfa -8 + ^
STACK CFI INIT fc7dc 3c .cfa: sp 0 + .ra: lr
STACK CFI fc7e0 .cfa: sp 8 + .ra: .cfa -4 + ^ r3: .cfa -8 + ^
STACK CFI INIT fc818 e0 .cfa: sp 0 + .ra: lr
STACK CFI fc81c .cfa: sp 16 + .ra: .cfa -4 + ^ r3: .cfa -16 + ^ r4: .cfa -12 + ^ r5: .cfa -8 + ^
STACK CFI INIT fc8f8 a0 .cfa: sp 0 + .ra: lr
STACK CFI fc900 .cfa: sp 8 + .ra: .cfa -4 + ^ r4: .cfa -8 + ^
STACK CFI INIT fc998 dc .cfa: sp 0 + .ra: lr
STACK CFI fc99c .cfa: sp 8 + .ra: .cfa -4 + ^ r4: .cfa -8 + ^
STACK CFI INIT fca74 a8 .cfa: sp 0 + .ra: lr
STACK CFI fca7c .cfa: sp 8 + .ra: .cfa -4 + ^ r4: .cfa -8 + ^
STACK CFI INIT 19420 18 .cfa: sp 0 + .ra: lr
STACK CFI INIT fcb1c 10 .cfa: sp 0 + .ra: lr
STACK CFI INIT fcb2c 1c .cfa: sp 0 + .ra: lr
STACK CFI INIT fcb48 20 .cfa: sp 0 + .ra: lr
STACK CFI fcb54 .cfa: sp 8 + .ra: .cfa -4 + ^ r3: .cfa -8 + ^
STACK CFI INIT fcb68 20 .cfa: sp 0 + .ra: lr
STACK CFI fcb74 .cfa: sp 8 + .ra: .cfa -4 + ^ r3: .cfa -8 + ^
STACK CFI INIT fcb88 10 .cfa: sp 0 + .ra: lr
STACK CFI INIT fcb98 28 .cfa: sp 0 + .ra: lr
STACK CFI fcba0 .cfa: sp 8 + .ra: .cfa -4 + ^ r4: .cfa -8 + ^
STACK CFI INIT fcbc0 1c .cfa: sp 0 + .ra: lr
STACK CFI fcbc4 .cfa: sp 8 + .ra: .cfa -4 + ^ r4: .cfa -8 + ^
STACK CFI INIT fcbdc 4c .cfa: sp 0 + .ra: lr
STACK CFI fcbe0 .cfa: sp 8 + .ra: .cfa -4 + ^ r4: .cfa -8 + ^
STACK CFI INIT fcc28 4c .cfa: sp 0 + .ra: lr
STACK CFI fcc2c .cfa: sp 8 + .ra: .cfa -4 + ^ r4: .cfa -8 + ^
STACK CFI INIT fcc74 4c .cfa: sp 0 + .ra: lr
STACK CFI fcc78 .cfa: sp 8 + .ra: .cfa -4 + ^ r4: .cfa -8 + ^
STACK CFI INIT fccc0 4c .cfa: sp 0 + .ra: lr
STACK CFI fccc4 .cfa: sp 8 + .ra: .cfa -4 + ^ r4: .cfa -8 + ^
STACK CFI INIT fcd0c 88 .cfa: sp 0 + .ra: lr
STACK CFI fcd10 .cfa: sp 16 + .ra: .cfa -4 + ^ r4: .cfa -16 + ^ r5: .cfa -12 + ^ r6: .cfa -8 + ^
STACK CFI fcd18 .cfa: sp 32 +
STACK CFI INIT fcd94 88 .cfa: sp 0 + .ra: lr
STACK CFI fcd98 .cfa: sp 16 + .ra: .cfa -4 + ^ r4: .cfa -16 + ^ r5: .cfa -12 + ^ r6: .cfa -8 + ^
STACK CFI fcda0 .cfa: sp 32 +
STACK CFI INIT fce1c 88 .cfa: sp 0 + .ra: lr
STACK CFI fce20 .cfa: sp 16 + .ra: .cfa -4 + ^ r4: .cfa -16 + ^ r5: .cfa -12 + ^ r6: .cfa -8 + ^
STACK CFI fce28 .cfa: sp 32 +
STACK CFI INIT fcea4 88 .cfa: sp 0 + .ra: lr
STACK CFI fcea8 .cfa: sp 16 + .ra: .cfa -4 + ^ r4: .cfa -16 + ^ r5: .cfa -12 + ^ r6: .cfa -8 + ^
STACK CFI fceb0 .cfa: sp 32 +
STACK CFI INIT fcf2c 88 .cfa: sp 0 + .ra: lr
STACK CFI fcf30 .cfa: sp 16 + .ra: .cfa -4 + ^ r4: .cfa -16 + ^ r5: .cfa -12 + ^ r6: .cfa -8 + ^
STACK CFI fcf38 .cfa: sp 32 +
STACK CFI INIT fcfb4 88 .cfa: sp 0 + .ra: lr
STACK CFI fcfb8 .cfa: sp 16 + .ra: .cfa -4 + ^ r4: .cfa -16 + ^ r5: .cfa -12 + ^ r6: .cfa -8 + ^
STACK CFI fcfc0 .cfa: sp 32 +
STACK CFI INIT fd03c 88 .cfa: sp 0 + .ra: lr
STACK CFI fd040 .cfa: sp 16 + .ra: .cfa -4 + ^ r4: .cfa -16 + ^ r5: .cfa -12 + ^ r6: .cfa -8 + ^
STACK CFI fd048 .cfa: sp 32 +
STACK CFI INIT fd0c4 88 .cfa: sp 0 + .ra: lr
STACK CFI fd0c8 .cfa: sp 16 + .ra: .cfa -4 + ^ r4: .cfa -16 + ^ r5: .cfa -12 + ^ r6: .cfa -8 + ^
STACK CFI fd0d0 .cfa: sp 32 +
STACK CFI INIT fd14c 88 .cfa: sp 0 + .ra: lr
STACK CFI fd150 .cfa: sp 16 + .ra: .cfa -4 + ^ r4: .cfa -16 + ^ r5: .cfa -12 + ^ r6: .cfa -8 + ^
STACK CFI fd158 .cfa: sp 32 +
STACK CFI INIT fd1d4 74 .cfa: sp 0 + .ra: lr
STACK CFI fd1d8 .cfa: sp 16 + .ra: .cfa -4 + ^ r4: .cfa -16 + ^ r5: .cfa -12 + ^ r6: .cfa -8 + ^
STACK CFI fd1e0 .cfa: sp 32 +
STACK CFI INIT fd248 b4 .cfa: sp 0 + .ra: lr
STACK CFI fd24c .cfa: sp 20 + .ra: .cfa -4 + ^ r4: .cfa -20 + ^ r5: .cfa -16 + ^ r6: .cfa -12 + ^ r7: .cfa -8 + ^
STACK CFI fd254 .cfa: sp 32 +
STACK CFI INIT fd2fc b4 .cfa: sp 0 + .ra: lr
STACK CFI fd300 .cfa: sp 20 + .ra: .cfa -4 + ^ r4: .cfa -20 + ^ r5: .cfa -16 + ^ r6: .cfa -12 + ^ r7: .cfa -8 + ^
STACK CFI fd308 .cfa: sp 40 +
STACK CFI INIT fd3b0 4c .cfa: sp 0 + .ra: lr
STACK CFI fd3b4 .cfa: sp 8 + .ra: .cfa -4 + ^ r4: .cfa -8 + ^
STACK CFI INIT fd3fc 48 .cfa: sp 0 + .ra: lr
STACK CFI fd400 .cfa: sp 16 + .ra: .cfa -4 + ^ r3: .cfa -16 + ^ r4: .cfa -12 + ^ r5: .cfa -8 + ^
STACK CFI INIT fd444 10 .cfa: sp 0 + .ra: lr
STACK CFI INIT fd454 28 .cfa: sp 0 + .ra: lr
STACK CFI fd45c .cfa: sp 8 + .ra: .cfa -4 + ^ r4: .cfa -8 + ^
STACK CFI INIT fd47c 30 .cfa: sp 0 + .ra: lr
STACK CFI fd484 .cfa: sp 8 + .ra: .cfa -4 + ^ r4: .cfa -8 + ^
STACK CFI INIT fd4ac 4 .cfa: sp 0 + .ra: lr
STACK CFI INIT fd4b0 10 .cfa: sp 0 + .ra: lr
STACK CFI INIT fd4c0 28 .cfa: sp 0 + .ra: lr
STACK CFI fd4c8 .cfa: sp 8 + .ra: .cfa -4 + ^ r4: .cfa -8 + ^
STACK CFI INIT fd4e8 30 .cfa: sp 0 + .ra: lr
STACK CFI fd4f0 .cfa: sp 8 + .ra: .cfa -4 + ^ r4: .cfa -8 + ^
STACK CFI INIT fd518 28 .cfa: sp 0 + .ra: lr
STACK CFI fd520 .cfa: sp 8 + .ra: .cfa -4 + ^ r4: .cfa -8 + ^
STACK CFI INIT fd540 30 .cfa: sp 0 + .ra: lr
STACK CFI fd548 .cfa: sp 8 + .ra: .cfa -4 + ^ r4: .cfa -8 + ^
STACK CFI INIT fd570 28 .cfa: sp 0 + .ra: lr
STACK CFI fd578 .cfa: sp 8 + .ra: .cfa -4 + ^ r4: .cfa -8 + ^
STACK CFI INIT fd598 30 .cfa: sp 0 + .ra: lr
STACK CFI fd5a0 .cfa: sp 8 + .ra: .cfa -4 + ^ r4: .cfa -8 + ^
STACK CFI INIT fd5c8 48 .cfa: sp 0 + .ra: lr
STACK CFI fd5d0 .cfa: sp 8 + .ra: .cfa -4 + ^ r4: .cfa -8 + ^
STACK CFI INIT fd610 1c .cfa: sp 0 + .ra: lr
STACK CFI fd614 .cfa: sp 8 + .ra: .cfa -4 + ^ r4: .cfa -8 + ^
STACK CFI INIT fd62c 80 .cfa: sp 0 + .ra: lr
STACK CFI fd63c .cfa: sp 8 + .ra: .cfa -4 + ^ r4: .cfa -8 + ^
STACK CFI fd640 .cfa: sp 16 +
STACK CFI INIT fd6ac f4 .cfa: sp 0 + .ra: lr
STACK CFI fd6b8 .cfa: sp 8 + .ra: .cfa -4 + ^ r4: .cfa -8 + ^
STACK CFI fd6c4 .cfa: sp 16 +
STACK CFI INIT fd7a0 94 .cfa: sp 0 + .ra: lr
STACK CFI fd7a4 .cfa: sp 16 + .ra: .cfa -4 + ^ r4: .cfa -16 + ^ r5: .cfa -12 + ^ r6: .cfa -8 + ^
STACK CFI INIT fd834 28 .cfa: sp 0 + .ra: lr
STACK CFI fd83c .cfa: sp 8 + .ra: .cfa -4 + ^ r4: .cfa -8 + ^
STACK CFI INIT fd85c 8 .cfa: sp 0 + .ra: lr
STACK CFI INIT fd864 c .cfa: sp 0 + .ra: lr
STACK CFI INIT fd870 8 .cfa: sp 0 + .ra: lr
STACK CFI INIT fd878 c .cfa: sp 0 + .ra: lr
STACK CFI INIT fd884 c .cfa: sp 0 + .ra: lr
STACK CFI INIT fd890 8 .cfa: sp 0 + .ra: lr
STACK CFI INIT fd898 10 .cfa: sp 0 + .ra: lr
STACK CFI INIT fd8a8 24 .cfa: sp 0 + .ra: lr
STACK CFI fd8ac .cfa: sp 8 + .ra: .cfa -4 + ^ r3: .cfa -8 + ^
STACK CFI INIT fd8cc 2c .cfa: sp 0 + .ra: lr
STACK CFI fd8d0 .cfa: sp 8 + .ra: .cfa -4 + ^ r4: .cfa -8 + ^
STACK CFI INIT fd8f8 18 .cfa: sp 0 + .ra: lr
STACK CFI INIT fd910 2c .cfa: sp 0 + .ra: lr
STACK CFI INIT fd93c 18 .cfa: sp 0 + .ra: lr
STACK CFI INIT fd954 18 .cfa: sp 0 + .ra: lr
STACK CFI INIT fd96c 1c .cfa: sp 0 + .ra: lr
STACK CFI INIT fd988 1c .cfa: sp 0 + .ra: lr
STACK CFI INIT fd9a4 1c .cfa: sp 0 + .ra: lr
STACK CFI INIT fd9c0 1c .cfa: sp 0 + .ra: lr
STACK CFI INIT fd9dc 1c .cfa: sp 0 + .ra: lr
STACK CFI INIT fd9f8 8 .cfa: sp 0 + .ra: lr
STACK CFI INIT fda00 10 .cfa: sp 0 + .ra: lr
STACK CFI INIT fda10 18 .cfa: sp 0 + .ra: lr
STACK CFI INIT fda28 20 .cfa: sp 0 + .ra: lr
STACK CFI INIT fda48 8 .cfa: sp 0 + .ra: lr
STACK CFI INIT fda50 10 .cfa: sp 0 + .ra: lr
STACK CFI INIT fda60 14 .cfa: sp 0 + .ra: lr
STACK CFI INIT fda74 c .cfa: sp 0 + .ra: lr
STACK CFI INIT fda80 8 .cfa: sp 0 + .ra: lr
STACK CFI INIT fda88 10 .cfa: sp 0 + .ra: lr
STACK CFI INIT fda98 14 .cfa: sp 0 + .ra: lr
STACK CFI INIT fdaac c .cfa: sp 0 + .ra: lr
STACK CFI INIT fdab8 c .cfa: sp 0 + .ra: lr
STACK CFI INIT fdac4 8 .cfa: sp 0 + .ra: lr
STACK CFI INIT fdacc c .cfa: sp 0 + .ra: lr
STACK CFI INIT fdad8 14 .cfa: sp 0 + .ra: lr
STACK CFI INIT fdaec c .cfa: sp 0 + .ra: lr
STACK CFI INIT fdaf8 2c .cfa: sp 0 + .ra: lr
STACK CFI fdb00 .cfa: sp 8 + .ra: .cfa -4 + ^ r3: .cfa -8 + ^
STACK CFI INIT fdb24 8 .cfa: sp 0 + .ra: lr
STACK CFI INIT fdb2c 14 .cfa: sp 0 + .ra: lr
STACK CFI INIT fdb40 6c .cfa: sp 0 + .ra: lr
STACK CFI fdb44 .cfa: sp 16 + .ra: .cfa -4 + ^ r3: .cfa -16 + ^ r4: .cfa -12 + ^ r5: .cfa -8 + ^
STACK CFI INIT fdbac 34 .cfa: sp 0 + .ra: lr
STACK CFI INIT fdbe0 14 .cfa: sp 0 + .ra: lr
STACK CFI fdbe4 .cfa: sp 8 + .ra: .cfa -4 + ^ r4: .cfa -8 + ^
STACK CFI INIT fdbf4 14 .cfa: sp 0 + .ra: lr
STACK CFI fdbf8 .cfa: sp 8 + .ra: .cfa -4 + ^ r4: .cfa -8 + ^
STACK CFI INIT fdc08 8 .cfa: sp 0 + .ra: lr
STACK CFI INIT fdc10 4 .cfa: sp 0 + .ra: lr
STACK CFI INIT fdc14 9c .cfa: sp 0 + .ra: lr
STACK CFI fdc18 .cfa: sp 40 + .ra: .cfa -4 + ^ r10: .cfa -12 + ^ r11: .cfa -8 + ^ r3: .cfa -40 + ^ r4: .cfa -36 + ^ r5: .cfa -32 + ^ r6: .cfa -28 + ^ r7: .cfa -24 + ^ r8: .cfa -20 + ^ r9: .cfa -16 + ^
STACK CFI INIT fdcb0 c .cfa: sp 0 + .ra: lr
STACK CFI INIT fdcbc 30 .cfa: sp 0 + .ra: lr
STACK CFI fdcc0 .cfa: sp 16 + .ra: .cfa -4 + ^ r4: .cfa -16 + ^ r5: .cfa -12 + ^ r6: .cfa -8 + ^
STACK CFI INIT fdcec 3c .cfa: sp 0 + .ra: lr
STACK CFI fdcf0 .cfa: sp 8 + .ra: .cfa -4 + ^ r4: .cfa -8 + ^
STACK CFI INIT fdd28 64 .cfa: sp 0 + .ra: lr
STACK CFI fdd2c .cfa: sp 24 + .ra: .cfa -4 + ^ r3: .cfa -24 + ^ r4: .cfa -20 + ^ r5: .cfa -16 + ^ r6: .cfa -12 + ^ r7: .cfa -8 + ^
STACK CFI INIT fdd8c c .cfa: sp 0 + .ra: lr
STACK CFI INIT fdd98 30 .cfa: sp 0 + .ra: lr
STACK CFI fdd9c .cfa: sp 16 + .ra: .cfa -4 + ^ r4: .cfa -16 + ^ r5: .cfa -12 + ^ r6: .cfa -8 + ^
STACK CFI INIT fddc8 44 .cfa: sp 0 + .ra: lr
STACK CFI INIT fde0c 58 .cfa: sp 0 + .ra: lr
STACK CFI fde10 .cfa: sp 24 + .ra: .cfa -4 + ^ r4: .cfa -24 + ^ r5: .cfa -20 + ^ r6: .cfa -16 + ^ r7: .cfa -12 + ^ r8: .cfa -8 + ^
STACK CFI INIT fde64 c .cfa: sp 0 + .ra: lr
STACK CFI INIT fde70 30 .cfa: sp 0 + .ra: lr
STACK CFI fde74 .cfa: sp 16 + .ra: .cfa -4 + ^ r4: .cfa -16 + ^ r5: .cfa -12 + ^ r6: .cfa -8 + ^
STACK CFI INIT fdea0 4 .cfa: sp 0 + .ra: lr
STACK CFI INIT fdea4 68 .cfa: sp 0 + .ra: lr
STACK CFI fdea8 .cfa: sp 24 + .ra: .cfa -4 + ^ r3: .cfa -24 + ^ r4: .cfa -20 + ^ r5: .cfa -16 + ^ r6: .cfa -12 + ^ r7: .cfa -8 + ^
STACK CFI INIT fdf0c c .cfa: sp 0 + .ra: lr
STACK CFI INIT fdf18 30 .cfa: sp 0 + .ra: lr
STACK CFI fdf1c .cfa: sp 16 + .ra: .cfa -4 + ^ r4: .cfa -16 + ^ r5: .cfa -12 + ^ r6: .cfa -8 + ^
STACK CFI INIT fdf48 4 .cfa: sp 0 + .ra: lr
STACK CFI INIT fdf4c 58 .cfa: sp 0 + .ra: lr
STACK CFI fdf50 .cfa: sp 24 + .ra: .cfa -4 + ^ r4: .cfa -24 + ^ r5: .cfa -20 + ^ r6: .cfa -16 + ^ r7: .cfa -12 + ^ r8: .cfa -8 + ^
STACK CFI INIT fdfa4 c .cfa: sp 0 + .ra: lr
STACK CFI INIT fdfb0 30 .cfa: sp 0 + .ra: lr
STACK CFI fdfb4 .cfa: sp 16 + .ra: .cfa -4 + ^ r4: .cfa -16 + ^ r5: .cfa -12 + ^ r6: .cfa -8 + ^
STACK CFI INIT fdfe0 4c .cfa: sp 0 + .ra: lr
STACK CFI INIT fe02c 64 .cfa: sp 0 + .ra: lr
STACK CFI fe030 .cfa: sp 24 + .ra: .cfa -4 + ^ r3: .cfa -24 + ^ r4: .cfa -20 + ^ r5: .cfa -16 + ^ r6: .cfa -12 + ^ r7: .cfa -8 + ^
STACK CFI INIT fe090 c .cfa: sp 0 + .ra: lr
STACK CFI INIT fe09c 30 .cfa: sp 0 + .ra: lr
STACK CFI fe0a0 .cfa: sp 16 + .ra: .cfa -4 + ^ r4: .cfa -16 + ^ r5: .cfa -12 + ^ r6: .cfa -8 + ^
STACK CFI INIT fe0cc 44 .cfa: sp 0 + .ra: lr
STACK CFI INIT fe110 30 .cfa: sp 0 + .ra: lr
STACK CFI fe11c .cfa: sp 16 + .ra: .cfa -4 + ^ r3: .cfa -16 + ^ r4: .cfa -12 + ^ r5: .cfa -8 + ^
STACK CFI INIT fe140 60 .cfa: sp 0 + .ra: lr
STACK CFI fe148 .cfa: sp 16 + .ra: .cfa -4 + ^ r3: .cfa -16 + ^ r4: .cfa -12 + ^ r5: .cfa -8 + ^
STACK CFI INIT fe1a0 7c .cfa: sp 0 + .ra: lr
STACK CFI fe1a8 .cfa: sp 16 + .ra: .cfa -4 + ^ r3: .cfa -16 + ^ r4: .cfa -12 + ^ r5: .cfa -8 + ^
STACK CFI INIT fe21c 40 .cfa: sp 0 + .ra: lr
STACK CFI fe220 .cfa: sp 16 + .ra: .cfa -4 + ^ r4: .cfa -16 + ^ r5: .cfa -12 + ^ r6: .cfa -8 + ^
STACK CFI INIT fe25c 6c .cfa: sp 0 + .ra: lr
STACK CFI fe260 .cfa: sp 24 + .ra: .cfa -4 + ^ r4: .cfa -24 + ^ r5: .cfa -20 + ^ r6: .cfa -16 + ^ r7: .cfa -12 + ^ r8: .cfa -8 + ^
STACK CFI INIT fe2c8 5c .cfa: sp 0 + .ra: lr
STACK CFI fe2d0 .cfa: sp 16 + .ra: .cfa -4 + ^ r3: .cfa -16 + ^ r4: .cfa -12 + ^ r5: .cfa -8 + ^
STACK CFI INIT fe324 8 .cfa: sp 0 + .ra: lr
STACK CFI INIT fe32c 10 .cfa: sp 0 + .ra: lr
STACK CFI INIT fe33c c .cfa: sp 0 + .ra: lr
STACK CFI INIT fe348 14 .cfa: sp 0 + .ra: lr
STACK CFI INIT fe35c c .cfa: sp 0 + .ra: lr
STACK CFI INIT fe368 c .cfa: sp 0 + .ra: lr
STACK CFI INIT fe374 28 .cfa: sp 0 + .ra: lr
STACK CFI INIT fe39c 8 .cfa: sp 0 + .ra: lr
STACK CFI INIT fe3a4 84 .cfa: sp 0 + .ra: lr
STACK CFI fe3ac .cfa: sp 8 + .ra: .cfa -4 + ^ r4: .cfa -8 + ^
STACK CFI INIT fe428 84 .cfa: sp 0 + .ra: lr
STACK CFI fe42c .cfa: sp 16 + .ra: .cfa -4 + ^ r4: .cfa -16 + ^ r5: .cfa -12 + ^ r6: .cfa -8 + ^
STACK CFI INIT fe4ac 24 .cfa: sp 0 + .ra: lr
STACK CFI fe4b0 .cfa: sp 8 + .ra: .cfa -4 + ^ r4: .cfa -8 + ^
STACK CFI INIT fe4d0 24 .cfa: sp 0 + .ra: lr
STACK CFI fe4d4 .cfa: sp 8 + .ra: .cfa -4 + ^ r4: .cfa -8 + ^
STACK CFI INIT fe4f4 4 .cfa: sp 0 + .ra: lr
STACK CFI INIT fe4f8 4 .cfa: sp 0 + .ra: lr
STACK CFI INIT 19378 3c .cfa: sp 0 + .ra: lr
STACK CFI 1937c .cfa: sp 4 + r4: .cfa -4 + ^
STACK CFI INIT fe4fc 18 .cfa: sp 0 + .ra: lr
STACK CFI INIT fe514 40 .cfa: sp 0 + .ra: lr
STACK CFI fe518 .cfa: sp 8 + .ra: .cfa -4 + ^ r4: .cfa -8 + ^
STACK CFI fe524 .cfa: sp 16 +
STACK CFI INIT fe554 164 .cfa: sp 0 + .ra: lr
STACK CFI fe55c .cfa: sp 36 + .ra: .cfa -4 + ^ r10: .cfa -12 + ^ r11: .cfa -8 + ^ r4: .cfa -36 + ^ r5: .cfa -32 + ^ r6: .cfa -28 + ^ r7: .cfa -24 + ^ r8: .cfa -20 + ^ r9: .cfa -16 + ^
STACK CFI fe580 .cfa: sp 48 +
STACK CFI INIT fe6b8 50 .cfa: sp 0 + .ra: lr
STACK CFI fe6d0 .cfa: sp 8 + .ra: .cfa -4 + ^ r4: .cfa -8 + ^
STACK CFI INIT fe708 14 .cfa: sp 0 + .ra: lr
STACK CFI INIT fe71c 28 .cfa: sp 0 + .ra: lr
STACK CFI fe724 .cfa: sp 8 + .ra: .cfa -4 + ^ r4: .cfa -8 + ^
STACK CFI INIT fe744 34 .cfa: sp 0 + .ra: lr
STACK CFI fe748 .cfa: sp 16 + .ra: .cfa -4 + ^ r3: .cfa -16 + ^ r4: .cfa -12 + ^ r5: .cfa -8 + ^
STACK CFI INIT fe778 2c .cfa: sp 0 + .ra: lr
STACK CFI fe780 .cfa: sp 8 + .ra: .cfa -4 + ^ r4: .cfa -8 + ^
STACK CFI INIT fe7a4 2c .cfa: sp 0 + .ra: lr
STACK CFI fe7a8 .cfa: sp 16 + .ra: .cfa -4 + ^ r3: .cfa -16 + ^ r4: .cfa -12 + ^ r5: .cfa -8 + ^
STACK CFI INIT fe7d0 28 .cfa: sp 0 + .ra: lr
STACK CFI fe7d8 .cfa: sp 8 + .ra: .cfa -4 + ^ r4: .cfa -8 + ^
STACK CFI INIT fe7f8 30 .cfa: sp 0 + .ra: lr
STACK CFI fe7fc .cfa: sp 16 + .ra: .cfa -4 + ^ r3: .cfa -16 + ^ r4: .cfa -12 + ^ r5: .cfa -8 + ^
STACK CFI INIT fe828 48 .cfa: sp 0 + .ra: lr
STACK CFI fe82c .cfa: sp 16 + .ra: .cfa -4 + ^ r3: .cfa -16 + ^ r4: .cfa -12 + ^ r5: .cfa -8 + ^
STACK CFI INIT fe870 3c .cfa: sp 0 + .ra: lr
STACK CFI fe874 .cfa: sp 16 + .ra: .cfa -4 + ^ r3: .cfa -16 + ^ r4: .cfa -12 + ^ r5: .cfa -8 + ^
STACK CFI INIT fe8ac 14 .cfa: sp 0 + .ra: lr
STACK CFI INIT fe8c0 44 .cfa: sp 0 + .ra: lr
STACK CFI fe8c8 .cfa: sp 8 + .ra: .cfa -4 + ^ r4: .cfa -8 + ^
STACK CFI INIT fe904 34 .cfa: sp 0 + .ra: lr
STACK CFI fe908 .cfa: sp 16 + .ra: .cfa -4 + ^ r3: .cfa -16 + ^ r4: .cfa -12 + ^ r5: .cfa -8 + ^
STACK CFI INIT fe938 40 .cfa: sp 0 + .ra: lr
STACK CFI fe940 .cfa: sp 16 + .ra: .cfa -4 + ^ r3: .cfa -16 + ^ r4: .cfa -12 + ^ r5: .cfa -8 + ^
STACK CFI INIT fe978 78 .cfa: sp 0 + .ra: lr
STACK CFI fe97c .cfa: sp 24 + .ra: .cfa -4 + ^ r3: .cfa -24 + ^ r4: .cfa -20 + ^ r5: .cfa -16 + ^ r6: .cfa -12 + ^ r7: .cfa -8 + ^
STACK CFI INIT fe9f0 2c .cfa: sp 0 + .ra: lr
STACK CFI fe9fc .cfa: sp 4 + .ra: .cfa -4 + ^
STACK CFI fea00 .cfa: sp 16 +
STACK CFI INIT fea1c 30 .cfa: sp 0 + .ra: lr
STACK CFI fea28 .cfa: sp 8 + .ra: .cfa -4 + ^ r4: .cfa -8 + ^
STACK CFI fea2c .cfa: sp 16 +
STACK CFI INIT fea4c 40 .cfa: sp 0 + .ra: lr
STACK CFI fea54 .cfa: sp 4 + .ra: .cfa -4 + ^
STACK CFI fea58 .cfa: sp 16 +
STACK CFI INIT fea8c 40 .cfa: sp 0 + .ra: lr
STACK CFI fea90 .cfa: sp 12 + .ra: .cfa -4 + ^ r4: .cfa -12 + ^ r5: .cfa -8 + ^
STACK CFI fea94 .cfa: sp 24 +
STACK CFI INIT feacc 40 .cfa: sp 0 + .ra: lr
STACK CFI fead0 .cfa: sp 16 + .ra: .cfa -4 + ^ r4: .cfa -16 + ^ r5: .cfa -12 + ^ r6: .cfa -8 + ^
STACK CFI INIT feb0c 20 .cfa: sp 0 + .ra: lr
STACK CFI feb10 .cfa: sp 4 + r4: .cfa -4 + ^
STACK CFI INIT feb2c 2c .cfa: sp 0 + .ra: lr
STACK CFI feb30 .cfa: sp 4 + .ra: .cfa -4 + ^
STACK CFI feb34 .cfa: sp 16 +
STACK CFI INIT feb58 58 .cfa: sp 0 + .ra: lr
STACK CFI feb5c .cfa: sp 24 + .ra: .cfa -4 + ^ r3: .cfa -24 + ^ r4: .cfa -20 + ^ r5: .cfa -16 + ^ r6: .cfa -12 + ^ r7: .cfa -8 + ^
STACK CFI INIT febb0 f4 .cfa: sp 0 + .ra: lr
STACK CFI febbc .cfa: sp 16 + .ra: .cfa -4 + ^ r4: .cfa -16 + ^ r5: .cfa -12 + ^ r6: .cfa -8 + ^
STACK CFI febc4 .cfa: sp 24 +
STACK CFI INIT feca4 28 .cfa: sp 0 + .ra: lr
STACK CFI feca8 .cfa: sp 8 + .ra: .cfa -4 + ^ r4: .cfa -8 + ^
STACK CFI fecac .cfa: sp 16 +
STACK CFI INIT feccc 40 .cfa: sp 0 + .ra: lr
STACK CFI fecd4 .cfa: sp 8 + .ra: .cfa -4 + ^ r3: .cfa -8 + ^
STACK CFI INIT fed0c 28 .cfa: sp 0 + .ra: lr
STACK CFI fed10 .cfa: sp 16 + .ra: .cfa -4 + ^ r3: .cfa -16 + ^ r4: .cfa -12 + ^ r5: .cfa -8 + ^
STACK CFI INIT fed34 18 .cfa: sp 0 + .ra: lr
STACK CFI fed38 .cfa: sp 8 +
STACK CFI INIT fed4c 28 .cfa: sp 0 + .ra: lr
STACK CFI fed50 .cfa: sp 16 + .ra: .cfa -4 + ^ r3: .cfa -16 + ^ r4: .cfa -12 + ^ r5: .cfa -8 + ^
STACK CFI INIT fed74 184 .cfa: sp 0 + .ra: lr
STACK CFI fed78 .cfa: sp 24 + .ra: .cfa -4 + ^ r4: .cfa -24 + ^ r5: .cfa -20 + ^ r6: .cfa -16 + ^ r7: .cfa -12 + ^ r8: .cfa -8 + ^
STACK CFI fed84 .cfa: sp 32 +
STACK CFI INIT feef8 28 .cfa: sp 0 + .ra: lr
STACK CFI feefc .cfa: sp 4 + r4: .cfa -4 + ^
STACK CFI fef00 .cfa: sp 16 +
STACK CFI INIT fef20 44 .cfa: sp 0 + .ra: lr
STACK CFI fef28 .cfa: sp 8 + .ra: .cfa -4 + ^ r4: .cfa -8 + ^
STACK CFI INIT fef64 30 .cfa: sp 0 + .ra: lr
STACK CFI fef68 .cfa: sp 16 + .ra: .cfa -4 + ^ r4: .cfa -16 + ^ r5: .cfa -12 + ^ r6: .cfa -8 + ^
STACK CFI INIT fef94 c .cfa: sp 0 + .ra: lr
STACK CFI INIT fefa0 38 .cfa: sp 0 + .ra: lr
STACK CFI fefa8 .cfa: sp 8 + .ra: .cfa -4 + ^ r4: .cfa -8 + ^
STACK CFI INIT fefd8 40 .cfa: sp 0 + .ra: lr
STACK CFI INIT ff018 84 .cfa: sp 0 + .ra: lr
STACK CFI ff01c .cfa: sp 16 + .ra: .cfa -4 + ^ r3: .cfa -16 + ^ r4: .cfa -12 + ^ r5: .cfa -8 + ^
STACK CFI INIT ff09c 88 .cfa: sp 0 + .ra: lr
STACK CFI ff0a0 .cfa: sp 16 + .ra: .cfa -4 + ^ r4: .cfa -16 + ^ r5: .cfa -12 + ^ r6: .cfa -8 + ^
STACK CFI ff0ac .cfa: sp 24 +
STACK CFI INIT ff124 30 .cfa: sp 0 + .ra: lr
STACK CFI ff128 .cfa: sp 8 + .ra: .cfa -4 + ^ r3: .cfa -8 + ^
STACK CFI INIT ff154 ac .cfa: sp 0 + .ra: lr
STACK CFI ff158 .cfa: sp 24 + .ra: .cfa -4 + ^ r3: .cfa -24 + ^ r4: .cfa -20 + ^ r5: .cfa -16 + ^ r6: .cfa -12 + ^ r7: .cfa -8 + ^
STACK CFI INIT ff200 4 .cfa: sp 0 + .ra: lr
STACK CFI INIT ff204 d8 .cfa: sp 0 + .ra: lr
STACK CFI ff208 .cfa: sp 24 + .ra: .cfa -4 + ^ r4: .cfa -24 + ^ r5: .cfa -20 + ^ r6: .cfa -16 + ^ r7: .cfa -12 + ^ r8: .cfa -8 + ^
STACK CFI INIT ff2dc 104 .cfa: sp 0 + .ra: lr
STACK CFI ff2e0 .cfa: sp 24 + .ra: .cfa -4 + ^ r3: .cfa -24 + ^ r4: .cfa -20 + ^ r5: .cfa -16 + ^ r6: .cfa -12 + ^ r7: .cfa -8 + ^
STACK CFI INIT ff3e0 18 .cfa: sp 0 + .ra: lr
STACK CFI ff3e4 .cfa: sp 8 +
STACK CFI INIT ff3f8 28 .cfa: sp 0 + .ra: lr
STACK CFI ff3fc .cfa: sp 16 + .ra: .cfa -4 + ^ r3: .cfa -16 + ^ r4: .cfa -12 + ^ r5: .cfa -8 + ^
STACK CFI INIT ff420 18 .cfa: sp 0 + .ra: lr
STACK CFI ff424 .cfa: sp 8 +
STACK CFI INIT ff438 28 .cfa: sp 0 + .ra: lr
STACK CFI ff43c .cfa: sp 16 + .ra: .cfa -4 + ^ r3: .cfa -16 + ^ r4: .cfa -12 + ^ r5: .cfa -8 + ^
STACK CFI INIT ff460 c0 .cfa: sp 0 + .ra: lr
STACK CFI ff464 .cfa: sp 24 + .ra: .cfa -4 + ^ r3: .cfa -24 + ^ r4: .cfa -20 + ^ r5: .cfa -16 + ^ r6: .cfa -12 + ^ r7: .cfa -8 + ^
STACK CFI INIT ff520 4c .cfa: sp 0 + .ra: lr
STACK CFI ff52c .cfa: sp 8 + .ra: .cfa -4 + ^ r4: .cfa -8 + ^
STACK CFI INIT ff56c 8 .cfa: sp 0 + .ra: lr
STACK CFI INIT ff574 74 .cfa: sp 0 + .ra: lr
STACK CFI ff57c .cfa: sp 16 + .ra: .cfa -4 + ^ r4: .cfa -16 + ^ r5: .cfa -12 + ^ r6: .cfa -8 + ^
STACK CFI INIT ff5e8 78 .cfa: sp 0 + .ra: lr
STACK CFI ff5f0 .cfa: sp 16 + .ra: .cfa -4 + ^ r4: .cfa -16 + ^ r5: .cfa -12 + ^ r6: .cfa -8 + ^
STACK CFI INIT ff660 58 .cfa: sp 0 + .ra: lr
STACK CFI INIT ff6b8 88 .cfa: sp 0 + .ra: lr
STACK CFI ff6c0 .cfa: sp 8 + .ra: .cfa -4 + ^ r4: .cfa -8 + ^
STACK CFI ff6cc .cfa: sp 16 +
STACK CFI INIT ff740 c4 .cfa: sp 0 + .ra: lr
STACK CFI ff74c .cfa: sp 12 + .ra: .cfa -4 + ^ r4: .cfa -12 + ^ r5: .cfa -8 + ^
STACK CFI ff760 .cfa: sp 24 +
STACK CFI INIT ff804 4 .cfa: sp 0 + .ra: lr
STACK CFI INIT ff808 98 .cfa: sp 0 + .ra: lr
STACK CFI ff80c .cfa: sp 20 + .ra: .cfa -4 + ^ r4: .cfa -20 + ^ r5: .cfa -16 + ^ r6: .cfa -12 + ^ r7: .cfa -8 + ^
STACK CFI ff814 .cfa: sp 32 +
STACK CFI INIT ff8a0 88 .cfa: sp 0 + .ra: lr
STACK CFI ff8a8 .cfa: sp 16 + .ra: .cfa -4 + ^ r4: .cfa -16 + ^ r5: .cfa -12 + ^ r6: .cfa -8 + ^
STACK CFI ff8c0 .cfa: sp 24 +
STACK CFI INIT ff928 54 .cfa: sp 0 + .ra: lr
STACK CFI ff92c .cfa: sp 12 + .ra: .cfa -4 + ^ r4: .cfa -12 + ^ r5: .cfa -8 + ^
STACK CFI ff938 .cfa: sp 24 +
STACK CFI INIT ff97c 90 .cfa: sp 0 + .ra: lr
STACK CFI ff984 .cfa: sp 16 + .ra: .cfa -4 + ^ r4: .cfa -16 + ^ r5: .cfa -12 + ^ r6: .cfa -8 + ^
STACK CFI INIT ffa0c 28 .cfa: sp 0 + .ra: lr
STACK CFI ffa10 .cfa: sp 8 + .ra: .cfa -4 + ^ r4: .cfa -8 + ^
STACK CFI INIT ffa34 c4 .cfa: sp 0 + .ra: lr
STACK CFI ffa40 .cfa: sp 16 + .ra: .cfa -4 + ^ r4: .cfa -16 + ^ r5: .cfa -12 + ^ r6: .cfa -8 + ^
STACK CFI INIT ffaf8 60 .cfa: sp 0 + .ra: lr
STACK CFI ffb00 .cfa: sp 8 + .ra: .cfa -4 + ^ r4: .cfa -8 + ^
STACK CFI ffb0c .cfa: sp 16 +
STACK CFI INIT ffb58 34 .cfa: sp 0 + .ra: lr
STACK CFI ffb60 .cfa: sp 8 + .ra: .cfa -4 + ^ r4: .cfa -8 + ^
STACK CFI INIT ffb8c 58 .cfa: sp 0 + .ra: lr
STACK CFI ffb94 .cfa: sp 8 + .ra: .cfa -4 + ^ r4: .cfa -8 + ^
STACK CFI INIT ffbe4 28 .cfa: sp 0 + .ra: lr
STACK CFI ffbe8 .cfa: sp 8 + .ra: .cfa -4 + ^ r4: .cfa -8 + ^
STACK CFI INIT ffc0c c4 .cfa: sp 0 + .ra: lr
STACK CFI ffc18 .cfa: sp 16 + .ra: .cfa -4 + ^ r4: .cfa -16 + ^ r5: .cfa -12 + ^ r6: .cfa -8 + ^
STACK CFI INIT ffcd0 28 .cfa: sp 0 + .ra: lr
STACK CFI ffcd4 .cfa: sp 8 + .ra: .cfa -4 + ^ r4: .cfa -8 + ^
STACK CFI INIT ffcf8 1b4 .cfa: sp 0 + .ra: lr
STACK CFI ffcfc .cfa: sp 24 + .ra: .cfa -4 + ^ r4: .cfa -24 + ^ r5: .cfa -20 + ^ r6: .cfa -16 + ^ r7: .cfa -12 + ^ r8: .cfa -8 + ^
STACK CFI ffd08 .cfa: sp 40 +
STACK CFI INIT ffeac 20 .cfa: sp 0 + .ra: lr
STACK CFI ffeb4 .cfa: sp 4 + .ra: .cfa -4 + ^
STACK CFI ffeb8 .cfa: sp 16 +
STACK CFI INIT ffecc 48 .cfa: sp 0 + .ra: lr
STACK CFI ffed4 .cfa: sp 16 + .ra: .cfa -4 + ^ r4: .cfa -16 + ^ r5: .cfa -12 + ^ r6: .cfa -8 + ^
STACK CFI INIT fff14 40 .cfa: sp 0 + .ra: lr
STACK CFI fff18 .cfa: sp 20 + .ra: .cfa -4 + ^ r4: .cfa -20 + ^ r5: .cfa -16 + ^ r6: .cfa -12 + ^ r7: .cfa -8 + ^
STACK CFI fff20 .cfa: sp 32 +
STACK CFI INIT fff54 10 .cfa: sp 0 + .ra: lr
STACK CFI INIT fff64 2c .cfa: sp 0 + .ra: lr
STACK CFI fff70 .cfa: sp 4 + .ra: .cfa -4 + ^
STACK CFI fff74 .cfa: sp 16 +
STACK CFI INIT fff90 44 .cfa: sp 0 + .ra: lr
STACK CFI fff94 .cfa: sp 20 + .ra: .cfa -4 + ^ r4: .cfa -20 + ^ r5: .cfa -16 + ^ r6: .cfa -12 + ^ r7: .cfa -8 + ^
STACK CFI fff9c .cfa: sp 32 +
STACK CFI INIT fffd4 24 .cfa: sp 0 + .ra: lr
STACK CFI fffd8 .cfa: sp 4 + r4: .cfa -4 + ^
STACK CFI INIT ffff8 24 .cfa: sp 0 + .ra: lr
STACK CFI ffffc .cfa: sp 4 + r4: .cfa -4 + ^
STACK CFI INIT 10001c 1c .cfa: sp 0 + .ra: lr
STACK CFI 100020 .cfa: sp 8 +
STACK CFI INIT 100038 24 .cfa: sp 0 + .ra: lr
STACK CFI 10003c .cfa: sp 4 + r4: .cfa -4 + ^
STACK CFI INIT 10005c 24 .cfa: sp 0 + .ra: lr
STACK CFI 100060 .cfa: sp 4 + r4: .cfa -4 + ^
STACK CFI INIT 100080 40 .cfa: sp 0 + .ra: lr
STACK CFI 100084 .cfa: sp 16 + .ra: .cfa -4 + ^ r4: .cfa -16 + ^ r5: .cfa -12 + ^ r6: .cfa -8 + ^
STACK CFI INIT 1000c0 3c .cfa: sp 0 + .ra: lr
STACK CFI 1000c4 .cfa: sp 8 + .ra: .cfa -4 + ^ r4: .cfa -8 + ^
STACK CFI 1000c8 .cfa: sp 16 +
STACK CFI INIT 1000fc 28 .cfa: sp 0 + .ra: lr
STACK CFI 100100 .cfa: sp 8 + .ra: .cfa -4 + ^ r4: .cfa -8 + ^
STACK CFI INIT 100124 18 .cfa: sp 0 + .ra: lr
STACK CFI INIT 10013c 18 .cfa: sp 0 + .ra: lr
STACK CFI INIT 100154 e0 .cfa: sp 0 + .ra: lr
STACK CFI 100158 .cfa: sp 28 + .ra: .cfa -4 + ^ r4: .cfa -28 + ^ r5: .cfa -24 + ^ r6: .cfa -20 + ^ r7: .cfa -16 + ^ r8: .cfa -12 + ^ r9: .cfa -8 + ^
STACK CFI 100164 .cfa: sp 48 +
STACK CFI INIT 100234 58 .cfa: sp 0 + .ra: lr
STACK CFI 100238 .cfa: sp 8 + .ra: .cfa -4 + ^ r4: .cfa -8 + ^
STACK CFI INIT 10028c 54 .cfa: sp 0 + .ra: lr
STACK CFI 100290 .cfa: sp 8 + .ra: .cfa -4 + ^ r3: .cfa -8 + ^
STACK CFI INIT 1002e0 18 .cfa: sp 0 + .ra: lr
STACK CFI INIT 1002f8 8 .cfa: sp 0 + .ra: lr
STACK CFI INIT 100300 8 .cfa: sp 0 + .ra: lr
STACK CFI INIT 100308 8 .cfa: sp 0 + .ra: lr
STACK CFI INIT 100310 28 .cfa: sp 0 + .ra: lr
STACK CFI 100318 .cfa: sp 8 + .ra: .cfa -4 + ^ r4: .cfa -8 + ^
STACK CFI INIT 100338 4c .cfa: sp 0 + .ra: lr
STACK CFI 100340 .cfa: sp 8 + .ra: .cfa -4 + ^ r3: .cfa -8 + ^
STACK CFI INIT 100384 4 .cfa: sp 0 + .ra: lr
STACK CFI INIT 100388 10 .cfa: sp 0 + .ra: lr
STACK CFI INIT 100398 28 .cfa: sp 0 + .ra: lr
STACK CFI 1003a0 .cfa: sp 8 + .ra: .cfa -4 + ^ r4: .cfa -8 + ^
STACK CFI INIT 1003c0 1c .cfa: sp 0 + .ra: lr
STACK CFI 1003c4 .cfa: sp 8 + .ra: .cfa -4 + ^ r4: .cfa -8 + ^
STACK CFI INIT 1003dc 8 .cfa: sp 0 + .ra: lr
STACK CFI INIT 1003e4 28 .cfa: sp 0 + .ra: lr
STACK CFI 1003ec .cfa: sp 8 + .ra: .cfa -4 + ^ r4: .cfa -8 + ^
STACK CFI INIT 10040c 1c .cfa: sp 0 + .ra: lr
STACK CFI 100410 .cfa: sp 8 + .ra: .cfa -4 + ^ r4: .cfa -8 + ^
STACK CFI INIT 100428 80 .cfa: sp 0 + .ra: lr
STACK CFI 100430 .cfa: sp 12 + .ra: .cfa -4 + ^ r4: .cfa -12 + ^ r5: .cfa -8 + ^
STACK CFI 100438 .cfa: sp 24 +
STACK CFI INIT 1004a8 4 .cfa: sp 0 + .ra: lr
STACK CFI INIT 1004ac 68 .cfa: sp 0 + .ra: lr
STACK CFI 1004b8 .cfa: sp 8 + .ra: .cfa -4 + ^ r4: .cfa -8 + ^
STACK CFI INIT 100514 c .cfa: sp 0 + .ra: lr
STACK CFI INIT 100520 1c .cfa: sp 0 + .ra: lr
STACK CFI 100524 .cfa: sp 8 +
STACK CFI INIT 10053c 30 .cfa: sp 0 + .ra: lr
STACK CFI INIT 10056c 18 .cfa: sp 0 + .ra: lr
STACK CFI 100570 .cfa: sp 8 + .ra: .cfa -4 + ^ r4: .cfa -8 + ^
STACK CFI INIT 100584 1c .cfa: sp 0 + .ra: lr
STACK CFI 10058c .cfa: sp 8 + .ra: .cfa -4 + ^ r4: .cfa -8 + ^
STACK CFI INIT 1005a0 64 .cfa: sp 0 + .ra: lr
STACK CFI 1005a8 .cfa: sp 8 + .ra: .cfa -4 + ^ r4: .cfa -8 + ^
STACK CFI INIT 100604 14 .cfa: sp 0 + .ra: lr
STACK CFI 100608 .cfa: sp 8 + .ra: .cfa -4 + ^ r4: .cfa -8 + ^
STACK CFI INIT 100618 8 .cfa: sp 0 + .ra: lr
STACK CFI INIT 100620 14 .cfa: sp 0 + .ra: lr
STACK CFI INIT 100634 38 .cfa: sp 0 + .ra: lr
STACK CFI 100638 .cfa: sp 12 + .ra: .cfa -4 + ^ r4: .cfa -12 + ^ r5: .cfa -8 + ^
STACK CFI 10063c .cfa: sp 24 +
STACK CFI INIT 10066c 10 .cfa: sp 0 + .ra: lr
STACK CFI INIT 10067c 34 .cfa: sp 0 + .ra: lr
STACK CFI INIT 1006b0 c .cfa: sp 0 + .ra: lr
STACK CFI INIT 1006bc 18 .cfa: sp 0 + .ra: lr
STACK CFI INIT 1006d4 14 .cfa: sp 0 + .ra: lr
STACK CFI 1006d8 .cfa: sp 8 + .ra: .cfa -4 + ^ r3: .cfa -8 + ^
STACK CFI INIT 1006e8 a0 .cfa: sp 0 + .ra: lr
STACK CFI 1006ec .cfa: sp 8 + .ra: .cfa -4 + ^ r4: .cfa -8 + ^
STACK CFI INIT 100788 c0 .cfa: sp 0 + .ra: lr
STACK CFI 10078c .cfa: sp 16 + .ra: .cfa -4 + ^ r4: .cfa -16 + ^ r5: .cfa -12 + ^ r6: .cfa -8 + ^
STACK CFI INIT 100848 10 .cfa: sp 0 + .ra: lr
STACK CFI INIT 100858 28 .cfa: sp 0 + .ra: lr
STACK CFI 100860 .cfa: sp 8 + .ra: .cfa -4 + ^ r4: .cfa -8 + ^
STACK CFI INIT 100880 1c .cfa: sp 0 + .ra: lr
STACK CFI 100884 .cfa: sp 8 + .ra: .cfa -4 + ^ r4: .cfa -8 + ^
STACK CFI INIT 10089c 8 .cfa: sp 0 + .ra: lr
STACK CFI INIT 1008a4 8 .cfa: sp 0 + .ra: lr
STACK CFI INIT 1008ac 84 .cfa: sp 0 + .ra: lr
STACK CFI 1008b8 .cfa: sp 8 + .ra: .cfa -4 + ^ r4: .cfa -8 + ^
STACK CFI 1008cc .cfa: sp 16 +
STACK CFI INIT 100930 1c .cfa: sp 0 + .ra: lr
STACK CFI 100934 .cfa: sp 8 + .ra: .cfa -4 + ^ r4: .cfa -8 + ^
STACK CFI INIT 10094c 28 .cfa: sp 0 + .ra: lr
STACK CFI 100954 .cfa: sp 8 + .ra: .cfa -4 + ^ r4: .cfa -8 + ^
STACK CFI INIT 100974 30 .cfa: sp 0 + .ra: lr
STACK CFI 10097c .cfa: sp 8 + .ra: .cfa -4 + ^ r4: .cfa -8 + ^
STACK CFI INIT 1009a4 28 .cfa: sp 0 + .ra: lr
STACK CFI 1009ac .cfa: sp 8 + .ra: .cfa -4 + ^ r4: .cfa -8 + ^
STACK CFI INIT 1009cc 30 .cfa: sp 0 + .ra: lr
STACK CFI 1009d4 .cfa: sp 8 + .ra: .cfa -4 + ^ r4: .cfa -8 + ^
STACK CFI INIT 1009fc 28 .cfa: sp 0 + .ra: lr
STACK CFI 100a04 .cfa: sp 8 + .ra: .cfa -4 + ^ r4: .cfa -8 + ^
STACK CFI INIT 100a24 30 .cfa: sp 0 + .ra: lr
STACK CFI 100a2c .cfa: sp 8 + .ra: .cfa -4 + ^ r4: .cfa -8 + ^
STACK CFI INIT 100a54 28 .cfa: sp 0 + .ra: lr
STACK CFI 100a5c .cfa: sp 8 + .ra: .cfa -4 + ^ r4: .cfa -8 + ^
STACK CFI INIT 100a7c 30 .cfa: sp 0 + .ra: lr
STACK CFI 100a84 .cfa: sp 8 + .ra: .cfa -4 + ^ r4: .cfa -8 + ^
STACK CFI INIT 100aac 84 .cfa: sp 0 + .ra: lr
STACK CFI 100ab8 .cfa: sp 8 + .ra: .cfa -4 + ^ r4: .cfa -8 + ^
STACK CFI 100acc .cfa: sp 16 +
STACK CFI INIT 100b30 1c .cfa: sp 0 + .ra: lr
STACK CFI 100b34 .cfa: sp 8 + .ra: .cfa -4 + ^ r4: .cfa -8 + ^
STACK CFI INIT 100b4c 28 .cfa: sp 0 + .ra: lr
STACK CFI 100b54 .cfa: sp 8 + .ra: .cfa -4 + ^ r4: .cfa -8 + ^
STACK CFI INIT 100b74 30 .cfa: sp 0 + .ra: lr
STACK CFI 100b7c .cfa: sp 8 + .ra: .cfa -4 + ^ r4: .cfa -8 + ^
STACK CFI INIT 100ba4 28 .cfa: sp 0 + .ra: lr
STACK CFI 100bac .cfa: sp 8 + .ra: .cfa -4 + ^ r4: .cfa -8 + ^
STACK CFI INIT 100bcc 30 .cfa: sp 0 + .ra: lr
STACK CFI 100bd4 .cfa: sp 8 + .ra: .cfa -4 + ^ r4: .cfa -8 + ^
STACK CFI INIT 100bfc 28 .cfa: sp 0 + .ra: lr
STACK CFI 100c04 .cfa: sp 8 + .ra: .cfa -4 + ^ r4: .cfa -8 + ^
STACK CFI INIT 100c24 30 .cfa: sp 0 + .ra: lr
STACK CFI 100c2c .cfa: sp 8 + .ra: .cfa -4 + ^ r4: .cfa -8 + ^
STACK CFI INIT 100c54 34 .cfa: sp 0 + .ra: lr
STACK CFI 100c5c .cfa: sp 8 + .ra: .cfa -4 + ^ r4: .cfa -8 + ^
STACK CFI INIT 100c88 28 .cfa: sp 0 + .ra: lr
STACK CFI 100c8c .cfa: sp 8 + .ra: .cfa -4 + ^ r4: .cfa -8 + ^
STACK CFI INIT 100cb0 28 .cfa: sp 0 + .ra: lr
STACK CFI 100cb4 .cfa: sp 8 + .ra: .cfa -4 + ^ r4: .cfa -8 + ^
STACK CFI INIT 100cd8 28 .cfa: sp 0 + .ra: lr
STACK CFI 100cdc .cfa: sp 8 + .ra: .cfa -4 + ^ r4: .cfa -8 + ^
STACK CFI INIT 100d00 28 .cfa: sp 0 + .ra: lr
STACK CFI 100d04 .cfa: sp 8 + .ra: .cfa -4 + ^ r4: .cfa -8 + ^
STACK CFI INIT 100d28 34 .cfa: sp 0 + .ra: lr
STACK CFI 100d30 .cfa: sp 8 + .ra: .cfa -4 + ^ r4: .cfa -8 + ^
STACK CFI INIT 100d5c 28 .cfa: sp 0 + .ra: lr
STACK CFI 100d60 .cfa: sp 8 + .ra: .cfa -4 + ^ r4: .cfa -8 + ^
STACK CFI INIT 100d84 28 .cfa: sp 0 + .ra: lr
STACK CFI 100d88 .cfa: sp 8 + .ra: .cfa -4 + ^ r4: .cfa -8 + ^
STACK CFI INIT 100dac 28 .cfa: sp 0 + .ra: lr
STACK CFI 100db0 .cfa: sp 8 + .ra: .cfa -4 + ^ r4: .cfa -8 + ^
STACK CFI INIT 100dd4 8 .cfa: sp 0 + .ra: lr
STACK CFI INIT 100ddc 84 .cfa: sp 0 + .ra: lr
STACK CFI 100de8 .cfa: sp 8 + .ra: .cfa -4 + ^ r4: .cfa -8 + ^
STACK CFI 100dfc .cfa: sp 16 +
STACK CFI INIT 100e60 1c .cfa: sp 0 + .ra: lr
STACK CFI 100e64 .cfa: sp 8 + .ra: .cfa -4 + ^ r4: .cfa -8 + ^
STACK CFI INIT 100e7c 4c .cfa: sp 0 + .ra: lr
STACK CFI 100e80 .cfa: sp 16 + .ra: .cfa -4 + ^ r3: .cfa -16 + ^ r4: .cfa -12 + ^ r5: .cfa -8 + ^
STACK CFI INIT 100ec8 c .cfa: sp 0 + .ra: lr
STACK CFI INIT 100ed4 14 .cfa: sp 0 + .ra: lr
STACK CFI 100ed8 .cfa: sp 8 + .ra: .cfa -4 + ^ r4: .cfa -8 + ^
STACK CFI INIT 100ee8 18 .cfa: sp 0 + .ra: lr
STACK CFI 100eec .cfa: sp 8 + .ra: .cfa -4 + ^ r3: .cfa -8 + ^
STACK CFI INIT 100f00 14 .cfa: sp 0 + .ra: lr
STACK CFI 100f04 .cfa: sp 8 + .ra: .cfa -4 + ^ r3: .cfa -8 + ^
STACK CFI INIT 100f14 14 .cfa: sp 0 + .ra: lr
STACK CFI 100f18 .cfa: sp 8 + .ra: .cfa -4 + ^ r3: .cfa -8 + ^
STACK CFI INIT 100f28 10 .cfa: sp 0 + .ra: lr
STACK CFI INIT 100f38 14 .cfa: sp 0 + .ra: lr
STACK CFI 100f3c .cfa: sp 8 + .ra: .cfa -4 + ^ r4: .cfa -8 + ^
STACK CFI INIT 100f4c 28 .cfa: sp 0 + .ra: lr
STACK CFI 100f54 .cfa: sp 8 + .ra: .cfa -4 + ^ r4: .cfa -8 + ^
STACK CFI INIT 100f74 30 .cfa: sp 0 + .ra: lr
STACK CFI 100f7c .cfa: sp 8 + .ra: .cfa -4 + ^ r4: .cfa -8 + ^
STACK CFI INIT 100fa4 c0 .cfa: sp 0 + .ra: lr
STACK CFI 100fa8 .cfa: sp 16 + .ra: .cfa -4 + ^ r4: .cfa -16 + ^ r5: .cfa -12 + ^ r6: .cfa -8 + ^
STACK CFI 100fac .cfa: sp 32 +
STACK CFI INIT 101064 10 .cfa: sp 0 + .ra: lr
STACK CFI INIT 101074 10 .cfa: sp 0 + .ra: lr
STACK CFI INIT 101084 18 .cfa: sp 0 + .ra: lr
STACK CFI INIT 10109c c .cfa: sp 0 + .ra: lr
STACK CFI INIT 1010a8 60 .cfa: sp 0 + .ra: lr
STACK CFI 1010b4 .cfa: sp 8 + .ra: .cfa -4 + ^ r4: .cfa -8 + ^
STACK CFI 1010b8 .cfa: sp 16 +
STACK CFI INIT 101108 28 .cfa: sp 0 + .ra: lr
STACK CFI INIT 101130 18 .cfa: sp 0 + .ra: lr
STACK CFI INIT 101148 18 .cfa: sp 0 + .ra: lr
STACK CFI INIT 101160 28 .cfa: sp 0 + .ra: lr
STACK CFI 101168 .cfa: sp 8 + .ra: .cfa -4 + ^ r4: .cfa -8 + ^
STACK CFI INIT 101188 28 .cfa: sp 0 + .ra: lr
STACK CFI 101190 .cfa: sp 8 + .ra: .cfa -4 + ^ r4: .cfa -8 + ^
STACK CFI INIT 1011b0 28 .cfa: sp 0 + .ra: lr
STACK CFI 1011b8 .cfa: sp 8 + .ra: .cfa -4 + ^ r4: .cfa -8 + ^
STACK CFI INIT 1011d8 28 .cfa: sp 0 + .ra: lr
STACK CFI 1011e0 .cfa: sp 8 + .ra: .cfa -4 + ^ r4: .cfa -8 + ^
STACK CFI INIT 101200 30 .cfa: sp 0 + .ra: lr
STACK CFI 101208 .cfa: sp 8 + .ra: .cfa -4 + ^ r4: .cfa -8 + ^
STACK CFI INIT 101230 30 .cfa: sp 0 + .ra: lr
STACK CFI 101234 .cfa: sp 8 + .ra: .cfa -4 + ^ r4: .cfa -8 + ^
STACK CFI 10123c .cfa: sp 16 +
STACK CFI INIT 101260 30 .cfa: sp 0 + .ra: lr
STACK CFI 101264 .cfa: sp 8 + .ra: .cfa -4 + ^ r4: .cfa -8 + ^
STACK CFI 10126c .cfa: sp 16 +
STACK CFI INIT 101290 18 .cfa: sp 0 + .ra: lr
STACK CFI INIT 1012a8 10 .cfa: sp 0 + .ra: lr
STACK CFI INIT 1012b8 10 .cfa: sp 0 + .ra: lr
STACK CFI INIT 1012c8 24 .cfa: sp 0 + .ra: lr
STACK CFI 1012d0 .cfa: sp 8 + .ra: .cfa -4 + ^ r4: .cfa -8 + ^
STACK CFI INIT 19438 84 .cfa: sp 0 + .ra: lr
STACK CFI 1943c .cfa: sp 8 + .ra: .cfa -4 + ^ r4: .cfa -8 + ^
STACK CFI INIT 1012ec 1b4 .cfa: sp 0 + .ra: lr
STACK CFI 1012f4 .cfa: sp 20 + .ra: .cfa -4 + ^ r4: .cfa -20 + ^ r5: .cfa -16 + ^ r6: .cfa -12 + ^ r7: .cfa -8 + ^
STACK CFI 101300 .cfa: sp 32 +
STACK CFI INIT 1014a0 20 .cfa: sp 0 + .ra: lr
STACK CFI 1014a8 .cfa: sp 8 + .ra: .cfa -4 + ^ r3: .cfa -8 + ^
STACK CFI INIT 1014c0 28 .cfa: sp 0 + .ra: lr
STACK CFI 1014c8 .cfa: sp 8 + .ra: .cfa -4 + ^ r4: .cfa -8 + ^
STACK CFI INIT 1014e8 1c .cfa: sp 0 + .ra: lr
STACK CFI 1014ec .cfa: sp 8 + .ra: .cfa -4 + ^ r4: .cfa -8 + ^
STACK CFI INIT 101504 90 .cfa: sp 0 + .ra: lr
STACK CFI 101508 .cfa: sp 24 + .ra: .cfa -4 + ^ r4: .cfa -24 + ^ r5: .cfa -20 + ^ r6: .cfa -16 + ^ r7: .cfa -12 + ^ r8: .cfa -8 + ^
STACK CFI INIT 101594 4c .cfa: sp 0 + .ra: lr
STACK CFI 101598 .cfa: sp 8 + .ra: .cfa -4 + ^ r4: .cfa -8 + ^
STACK CFI INIT 1015e0 4c .cfa: sp 0 + .ra: lr
STACK CFI 1015e4 .cfa: sp 8 + .ra: .cfa -4 + ^ r4: .cfa -8 + ^
STACK CFI INIT 10162c 1d0 .cfa: sp 0 + .ra: lr
STACK CFI 101634 .cfa: sp 12 + r4: .cfa -12 + ^ r5: .cfa -8 + ^ r6: .cfa -4 + ^
STACK CFI INIT 1017fc 6c .cfa: sp 0 + .ra: lr
STACK CFI 101808 .cfa: sp 12 + r4: .cfa -12 + ^ r5: .cfa -8 + ^ r6: .cfa -4 + ^
STACK CFI INIT 101868 13c .cfa: sp 0 + .ra: lr
STACK CFI 10186c .cfa: sp 32 + .ra: .cfa -4 + ^ r3: .cfa -32 + ^ r4: .cfa -28 + ^ r5: .cfa -24 + ^ r6: .cfa -20 + ^ r7: .cfa -16 + ^ r8: .cfa -12 + ^ r9: .cfa -8 + ^
STACK CFI INIT 1019a4 58 .cfa: sp 0 + .ra: lr
STACK CFI INIT 1019fc f4 .cfa: sp 0 + .ra: lr
STACK CFI 101a00 .cfa: sp 24 + .ra: .cfa -4 + ^ r4: .cfa -24 + ^ r5: .cfa -20 + ^ r6: .cfa -16 + ^ r7: .cfa -12 + ^ r8: .cfa -8 + ^
STACK CFI INIT 101af0 244 .cfa: sp 0 + .ra: lr
STACK CFI 101af8 .cfa: sp 24 + r4: .cfa -24 + ^ r5: .cfa -20 + ^ r6: .cfa -16 + ^ r7: .cfa -12 + ^ r8: .cfa -8 + ^ r9: .cfa -4 + ^
STACK CFI INIT 101d34 5c .cfa: sp 0 + .ra: lr
STACK CFI 101d3c .cfa: sp 16 + .ra: .cfa -4 + ^ r4: .cfa -16 + ^ r5: .cfa -12 + ^ r6: .cfa -8 + ^
STACK CFI INIT 101d90 7c .cfa: sp 0 + .ra: lr
STACK CFI 101d98 .cfa: sp 8 + r4: .cfa -8 + ^ r5: .cfa -4 + ^
STACK CFI INIT 101e0c 60 .cfa: sp 0 + .ra: lr
STACK CFI 101e18 .cfa: sp 8 + .ra: .cfa -4 + ^ r4: .cfa -8 + ^
STACK CFI INIT 101e6c 54 .cfa: sp 0 + .ra: lr
STACK CFI 101e74 .cfa: sp 8 + .ra: .cfa -4 + ^ r4: .cfa -8 + ^
STACK CFI INIT 101ec0 80 .cfa: sp 0 + .ra: lr
STACK CFI 101ec4 .cfa: sp 16 + .ra: .cfa -4 + ^ r3: .cfa -16 + ^ r4: .cfa -12 + ^ r5: .cfa -8 + ^
STACK CFI INIT 101f40 34 .cfa: sp 0 + .ra: lr
STACK CFI 101f44 .cfa: sp 8 + .ra: .cfa -4 + ^ r3: .cfa -8 + ^
STACK CFI INIT 101f74 f8 .cfa: sp 0 + .ra: lr
STACK CFI 101f78 .cfa: sp 16 + .ra: .cfa -4 + ^ r4: .cfa -16 + ^ r5: .cfa -12 + ^ r6: .cfa -8 + ^
STACK CFI INIT 10206c 9c .cfa: sp 0 + .ra: lr
STACK CFI 102074 .cfa: sp 16 + .ra: .cfa -4 + ^ r3: .cfa -16 + ^ r4: .cfa -12 + ^ r5: .cfa -8 + ^
STACK CFI INIT 102108 88 .cfa: sp 0 + .ra: lr
STACK CFI INIT 102190 19c .cfa: sp 0 + .ra: lr
STACK CFI 102194 .cfa: sp 16 + .ra: .cfa -4 + ^ r3: .cfa -16 + ^ r4: .cfa -12 + ^ r5: .cfa -8 + ^
STACK CFI INIT 10232c cc .cfa: sp 0 + .ra: lr
STACK CFI 102334 .cfa: sp 24 + .ra: .cfa -4 + ^ r4: .cfa -24 + ^ r5: .cfa -20 + ^ r6: .cfa -16 + ^ r7: .cfa -12 + ^ r8: .cfa -8 + ^
STACK CFI INIT 1023f8 158 .cfa: sp 0 + .ra: lr
STACK CFI 1023fc .cfa: sp 24 + .ra: .cfa -4 + ^ r3: .cfa -24 + ^ r4: .cfa -20 + ^ r5: .cfa -16 + ^ r6: .cfa -12 + ^ r7: .cfa -8 + ^
STACK CFI INIT 102550 170 .cfa: sp 0 + .ra: lr
STACK CFI 102558 .cfa: sp 16 + .ra: .cfa -4 + ^ r4: .cfa -16 + ^ r5: .cfa -12 + ^ r6: .cfa -8 + ^
STACK CFI 102560 .cfa: sp 24 +
STACK CFI INIT 1026c0 4b0 .cfa: sp 0 + .ra: lr
STACK CFI 1026c8 .cfa: sp 24 + .ra: .cfa -4 + ^ r4: .cfa -24 + ^ r5: .cfa -20 + ^ r6: .cfa -16 + ^ r7: .cfa -12 + ^ r8: .cfa -8 + ^
STACK CFI 1026d0 .cfa: sp 32 +
STACK CFI INIT 102b70 b88 .cfa: sp 0 + .ra: lr
STACK CFI 102b78 .cfa: sp 20 + .ra: .cfa -4 + ^ r4: .cfa -20 + ^ r5: .cfa -16 + ^ r6: .cfa -12 + ^ r7: .cfa -8 + ^
STACK CFI 102b80 .cfa: sp 32 +
STACK CFI INIT 1036f8 108 .cfa: sp 0 + .ra: lr
STACK CFI 103700 .cfa: sp 12 + .ra: .cfa -4 + ^ r4: .cfa -12 + ^ r5: .cfa -8 + ^
STACK CFI 103708 .cfa: sp 24 +
STACK CFI INIT 103800 68 .cfa: sp 0 + .ra: lr
STACK CFI 103808 .cfa: sp 16 + .ra: .cfa -4 + ^ r4: .cfa -16 + ^ r5: .cfa -12 + ^ r6: .cfa -8 + ^
STACK CFI INIT 103868 874 .cfa: sp 0 + .ra: lr
STACK CFI 103870 .cfa: sp 32 + .ra: .cfa -4 + ^ r10: .cfa -8 + ^ r4: .cfa -32 + ^ r5: .cfa -28 + ^ r6: .cfa -24 + ^ r7: .cfa -20 + ^ r8: .cfa -16 + ^ r9: .cfa -12 + ^
STACK CFI INIT 1040dc 194 .cfa: sp 0 + .ra: lr
STACK CFI 1040e4 .cfa: sp 24 + .ra: .cfa -4 + ^ r4: .cfa -24 + ^ r5: .cfa -20 + ^ r6: .cfa -16 + ^ r7: .cfa -12 + ^ r8: .cfa -8 + ^
STACK CFI INIT 104270 468 .cfa: sp 0 + .ra: lr
STACK CFI 104278 .cfa: sp 24 + .ra: .cfa -4 + ^ r4: .cfa -24 + ^ r5: .cfa -20 + ^ r6: .cfa -16 + ^ r7: .cfa -12 + ^ r8: .cfa -8 + ^
STACK CFI INIT 1046d8 61c .cfa: sp 0 + .ra: lr
STACK CFI 1046e0 .cfa: sp 24 + .ra: .cfa -4 + ^ r4: .cfa -24 + ^ r5: .cfa -20 + ^ r6: .cfa -16 + ^ r7: .cfa -12 + ^ r8: .cfa -8 + ^
STACK CFI INIT 104cf4 ac .cfa: sp 0 + .ra: lr
STACK CFI 104cfc .cfa: sp 16 + .ra: .cfa -4 + ^ r4: .cfa -16 + ^ r5: .cfa -12 + ^ r6: .cfa -8 + ^
STACK CFI 104d08 .cfa: sp 24 +
STACK CFI INIT 104da0 84 .cfa: sp 0 + .ra: lr
STACK CFI 104da4 .cfa: sp 24 + .ra: .cfa -4 + ^ r4: .cfa -24 + ^ r5: .cfa -20 + ^ r6: .cfa -16 + ^ r7: .cfa -12 + ^ r8: .cfa -8 + ^
STACK CFI INIT 104e24 3554 .cfa: sp 0 + .ra: lr
STACK CFI 104e2c .cfa: sp 36 + .ra: .cfa -4 + ^ r10: .cfa -12 + ^ r11: .cfa -8 + ^ r4: .cfa -36 + ^ r5: .cfa -32 + ^ r6: .cfa -28 + ^ r7: .cfa -24 + ^ r8: .cfa -20 + ^ r9: .cfa -16 + ^
STACK CFI 104e34 .cfa: sp 128 +
STACK CFI INIT 108378 20 .cfa: sp 0 + .ra: lr
STACK CFI INIT 108398 778 .cfa: sp 0 + .ra: lr
STACK CFI 1083a0 .cfa: sp 32 + .ra: .cfa -4 + ^ r10: .cfa -8 + ^ r4: .cfa -32 + ^ r5: .cfa -28 + ^ r6: .cfa -24 + ^ r7: .cfa -20 + ^ r8: .cfa -16 + ^ r9: .cfa -12 + ^
STACK CFI INIT 108b10 398 .cfa: sp 0 + .ra: lr
STACK CFI 108b14 .cfa: sp 36 + .ra: .cfa -4 + ^ r10: .cfa -12 + ^ r11: .cfa -8 + ^ r4: .cfa -36 + ^ r5: .cfa -32 + ^ r6: .cfa -28 + ^ r7: .cfa -24 + ^ r8: .cfa -20 + ^ r9: .cfa -16 + ^
STACK CFI 108b1c .cfa: sp 72 +
STACK CFI INIT 108ea8 264 .cfa: sp 0 + .ra: lr
STACK CFI 108eac .cfa: sp 40 + .ra: .cfa -4 + ^ r10: .cfa -12 + ^ r11: .cfa -8 + ^ r3: .cfa -40 + ^ r4: .cfa -36 + ^ r5: .cfa -32 + ^ r6: .cfa -28 + ^ r7: .cfa -24 + ^ r8: .cfa -20 + ^ r9: .cfa -16 + ^
STACK CFI INIT 10910c 2d8 .cfa: sp 0 + .ra: lr
STACK CFI 109110 .cfa: sp 32 + .ra: .cfa -4 + ^ r3: .cfa -32 + ^ r4: .cfa -28 + ^ r5: .cfa -24 + ^ r6: .cfa -20 + ^ r7: .cfa -16 + ^ r8: .cfa -12 + ^ r9: .cfa -8 + ^
STACK CFI INIT 1093e4 238 .cfa: sp 0 + .ra: lr
STACK CFI 1093e8 .cfa: sp 24 + .ra: .cfa -4 + ^ r4: .cfa -24 + ^ r5: .cfa -20 + ^ r6: .cfa -16 + ^ r7: .cfa -12 + ^ r8: .cfa -8 + ^
STACK CFI 1093f4 .cfa: sp 32 +
STACK CFI INIT 10961c a4 .cfa: sp 0 + .ra: lr
STACK CFI 109624 .cfa: sp 32 + .ra: .cfa -4 + ^ r3: .cfa -32 + ^ r4: .cfa -28 + ^ r5: .cfa -24 + ^ r6: .cfa -20 + ^ r7: .cfa -16 + ^ r8: .cfa -12 + ^ r9: .cfa -8 + ^
STACK CFI INIT 1096c0 110 .cfa: sp 0 + .ra: lr
STACK CFI 1096c4 .cfa: sp 24 + .ra: .cfa -4 + ^ r3: .cfa -24 + ^ r4: .cfa -20 + ^ r5: .cfa -16 + ^ r6: .cfa -12 + ^ r7: .cfa -8 + ^
STACK CFI INIT 1097d0 31c .cfa: sp 0 + .ra: lr
STACK CFI 1097d4 .cfa: sp 32 + .ra: .cfa -4 + ^ r11: .cfa -8 + ^ r4: .cfa -32 + ^ r5: .cfa -28 + ^ r6: .cfa -24 + ^ r7: .cfa -20 + ^ r8: .cfa -16 + ^ r9: .cfa -12 + ^
STACK CFI 1097d8 .cfa: r11 4 +
STACK CFI INIT 109aec 14c .cfa: sp 0 + .ra: lr
STACK CFI 109af4 .cfa: sp 24 + .ra: .cfa -4 + ^ r4: .cfa -24 + ^ r5: .cfa -20 + ^ r6: .cfa -16 + ^ r7: .cfa -12 + ^ r8: .cfa -8 + ^
STACK CFI 109afc .cfa: sp 40 +
STACK CFI INIT 109c38 2c .cfa: sp 0 + .ra: lr
STACK CFI 109c44 .cfa: sp 8 + .ra: .cfa -4 + ^ r3: .cfa -8 + ^
STACK CFI INIT 109c64 2c .cfa: sp 0 + .ra: lr
STACK CFI 109c68 .cfa: sp 8 + .ra: .cfa -4 + ^ r3: .cfa -8 + ^
STACK CFI INIT 109c90 a8 .cfa: sp 0 + .ra: lr
STACK CFI INIT 109d58 dc .cfa: sp 0 + .ra: lr
STACK CFI INIT 109e64 18 .cfa: sp 0 + .ra: lr
STACK CFI INIT 109e7c ac .cfa: sp 0 + .ra: lr
STACK CFI 109e80 .cfa: sp 48 + .ra: .cfa -4 + ^ r0: .cfa -48 + ^ r1: .cfa -44 + ^ r10: .cfa -12 + ^ r11: .cfa -8 + ^ r2: .cfa -40 + ^ r4: .cfa -36 + ^ r5: .cfa -32 + ^ r6: .cfa -28 + ^ r7: .cfa -24 + ^ r8: .cfa -20 + ^ r9: .cfa -16 + ^
STACK CFI INIT 109f28 50 .cfa: sp 0 + .ra: lr
STACK CFI INIT 109f78 10c .cfa: sp 0 + .ra: lr
STACK CFI 109f80 .cfa: sp 24 + .ra: .cfa -4 + ^ r0: .cfa -24 + ^ r1: .cfa -20 + ^ r2: .cfa -16 + ^ r4: .cfa -12 + ^ r5: .cfa -8 + ^
STACK CFI INIT 10a084 6c .cfa: sp 0 + .ra: lr
STACK CFI 10a08c .cfa: sp 8 + .ra: .cfa -4 + ^ r4: .cfa -8 + ^
STACK CFI INIT 10a0f0 14 .cfa: sp 0 + .ra: lr
STACK CFI INIT 10a104 8 .cfa: sp 0 + .ra: lr
STACK CFI INIT 10a10c 4 .cfa: sp 0 + .ra: lr
STACK CFI INIT 10a110 64 .cfa: sp 0 + .ra: lr
STACK CFI 10a114 .cfa: sp 16 + .ra: .cfa -4 + ^ r4: .cfa -16 + ^ r5: .cfa -12 + ^ r6: .cfa -8 + ^
STACK CFI INIT 10a174 124 .cfa: sp 0 + .ra: lr
STACK CFI 10a178 .cfa: sp 36 + .ra: .cfa -4 + ^ r10: .cfa -12 + ^ r11: .cfa -8 + ^ r4: .cfa -36 + ^ r5: .cfa -32 + ^ r6: .cfa -28 + ^ r7: .cfa -24 + ^ r8: .cfa -20 + ^ r9: .cfa -16 + ^
STACK CFI 10a194 .cfa: sp 1008 +
STACK CFI INIT 10a298 8 .cfa: sp 0 + .ra: lr
STACK CFI INIT 10a2a0 a4 .cfa: sp 0 + .ra: lr
STACK CFI 10a2a8 .cfa: sp 20 + .ra: .cfa -4 + ^ r4: .cfa -20 + ^ r5: .cfa -16 + ^ r6: .cfa -12 + ^ r7: .cfa -8 + ^
STACK CFI 10a2bc .cfa: sp 504 +
STACK CFI INIT 10a344 1c .cfa: sp 0 + .ra: lr
STACK CFI INIT 10a360 74 .cfa: sp 0 + .ra: lr
STACK CFI 10a364 .cfa: sp 16 + .ra: .cfa -4 + ^ r4: .cfa -16 + ^ r5: .cfa -12 + ^ r6: .cfa -8 + ^
STACK CFI INIT 10a3d4 20 .cfa: sp 0 + .ra: lr
STACK CFI INIT 10a3f4 4 .cfa: sp 0 + .ra: lr
STACK CFI INIT 10a3f8 20 .cfa: sp 0 + .ra: lr
STACK CFI 10a3fc .cfa: sp 8 + .ra: .cfa -4 + ^ r3: .cfa -8 + ^
STACK CFI INIT 10a418 5c .cfa: sp 0 + .ra: lr
STACK CFI INIT 10a474 28 .cfa: sp 0 + .ra: lr
STACK CFI 10a478 .cfa: sp 24 + .ra: .cfa -4 + ^ r0: .cfa -24 + ^ r1: .cfa -20 + ^ r2: .cfa -16 + ^ r3: .cfa -12 + ^ r4: .cfa -8 + ^
STACK CFI INIT 10a49c 5c .cfa: sp 0 + .ra: lr
STACK CFI INIT 10a4f8 2c .cfa: sp 0 + .ra: lr
STACK CFI 10a4fc .cfa: sp 24 + .ra: .cfa -4 + ^ r0: .cfa -24 + ^ r1: .cfa -20 + ^ r2: .cfa -16 + ^ r3: .cfa -12 + ^ r4: .cfa -8 + ^
STACK CFI INIT 10a524 c4 .cfa: sp 0 + .ra: lr
STACK CFI 10a52c .cfa: sp 24 + .ra: .cfa -4 + ^ r4: .cfa -24 + ^ r5: .cfa -20 + ^ r6: .cfa -16 + ^ r7: .cfa -12 + ^ r8: .cfa -8 + ^
STACK CFI 10a540 .cfa: sp 592 +
STACK CFI INIT 10a5e8 3f0 .cfa: sp 0 + .ra: lr
STACK CFI 10a5ec .cfa: sp 36 + .ra: .cfa -4 + ^ r10: .cfa -12 + ^ r11: .cfa -8 + ^ r4: .cfa -36 + ^ r5: .cfa -32 + ^ r6: .cfa -28 + ^ r7: .cfa -24 + ^ r8: .cfa -20 + ^ r9: .cfa -16 + ^
STACK CFI 10a5f8 .cfa: sp 72 +
STACK CFI INIT 10a9d8 8 .cfa: sp 0 + .ra: lr
STACK CFI INIT 10a9e0 8 .cfa: sp 0 + .ra: lr
STACK CFI INIT 10a9e8 8 .cfa: sp 0 + .ra: lr
STACK CFI INIT 10a9f0 34c .cfa: sp 0 + .ra: lr
STACK CFI 10a9f4 .cfa: sp 28 + .ra: .cfa -4 + ^ r4: .cfa -28 + ^ r5: .cfa -24 + ^ r6: .cfa -20 + ^ r7: .cfa -16 + ^ r8: .cfa -12 + ^ r9: .cfa -8 + ^
STACK CFI 10a9fc .cfa: sp 296 +
STACK CFI INIT 10aee4 60 .cfa: sp 0 + .ra: lr
STACK CFI INIT 10af44 28 .cfa: sp 0 + .ra: lr
STACK CFI 10af48 .cfa: sp 24 + .ra: .cfa -4 + ^ r0: .cfa -24 + ^ r1: .cfa -20 + ^ r2: .cfa -16 + ^ r3: .cfa -12 + ^ r4: .cfa -8 + ^
STACK CFI INIT 10af6c 4 .cfa: sp 0 + .ra: lr
STACK CFI INIT 10af70 37c .cfa: sp 0 + .ra: lr
STACK CFI 10af74 .cfa: sp 48 + .ra: .cfa -4 + ^ r0: .cfa -48 + ^ r1: .cfa -44 + ^ r10: .cfa -8 + ^ r2: .cfa -40 + ^ r3: .cfa -36 + ^ r4: .cfa -32 + ^ r5: .cfa -28 + ^ r6: .cfa -24 + ^ r7: .cfa -20 + ^ r8: .cfa -16 + ^ r9: .cfa -12 + ^
STACK CFI INIT 10b2ec 40 .cfa: sp 0 + .ra: lr
STACK CFI 10b2f0 .cfa: sp 24 + .ra: .cfa -4 + ^ r0: .cfa -24 + ^ r1: .cfa -20 + ^ r2: .cfa -16 + ^ r3: .cfa -12 + ^ r4: .cfa -8 + ^
STACK CFI INIT 10b32c 10 .cfa: sp 0 + .ra: lr
STACK CFI 10b330 .cfa: sp 8 + .ra: .cfa -4 + ^ r3: .cfa -8 + ^
STACK CFI INIT 10b33c 1c .cfa: sp 0 + .ra: lr
STACK CFI 10b340 .cfa: sp 8 + .ra: .cfa -4 + ^ r3: .cfa -8 + ^
STACK CFI INIT 10b358 8 .cfa: sp 0 + .ra: lr
STACK CFI 10b35c .cfa: sp 8 + .ra: .cfa -4 + ^ r3: .cfa -8 + ^
STACK CFI INIT 10b360 8 .cfa: sp 0 + .ra: lr
STACK CFI 10b364 .cfa: sp 8 + .ra: .cfa -4 + ^ r3: .cfa -8 + ^
