MODULE Linux arm E173937CB9750A9273C409E035F39D3D0 libdvdnav-arm.so
FUNC 4f08 8e0 0 CryptKey
FUNC 57e8 304 0 DecryptKey
FUNC 5aec 534 0 GetBusKey
FUNC 6020 124 0 GetASF
FUNC 6144 88 0 PrintKey
FUNC 61cc eb0 0 CrackTitleKey
FUNC 707c 250 0 _dvdcss_test
FUNC 72cc cd0 0 _dvdcss_disckey
FUNC 7f9c 87c 0 _dvdcss_title
FUNC 8818 100 0 _dvdcss_unscramble
FUNC 8918 2c 0 libc_readv
FUNC 8944 194 0 libc_read
FUNC 8ad8 8c 0 libc_seek
FUNC 8b64 3c 0 _dvdcss_use_ioctls
FUNC 8ba0 10c 0 _dvdcss_check
FUNC 8cac 1a8 0 _dvdcss_open
FUNC 8e54 c4 0 _dvdcss_raw_open
FUNC 8f18 34 0 _dvdcss_close
FUNC 8f50 4c 0 _print_error
FUNC 8f9c 58 0 ioctl_ReadCopyright
FUNC 8ff4 7c 0 ioctl_ReadDiscKey
FUNC 9070 60 0 ioctl_ReadTitleKey
FUNC 90d0 50 0 ioctl_ReportAgid
FUNC 9120 68 0 ioctl_ReportChallenge
FUNC 9188 58 0 ioctl_ReportASF
FUNC 91e0 60 0 ioctl_ReportKey1
FUNC 9240 48 0 ioctl_InvalidateAgid
FUNC 9288 54 0 ioctl_SendChallenge
FUNC 92dc 54 0 ioctl_SendKey2
FUNC 9330 64 0 ioctl_ReportRPC
FUNC 9394 9d0 0 dvdcss_open
FUNC 9d64 c 0 dvdcss_error
FUNC 9d70 5c 0 dvdcss_seek
FUNC 9dcc c8 0 dvdcss_read
FUNC 9e94 b0 0 dvdcss_readv
FUNC 9f44 54 0 dvdcss_close
FUNC 9f98 4 0 dvdcss_title
FUNC 9f9c 8 0 dvdcss_is_scrambled
FUNC 9fa4 34 0 dvdread_getbits_init
FUNC 9fd8 128 0 dvdread_getbits
FUNC a100 8 0 css_error
FUNC a108 8 0 css_read
FUNC a110 c 0 css_title
FUNC a11c c 0 css_seek
FUNC a128 28 0 css_close
FUNC a150 9c 0 css_open
FUNC a1ec c4 0 dvdinput_setup
FUNC a2b0 5e4 0 DVDOpenVOBUDF
FUNC a894 1d0 0 findDVDFile
FUNC aa64 28 0 DVDUDFCacheLevel
FUNC aa8c 8 0 GetUDFCacheHandle
FUNC aa94 8 0 SetUDFCacheHandle
FUNC aa9c 578 0 DVDOpen
FUNC b014 58 0 DVDClose
FUNC b06c 830 0 DVDOpenFile
FUNC b89c 5c 0 DVDCloseFile
FUNC b8f8 5f8 0 DVDFileStat
FUNC bef0 cc 0 UDFReadBlocksRaw
FUNC bfbc 34 0 DVDCheckSector
FUNC bff0 4c0 0 DVDReadBlocksCached
FUNC c4b0 3c 0 DVDReadBlocks
FUNC c4ec 30 0 DVDFileSeek
FUNC c51c 94 0 DVDFileSeekForce
FUNC c5b0 118 0 DVDReadBytes
FUNC c6c8 10 0 DVDFileSize
FUNC c6d8 160 0 DVDDiscID
FUNC c838 17c 0 DVDISOVolumeInfo
FUNC c9b4 78 0 DVDUDFVolumeInfo
FUNC ca30 1bc 0 UDFGetAVDP
FUNC cbec 20c 0 UDFGetPVD
FUNC cdf8 660 0 UDFMapICB
FUNC d458 70 0 FreeUDFCache
FUNC d4c8 1020 0 UDFFindFile
FUNC e4e8 2cc 0 UDFGetVolumeIdentifier
FUNC e7b4 44 0 UDFGetVolumeSetIdentifier
FUNC e7f8 344 0 ifo_print_video_attributes
FUNC eb3c 4f0 0 ifo_print_audio_attributes
FUNC f02c 290 0 ifo_print_subp_attributes
FUNC f2bc 21c 0 dvdread_print_time
FUNC f4d8 d60 0 ifoPrint_PGC
FUNC 10238 31c 0 ifoPrint_PGCI_UT
FUNC 10554 150c 0 ifo_print
FUNC 11a60 104 0 ifoFree_PGC
FUNC 11b64 140 0 read_video_attr
FUNC 11ca4 1b8 0 read_audio_attr
FUNC 11e5c c8 0 read_subp_attr
FUNC 11f24 e68 0 ifoRead_VMG
FUNC 12d8c 1a40 0 ifoRead_VTS
FUNC 147cc 1174 0 ifoRead_PGC
FUNC 15940 460 0 ifoRead_C_ADT_internal
FUNC 15da0 590 0 ifoRead_PGCIT_internal
FUNC 16330 17c 0 ifoFree_PGCIT_internal
FUNC 164ac b0 0 ifoRead_FP_PGC
FUNC 1655c 100 0 ifoFree_FP_PGC
FUNC 1665c 34 0 ifoFree_TT_SRPT
FUNC 16690 760 0 ifoRead_TT_SRPT
FUNC 16df0 8b4 0 ifoRead_VTS_PTT_SRPT
FUNC 176a4 7c 0 ifoFree_VTS_PTT_SRPT
FUNC 17720 b18 0 ifoRead_PTL_MAIT
FUNC 18238 70 0 ifoFree_PTL_MAIT
FUNC 182a8 80 0 ifoFree_VTS_TMAPT
FUNC 18328 5e8 0 ifoRead_VTS_TMAPT
FUNC 18910 a4 0 ifoRead_TITLE_C_ADT
FUNC 189b4 b4 0 ifoRead_C_ADT
FUNC 18a68 34 0 ifoFree_C_ADT
FUNC 18a9c 34 0 ifoFree_TITLE_C_ADT
FUNC 18ad0 200 0 ifoRead_TITLE_VOBU_ADMAP
FUNC 18cd0 20c 0 ifoRead_VOBU_ADMAP
FUNC 18edc 34 0 ifoFree_VOBU_ADMAP
FUNC 18f10 34 0 ifoFree_TITLE_VOBU_ADMAP
FUNC 18f44 b4 0 ifoRead_PGCIT
FUNC 18ff8 17c 0 ifoFree_PGCIT
FUNC 19174 588 0 ifoRead_PGCI_UT
FUNC 196fc 1fc 0 ifoFree_PGCI_UT
FUNC 198f8 de0 0 ifoRead_VTS_ATRT
FUNC 1a6d8 40 0 ifoFree_VTS_ATRT
FUNC 1a718 b8 0 ifoRead_TXTDT_MGI
FUNC 1a7d0 28 0 ifoFree_TXTDT_MGI
FUNC 1a7f8 ac 0 ifoClose
FUNC 1a8a4 3f4 0 ifoOpen
FUNC 1ac98 ec 0 ifoOpenVMGI
FUNC 1ad84 11c 0 ifoOpenVTSI
FUNC 1aea0 48 0 md5_init_ctx
FUNC 1aee8 2c 0 md5_read_ctx
FUNC 1af14 af4 0 md5_process_block
FUNC 1ba08 a0 0 md5_finish_ctx
FUNC 1baa8 e4 0 md5_process_bytes
FUNC 1bb8c 44 0 md5_buffer
FUNC 1bbd0 d0 0 md5_stream
FUNC 1bca0 6c8 0 navPrint_PCI
FUNC 1c368 3e0 0 navPrint_DSI
FUNC 1c748 1534 0 navRead_PCI
FUNC 1dc7c 30c 0 navRead_DSI
FUNC 1df88 7dc 0 eval_set_op
FUNC 1e764 b8 0 vm_getbits
FUNC 1e81c 27c 0 eval_if_version_2
FUNC 1ea98 130 0 eval_link_instruction
FUNC 1ebc8 164 0 eval_set_version_2
FUNC 1ed2c 2ac 0 eval_if_version_4
FUNC 1efd8 2ac 0 eval_if_version_1
FUNC 1f284 11a4 0 vmEval_CMD
FUNC 20428 124 0 dvdnav_decode_packet
FUNC 2054c 260 0 dvdnav_open
FUNC 207ac 88 0 dvdnav_close
FUNC 20834 11c 0 dvdnav_reset
FUNC 20950 c 0 dvdnav_path
FUNC 2095c 24 0 dvdnav_err_to_string
FUNC 20980 e4 0 dvdnav_convert_time
FUNC 20a64 b4 0 dvdnav_get_current_time
FUNC 20b18 e30 0 dvdnav_get_next_cache_block
FUNC 21948 6c 0 dvdnav_get_next_block
FUNC 219b4 18 0 dvdnav_get_title_string
FUNC 219cc 1c 0 dvdnav_get_serial_string
FUNC 219e8 6c 0 dvdnav_get_video_aspect
FUNC 21a54 94 0 dvdnav_get_video_resolution
FUNC 21ae8 6c 0 dvdnav_get_video_scale_permission
FUNC 21b54 90 0 dvdnav_audio_stream_to_lang
FUNC 21be4 84 0 dvdnav_audio_stream_format
FUNC 21c68 88 0 dvdnav_audio_stream_channels
FUNC 21cf0 90 0 dvdnav_spu_stream_to_lang
FUNC 21d80 b0 0 dvdnav_get_audio_logical_stream
FUNC 21e30 c8 0 dvdnav_get_audio_attr
FUNC 21ef8 b4 0 dvdnav_get_spu_logical_stream
FUNC 21fac c8 0 dvdnav_get_spu_attr
FUNC 22074 a8 0 dvdnav_get_active_audio_stream
FUNC 2211c ac 0 dvdnav_get_active_spu_stream
FUNC 221c8 7c 0 dvdnav_is_domain_fp
FUNC 22244 7c 0 dvdnav_is_domain_vmgm
FUNC 222c0 7c 0 dvdnav_is_domain_vtsm
FUNC 2233c 7c 0 dvdnav_is_domain_vts
FUNC 223b8 90 0 dvdnav_angle_change
FUNC 22448 44 0 dvdnav_get_angle_info
FUNC 2248c 10 0 dvdnav_get_current_nav_pci
FUNC 2249c 10 0 dvdnav_get_current_nav_dsi
FUNC 224ac 14 0 dvdnav_get_next_still_flag
FUNC 224c0 b4 0 dvdnav_get_restrictions
FUNC 22574 10 0 dvdnav_get_vm
FUNC 22584 128 0 dvdnav_get_button_info
FUNC 226ac 4 0 dvdnav_free
FUNC 226b0 2c 0 dvdnav_get_current_highlight
FUNC 226dc c8 0 dvdnav_get_highlight_area
FUNC 227a4 1d8 0 dvdnav_button_activate
FUNC 2297c 78 0 dvdnav_button_activate_cmd
FUNC 229f4 d4 0 dvdnav_button_select
FUNC 22ac8 14c 0 dvdnav_upper_button_select
FUNC 22c14 14c 0 dvdnav_lower_button_select
FUNC 22d60 14c 0 dvdnav_right_button_select
FUNC 22eac 14c 0 dvdnav_left_button_select
FUNC 22ff8 28 0 dvdnav_button_select_and_activate
FUNC 23020 194 0 dvdnav_mouse_select
FUNC 231b4 28 0 dvdnav_mouse_activate
FUNC 231dc 50 0 dvdnav_still_skip
FUNC 2322c 20 0 dvdnav_wait_skip
FUNC 2324c 5c 0 dvdnav_get_number_of_titles
FUNC 232a8 b0 0 dvdnav_get_number_of_parts
FUNC 23358 14c 0 dvdnav_current_title_info
FUNC 234a4 194 0 dvdnav_current_title_program
FUNC 23638 110 0 dvdnav_program_play
FUNC 23748 13c 0 dvdnav_part_play
FUNC 23884 8 0 dvdnav_title_play
FUNC 2388c 48 0 dvdnav_part_play_auto_stop
FUNC 238d4 30 0 dvdnav_time_play
FUNC 23904 38 0 dvdnav_stop
FUNC 2393c 3c 0 dvdnav_go_up
FUNC 23978 24c 0 dvdnav_read_cache_free
FUNC 23bc4 50 0 dvdnav_read_cache_clear
FUNC 23c14 a4 0 dvdnav_read_cache_new
FUNC 23cb8 258 0 dvdnav_pre_cache_blocks
FUNC 23f10 1ec 0 dvdnav_read_cache_block
FUNC 240fc ac 0 dvdnav_free_cache_block
FUNC 241a8 5d0 0 remap_loadmap
FUNC 24778 144 0 remap_block
FUNC 248bc 1e4 0 dvdnav_admap_interpolate_vobu
FUNC 24aa0 398 0 dvdnav_time_search
FUNC 24e38 48 0 dvdnav_part_search
FUNC 24e80 d0 0 dvdnav_prev_pg_search
FUNC 24f50 d0 0 dvdnav_top_pg_search
FUNC 25020 12c 0 dvdnav_next_pg_search
FUNC 2514c 138 0 dvdnav_menu_call
FUNC 25284 210 0 dvdnav_get_position
FUNC 25494 7bc 0 dvdnav_sector_search
FUNC 25c50 a0 0 dvdnav_get_position_in_title
FUNC 25cf0 494 0 dvdnav_describe_title_chapters
FUNC 26184 84 0 dvdnav_get_state
FUNC 26208 13c 0 dvdnav_set_state
FUNC 26344 ce8 0 dvdnav_jump_to_sector_by_time
FUNC 2702c 18 0 dvdnav_get_region_mask
FUNC 27044 3c 0 dvdnav_set_region_mask
FUNC 27080 10 0 dvdnav_set_readahead_flag
FUNC 27090 14 0 dvdnav_get_readahead_flag
FUNC 270a4 9c 0 dvdnav_menu_language_select
FUNC 27140 9c 0 dvdnav_audio_language_select
FUNC 271dc 9c 0 dvdnav_spu_language_select
FUNC 27278 10 0 dvdnav_set_PGC_positioning_flag
FUNC 27288 14 0 dvdnav_get_PGC_positioning_flag
FUNC 2729c 15c 0 print_reg_or_data
FUNC 273f8 20c 0 print_if_version_2
FUNC 27604 12c 0 print_if_version_1
FUNC 27730 238 0 print_set_version_3
FUNC 27968 2d0 0 print_if_version_5
FUNC 27c38 284 0 print_link_instruction
FUNC 27ebc 116c 0 vm_print_mnemonic
FUNC 29028 90 0 vm_print_cmd
FUNC 290b8 264 0 dvd_read_name
FUNC 2931c 180 0 get_MENU_PGCIT
FUNC 2949c 224 0 ifoOpenNewVTSI
FUNC 296c0 c4 0 set_PGCN
FUNC 29784 130 0 set_VTS_PTT
FUNC 298b4 164 0 set_MENU
FUNC 29a18 1cc 0 set_RSMinfo
FUNC 29be4 c 0 vm_new_vm
FUNC 29bf0 8 0 vm_get_vmgi
FUNC 29bf8 8 0 vm_get_vtsi
FUNC 29c00 8 0 vm_get_dvd_reader
FUNC 29c08 5c 0 vm_stop
FUNC 29c64 18 0 vm_free_vm
FUNC 29c7c 588 0 vm_reset
FUNC 2a204 244 0 vm_new_copy
FUNC 2a448 40 0 vm_merge
FUNC 2a488 24 0 vm_free_copy
FUNC 2a4ac 12c 0 vm_position_get
FUNC 2a5d8 a4 0 vm_get_current_menu
FUNC 2a67c 268 0 vm_get_current_title_part
FUNC 2a8e4 39c 0 play_Cell
FUNC 2ac80 264 0 play_PGC
FUNC 2aee4 14c 0 play_PGC_post
FUNC 2b030 1fc 0 play_PG
FUNC 2b22c 1148 0 process_command
FUNC 2c374 29c 0 vm_start
FUNC 2c610 204 0 vm_jump_pg
FUNC 2c814 200 0 vm_jump_top_pg
FUNC 2ca14 170 0 vm_jump_next_pg
FUNC 2cb84 128 0 vm_jump_prev_pg
FUNC 2ccac fc 0 vm_jump_up
FUNC 2cda8 2c8 0 vm_jump_menu
FUNC 2d070 48 0 vm_jump_resume
FUNC 2d0b8 40 0 vm_exec_cmd
FUNC 2d0f8 264 0 vm_jump_title_program
FUNC 2d35c 304 0 vm_jump_title_part
FUNC 2d660 2e8 0 vm_get_next_cell
FUNC 2d948 3c0 0 vm_jump_cell_block
FUNC 2dd08 54 0 vm_get_audio_stream
FUNC 2dd5c 150 0 vm_get_audio_active_stream
FUNC 2deac 7c 0 vm_get_angle_info
FUNC 2df28 a8 0 vm_get_video_attr
FUNC 2dfd0 80 0 vm_get_video_res
FUNC 2e050 70 0 vm_get_video_aspect
FUNC 2e0c0 b4 0 vm_get_subp_stream
FUNC 2e174 88 0 vm_get_subp_active_stream
FUNC 2e1fc 18 0 vm_get_video_scale_permission
FUNC 2e214 98 0 vm_get_audio_attr
FUNC 2e2ac 90 0 vm_get_subp_attr
FUNC 2e33c 3c 0 vm_get_title_ifo
FUNC 2e378 4 0 vm_ifo_close
FUNC 2e37c 2c 0 vm_get_state
FUNC 2e3a8 278 0 vm_set_state
FUNC 2e620 4 0 __wrap_dlopen
FUNC 2e624 4 0 __wrap_popen
FUNC 2e628 4 0 __wrap_calloc
FUNC 2e62c 4 0 __wrap_malloc
FUNC 2e630 4 0 __wrap_realloc
FUNC 2e634 4 0 __wrap_free
FUNC 2e638 1c 0 __wrap_open
FUNC 2e654 1c 0 __wrap_open64
FUNC 2e670 4 0 __wrap_close
FUNC 2e674 4 0 __wrap_write
FUNC 2e678 4 0 __wrap_read
FUNC 2e67c 4 0 __wrap_lseek
FUNC 2e680 4 0 __wrap_lseek64
FUNC 2e684 4 0 __wrap_fclose
FUNC 2e688 4 0 __wrap_ferror
FUNC 2e68c 4 0 __wrap_clearerr
FUNC 2e690 4 0 __wrap_feof
FUNC 2e694 4 0 __wrap_fileno
FUNC 2e698 4 0 __wrap_fopen
FUNC 2e69c 4 0 __wrap_fopen64
FUNC 2e6a0 4 0 __wrap_fdopen
FUNC 2e6a4 4 0 __wrap_freopen
FUNC 2e6a8 4 0 __wrap_fread
FUNC 2e6ac 4 0 __wrap_fwrite
FUNC 2e6b0 4 0 __wrap_fflush
FUNC 2e6b4 4 0 __wrap_fputc
FUNC 2e6b8 4 0 __wrap_fputs
FUNC 2e6bc 4 0 __wrap__IO_putc
FUNC 2e6c0 4 0 __wrap_fseek
FUNC 2e6c4 4 0 __wrap_fseeko64
FUNC 2e6c8 4 0 __wrap_ftell
FUNC 2e6cc 4 0 __wrap_ftello64
FUNC 2e6d0 4 0 __wrap_rewind
FUNC 2e6d4 4 0 __wrap_fgetpos
FUNC 2e6d8 4 0 __wrap_fgetpos64
FUNC 2e6dc 4 0 __wrap_fsetpos
FUNC 2e6e0 4 0 __wrap_fsetpos64
FUNC 2e6e4 4 0 __wrap_opendir
FUNC 2e6e8 4 0 __wrap_readdir
FUNC 2e6ec 4 0 __wrap_readdir64
FUNC 2e6f0 4 0 __wrap_closedir
FUNC 2e6f4 4 0 __wrap_rewinddir
FUNC 2e6f8 30 0 __wrap_fprintf
FUNC 2e728 4 0 __wrap_vfprintf
FUNC 2e72c 40 0 __wrap_printf
FUNC 2e76c 4 0 __wrap_fgetc
FUNC 2e770 4 0 __wrap_fgets
FUNC 2e774 4 0 __wrap__IO_getc
FUNC 2e778 4 0 __wrap__IO_getc_unlocked
FUNC 2e77c 4 0 __wrap_getc_unlocked
FUNC 2e780 4 0 __wrap_ungetc
FUNC 2e784 4 0 __wrap_getc
FUNC 2e788 30 0 __wrap_ioctl
FUNC 2e7b8 4 0 __wrap__stat
FUNC 2e7bc 4 0 __wrap_stat
FUNC 2e7c0 c 0 __wrap___xstat64
FUNC 2e7cc c 0 __wrap___lxstat64
FUNC 2e7d8 4 0 __wrap_flockfile
FUNC 2e7dc 4 0 __wrap_ftrylockfile
FUNC 2e7e0 4 0 __wrap_funlockfile
FUNC 2e7e4 c 0 __wrap___fxstat64
FUNC 2e7f0 4 0 __wrap_fstat
FUNC 2e7f4 4 0 __wrap_setvbuf
FUNC 2e7f8 4 0 __wrap_getmntent
FUNC 2ea50 3c 0 __gnu_ldivmod_helper
FUNC 2ea8c 3c 0 __gnu_uldivmod_helper
FUNC 2eac8 18 0 selfrel_offset31
FUNC 2eae0 ac 0 search_EIT_table
FUNC 2eb8c 50 0 __gnu_unwind_get_pr_addr
FUNC 2ebdc 110 0 get_eit_entry
FUNC 2ecec 6c 0 restore_non_core_regs
FUNC 2ed58 14 0 _Unwind_decode_typeinfo_ptr
FUNC 2ed6c 8 0 __gnu_unwind_24bit
FUNC 2ed74 4 0 _Unwind_DebugHook
FUNC 2ed78 64 0 unwind_phase2
FUNC 2eddc 124 0 unwind_phase2_forced
FUNC 2ef00 8 0 _Unwind_GetCFA
FUNC 2ef08 a4 0 __gnu_Unwind_RaiseException
FUNC 2efac 1c 0 __gnu_Unwind_ForcedUnwind
FUNC 2efc8 74 0 __gnu_Unwind_Resume
FUNC 2f03c 20 0 __gnu_Unwind_Resume_or_Rethrow
FUNC 2f05c 4 0 _Unwind_Complete
FUNC 2f060 20 0 _Unwind_DeleteException
FUNC 2f080 5c 0 _Unwind_VRS_Get
FUNC 2f0dc 28 0 _Unwind_GetGR
FUNC 2f104 5c 0 _Unwind_VRS_Set
FUNC 2f160 2c 0 _Unwind_SetGR
FUNC 2f18c c4 0 __gnu_Unwind_Backtrace
FUNC 2f250 3f4 0 __gnu_unwind_pr_common
FUNC 2f644 8 0 __aeabi_unwind_cpp_pr0
FUNC 2f64c 8 0 __aeabi_unwind_cpp_pr1
FUNC 2f654 8 0 __aeabi_unwind_cpp_pr2
FUNC 2f65c 358 0 _Unwind_VRS_Pop
FUNC 2fb5c 60 0 next_unwind_byte
FUNC 2fbbc 28 0 _Unwind_GetGR
FUNC 2fbe4 4 0 unwind_UCB_from_context
FUNC 2fbe8 37c 0 __gnu_unwind_execute
FUNC 2ff64 40 0 __gnu_unwind_frame
FUNC 2ffa4 10 0 _Unwind_GetRegionStart
FUNC 2ffb4 1c 0 _Unwind_GetLanguageSpecificData
FUNC 2ffd0 8 0 _Unwind_GetDataRelBase
FUNC 2ffd8 8 0 _Unwind_GetTextRelBase
FUNC 2ffe0 498 0 __divdi3
FUNC 30478 404 0 __udivdi3
PUBLIC 9394 0 dvdcss_open
PUBLIC 9d64 0 dvdcss_error
PUBLIC 9d70 0 dvdcss_seek
PUBLIC 9dcc 0 dvdcss_read
PUBLIC 9e94 0 dvdcss_readv
PUBLIC 9f44 0 dvdcss_close
PUBLIC 9f98 0 dvdcss_title
PUBLIC 9f9c 0 dvdcss_is_scrambled
PUBLIC 9fa4 0 dvdread_getbits_init
PUBLIC 9fd8 0 dvdread_getbits
PUBLIC a1ec 0 dvdinput_setup
PUBLIC aa64 0 DVDUDFCacheLevel
PUBLIC aa8c 0 GetUDFCacheHandle
PUBLIC aa94 0 SetUDFCacheHandle
PUBLIC aa9c 0 DVDOpen
PUBLIC b014 0 DVDClose
PUBLIC b06c 0 DVDOpenFile
PUBLIC b89c 0 DVDCloseFile
PUBLIC b8f8 0 DVDFileStat
PUBLIC bef0 0 UDFReadBlocksRaw
PUBLIC bfbc 0 DVDCheckSector
PUBLIC bff0 0 DVDReadBlocksCached
PUBLIC c4b0 0 DVDReadBlocks
PUBLIC c4ec 0 DVDFileSeek
PUBLIC c51c 0 DVDFileSeekForce
PUBLIC c5b0 0 DVDReadBytes
PUBLIC c6c8 0 DVDFileSize
PUBLIC c6d8 0 DVDDiscID
PUBLIC c838 0 DVDISOVolumeInfo
PUBLIC c9b4 0 DVDUDFVolumeInfo
PUBLIC d458 0 FreeUDFCache
PUBLIC d4c8 0 UDFFindFile
PUBLIC e4e8 0 UDFGetVolumeIdentifier
PUBLIC e7b4 0 UDFGetVolumeSetIdentifier
PUBLIC f2bc 0 dvdread_print_time
PUBLIC 10554 0 ifo_print
PUBLIC 164ac 0 ifoRead_FP_PGC
PUBLIC 1655c 0 ifoFree_FP_PGC
PUBLIC 1665c 0 ifoFree_TT_SRPT
PUBLIC 16690 0 ifoRead_TT_SRPT
PUBLIC 16df0 0 ifoRead_VTS_PTT_SRPT
PUBLIC 176a4 0 ifoFree_VTS_PTT_SRPT
PUBLIC 17720 0 ifoRead_PTL_MAIT
PUBLIC 18238 0 ifoFree_PTL_MAIT
PUBLIC 182a8 0 ifoFree_VTS_TMAPT
PUBLIC 18328 0 ifoRead_VTS_TMAPT
PUBLIC 18910 0 ifoRead_TITLE_C_ADT
PUBLIC 189b4 0 ifoRead_C_ADT
PUBLIC 18a68 0 ifoFree_C_ADT
PUBLIC 18a9c 0 ifoFree_TITLE_C_ADT
PUBLIC 18ad0 0 ifoRead_TITLE_VOBU_ADMAP
PUBLIC 18cd0 0 ifoRead_VOBU_ADMAP
PUBLIC 18edc 0 ifoFree_VOBU_ADMAP
PUBLIC 18f10 0 ifoFree_TITLE_VOBU_ADMAP
PUBLIC 18f44 0 ifoRead_PGCIT
PUBLIC 18ff8 0 ifoFree_PGCIT
PUBLIC 19174 0 ifoRead_PGCI_UT
PUBLIC 196fc 0 ifoFree_PGCI_UT
PUBLIC 198f8 0 ifoRead_VTS_ATRT
PUBLIC 1a6d8 0 ifoFree_VTS_ATRT
PUBLIC 1a718 0 ifoRead_TXTDT_MGI
PUBLIC 1a7d0 0 ifoFree_TXTDT_MGI
PUBLIC 1a7f8 0 ifoClose
PUBLIC 1a8a4 0 ifoOpen
PUBLIC 1ac98 0 ifoOpenVMGI
PUBLIC 1ad84 0 ifoOpenVTSI
PUBLIC 1aea0 0 md5_init_ctx
PUBLIC 1aee8 0 md5_read_ctx
PUBLIC 1af14 0 md5_process_block
PUBLIC 1ba08 0 md5_finish_ctx
PUBLIC 1baa8 0 md5_process_bytes
PUBLIC 1bb8c 0 md5_buffer
PUBLIC 1bbd0 0 md5_stream
PUBLIC 1bca0 0 navPrint_PCI
PUBLIC 1c368 0 navPrint_DSI
PUBLIC 1c748 0 navRead_PCI
PUBLIC 1dc7c 0 navRead_DSI
PUBLIC 1e764 0 vm_getbits
PUBLIC 1f284 0 vmEval_CMD
PUBLIC 2054c 0 dvdnav_open
PUBLIC 207ac 0 dvdnav_close
PUBLIC 20834 0 dvdnav_reset
PUBLIC 20950 0 dvdnav_path
PUBLIC 2095c 0 dvdnav_err_to_string
PUBLIC 20980 0 dvdnav_convert_time
PUBLIC 20a64 0 dvdnav_get_current_time
PUBLIC 20b18 0 dvdnav_get_next_cache_block
PUBLIC 21948 0 dvdnav_get_next_block
PUBLIC 219b4 0 dvdnav_get_title_string
PUBLIC 219cc 0 dvdnav_get_serial_string
PUBLIC 219e8 0 dvdnav_get_video_aspect
PUBLIC 21a54 0 dvdnav_get_video_resolution
PUBLIC 21ae8 0 dvdnav_get_video_scale_permission
PUBLIC 21b54 0 dvdnav_audio_stream_to_lang
PUBLIC 21be4 0 dvdnav_audio_stream_format
PUBLIC 21c68 0 dvdnav_audio_stream_channels
PUBLIC 21cf0 0 dvdnav_spu_stream_to_lang
PUBLIC 21d80 0 dvdnav_get_audio_logical_stream
PUBLIC 21e30 0 dvdnav_get_audio_attr
PUBLIC 21ef8 0 dvdnav_get_spu_logical_stream
PUBLIC 21fac 0 dvdnav_get_spu_attr
PUBLIC 22074 0 dvdnav_get_active_audio_stream
PUBLIC 2211c 0 dvdnav_get_active_spu_stream
PUBLIC 221c8 0 dvdnav_is_domain_fp
PUBLIC 22244 0 dvdnav_is_domain_vmgm
PUBLIC 222c0 0 dvdnav_is_domain_vtsm
PUBLIC 2233c 0 dvdnav_is_domain_vts
PUBLIC 223b8 0 dvdnav_angle_change
PUBLIC 22448 0 dvdnav_get_angle_info
PUBLIC 2248c 0 dvdnav_get_current_nav_pci
PUBLIC 2249c 0 dvdnav_get_current_nav_dsi
PUBLIC 224ac 0 dvdnav_get_next_still_flag
PUBLIC 224c0 0 dvdnav_get_restrictions
PUBLIC 22574 0 dvdnav_get_vm
PUBLIC 22584 0 dvdnav_get_button_info
PUBLIC 226ac 0 dvdnav_free
PUBLIC 226b0 0 dvdnav_get_current_highlight
PUBLIC 226dc 0 dvdnav_get_highlight_area
PUBLIC 227a4 0 dvdnav_button_activate
PUBLIC 2297c 0 dvdnav_button_activate_cmd
PUBLIC 229f4 0 dvdnav_button_select
PUBLIC 22ac8 0 dvdnav_upper_button_select
PUBLIC 22c14 0 dvdnav_lower_button_select
PUBLIC 22d60 0 dvdnav_right_button_select
PUBLIC 22eac 0 dvdnav_left_button_select
PUBLIC 22ff8 0 dvdnav_button_select_and_activate
PUBLIC 23020 0 dvdnav_mouse_select
PUBLIC 231b4 0 dvdnav_mouse_activate
PUBLIC 231dc 0 dvdnav_still_skip
PUBLIC 2322c 0 dvdnav_wait_skip
PUBLIC 2324c 0 dvdnav_get_number_of_titles
PUBLIC 232a8 0 dvdnav_get_number_of_parts
PUBLIC 23358 0 dvdnav_current_title_info
PUBLIC 234a4 0 dvdnav_current_title_program
PUBLIC 23638 0 dvdnav_program_play
PUBLIC 23748 0 dvdnav_part_play
PUBLIC 23884 0 dvdnav_title_play
PUBLIC 2388c 0 dvdnav_part_play_auto_stop
PUBLIC 238d4 0 dvdnav_time_play
PUBLIC 23904 0 dvdnav_stop
PUBLIC 2393c 0 dvdnav_go_up
PUBLIC 23978 0 dvdnav_read_cache_free
PUBLIC 23bc4 0 dvdnav_read_cache_clear
PUBLIC 23c14 0 dvdnav_read_cache_new
PUBLIC 23cb8 0 dvdnav_pre_cache_blocks
PUBLIC 23f10 0 dvdnav_read_cache_block
PUBLIC 240fc 0 dvdnav_free_cache_block
PUBLIC 241a8 0 remap_loadmap
PUBLIC 24778 0 remap_block
PUBLIC 24aa0 0 dvdnav_time_search
PUBLIC 24e38 0 dvdnav_part_search
PUBLIC 24e80 0 dvdnav_prev_pg_search
PUBLIC 24f50 0 dvdnav_top_pg_search
PUBLIC 25020 0 dvdnav_next_pg_search
PUBLIC 2514c 0 dvdnav_menu_call
PUBLIC 25284 0 dvdnav_get_position
PUBLIC 25494 0 dvdnav_sector_search
PUBLIC 25c50 0 dvdnav_get_position_in_title
PUBLIC 25cf0 0 dvdnav_describe_title_chapters
PUBLIC 26184 0 dvdnav_get_state
PUBLIC 26208 0 dvdnav_set_state
PUBLIC 26344 0 dvdnav_jump_to_sector_by_time
PUBLIC 2702c 0 dvdnav_get_region_mask
PUBLIC 27044 0 dvdnav_set_region_mask
PUBLIC 27080 0 dvdnav_set_readahead_flag
PUBLIC 27090 0 dvdnav_get_readahead_flag
PUBLIC 270a4 0 dvdnav_menu_language_select
PUBLIC 27140 0 dvdnav_audio_language_select
PUBLIC 271dc 0 dvdnav_spu_language_select
PUBLIC 27278 0 dvdnav_set_PGC_positioning_flag
PUBLIC 27288 0 dvdnav_get_PGC_positioning_flag
PUBLIC 27ebc 0 vm_print_mnemonic
PUBLIC 29028 0 vm_print_cmd
PUBLIC 29be4 0 vm_new_vm
PUBLIC 29bf0 0 vm_get_vmgi
PUBLIC 29bf8 0 vm_get_vtsi
PUBLIC 29c00 0 vm_get_dvd_reader
PUBLIC 29c08 0 vm_stop
PUBLIC 29c64 0 vm_free_vm
PUBLIC 29c7c 0 vm_reset
PUBLIC 2a204 0 vm_new_copy
PUBLIC 2a448 0 vm_merge
PUBLIC 2a488 0 vm_free_copy
PUBLIC 2a4ac 0 vm_position_get
PUBLIC 2a5d8 0 vm_get_current_menu
PUBLIC 2a67c 0 vm_get_current_title_part
PUBLIC 2c374 0 vm_start
PUBLIC 2c610 0 vm_jump_pg
PUBLIC 2c814 0 vm_jump_top_pg
PUBLIC 2ca14 0 vm_jump_next_pg
PUBLIC 2cb84 0 vm_jump_prev_pg
PUBLIC 2ccac 0 vm_jump_up
PUBLIC 2cda8 0 vm_jump_menu
PUBLIC 2d070 0 vm_jump_resume
PUBLIC 2d0b8 0 vm_exec_cmd
PUBLIC 2d0f8 0 vm_jump_title_program
PUBLIC 2d35c 0 vm_jump_title_part
PUBLIC 2d660 0 vm_get_next_cell
PUBLIC 2d948 0 vm_jump_cell_block
PUBLIC 2dd08 0 vm_get_audio_stream
PUBLIC 2dd5c 0 vm_get_audio_active_stream
PUBLIC 2deac 0 vm_get_angle_info
PUBLIC 2df28 0 vm_get_video_attr
PUBLIC 2dfd0 0 vm_get_video_res
PUBLIC 2e050 0 vm_get_video_aspect
PUBLIC 2e0c0 0 vm_get_subp_stream
PUBLIC 2e174 0 vm_get_subp_active_stream
PUBLIC 2e1fc 0 vm_get_video_scale_permission
PUBLIC 2e214 0 vm_get_audio_attr
PUBLIC 2e2ac 0 vm_get_subp_attr
PUBLIC 2e33c 0 vm_get_title_ifo
PUBLIC 2e378 0 vm_ifo_close
PUBLIC 2e37c 0 vm_get_state
PUBLIC 2e3a8 0 vm_set_state
PUBLIC 2e620 0 __wrap_dlopen
PUBLIC 2e624 0 __wrap_popen
PUBLIC 2e628 0 __wrap_calloc
PUBLIC 2e62c 0 __wrap_malloc
PUBLIC 2e630 0 __wrap_realloc
PUBLIC 2e634 0 __wrap_free
PUBLIC 2e638 0 __wrap_open
PUBLIC 2e654 0 __wrap_open64
PUBLIC 2e670 0 __wrap_close
PUBLIC 2e674 0 __wrap_write
PUBLIC 2e678 0 __wrap_read
PUBLIC 2e67c 0 __wrap_lseek
PUBLIC 2e680 0 __wrap_lseek64
PUBLIC 2e684 0 __wrap_fclose
PUBLIC 2e688 0 __wrap_ferror
PUBLIC 2e68c 0 __wrap_clearerr
PUBLIC 2e690 0 __wrap_feof
PUBLIC 2e694 0 __wrap_fileno
PUBLIC 2e698 0 __wrap_fopen
PUBLIC 2e69c 0 __wrap_fopen64
PUBLIC 2e6a0 0 __wrap_fdopen
PUBLIC 2e6a4 0 __wrap_freopen
PUBLIC 2e6a8 0 __wrap_fread
PUBLIC 2e6ac 0 __wrap_fwrite
PUBLIC 2e6b0 0 __wrap_fflush
PUBLIC 2e6b4 0 __wrap_fputc
PUBLIC 2e6b8 0 __wrap_fputs
PUBLIC 2e6bc 0 __wrap__IO_putc
PUBLIC 2e6c0 0 __wrap_fseek
PUBLIC 2e6c4 0 __wrap_fseeko64
PUBLIC 2e6c8 0 __wrap_ftell
PUBLIC 2e6cc 0 __wrap_ftello64
PUBLIC 2e6d0 0 __wrap_rewind
PUBLIC 2e6d4 0 __wrap_fgetpos
PUBLIC 2e6d8 0 __wrap_fgetpos64
PUBLIC 2e6dc 0 __wrap_fsetpos
PUBLIC 2e6e0 0 __wrap_fsetpos64
PUBLIC 2e6e4 0 __wrap_opendir
PUBLIC 2e6e8 0 __wrap_readdir
PUBLIC 2e6ec 0 __wrap_readdir64
PUBLIC 2e6f0 0 __wrap_closedir
PUBLIC 2e6f4 0 __wrap_rewinddir
PUBLIC 2e6f8 0 __wrap_fprintf
PUBLIC 2e728 0 __wrap_vfprintf
PUBLIC 2e72c 0 __wrap_printf
PUBLIC 2e76c 0 __wrap_fgetc
PUBLIC 2e770 0 __wrap_fgets
PUBLIC 2e774 0 __wrap__IO_getc
PUBLIC 2e778 0 __wrap__IO_getc_unlocked
PUBLIC 2e77c 0 __wrap_getc_unlocked
PUBLIC 2e780 0 __wrap_ungetc
PUBLIC 2e784 0 __wrap_getc
PUBLIC 2e788 0 __wrap_ioctl
PUBLIC 2e7b8 0 __wrap__stat
PUBLIC 2e7bc 0 __wrap_stat
PUBLIC 2e7c0 0 __wrap___xstat64
PUBLIC 2e7cc 0 __wrap___lxstat64
PUBLIC 2e7d8 0 __wrap_flockfile
PUBLIC 2e7dc 0 __wrap_ftrylockfile
PUBLIC 2e7e0 0 __wrap_funlockfile
PUBLIC 2e7e4 0 __wrap___fxstat64
PUBLIC 2e7f0 0 __wrap_fstat
PUBLIC 2e7f4 0 __wrap_setvbuf
PUBLIC 2e7f8 0 __wrap_getmntent
PUBLIC 2e7fc 0 __aeabi_uidiv
PUBLIC 2e8a4 0 __aeabi_uidivmod
PUBLIC 2e8c4 0 __aeabi_idiv
PUBLIC 2e9a0 0 __aeabi_idivmod
PUBLIC 2e9c0 0 __aeabi_ldivmod
PUBLIC 2ea04 0 __aeabi_uldivmod
PUBLIC 2ea40 0 __aeabi_idiv0
PUBLIC 2ea50 0 __gnu_ldivmod_helper
PUBLIC 2ea8c 0 __gnu_uldivmod_helper
PUBLIC 2ef00 0 _Unwind_GetCFA
PUBLIC 2ef08 0 __gnu_Unwind_RaiseException
PUBLIC 2efac 0 __gnu_Unwind_ForcedUnwind
PUBLIC 2efc8 0 __gnu_Unwind_Resume
PUBLIC 2f03c 0 __gnu_Unwind_Resume_or_Rethrow
PUBLIC 2f05c 0 _Unwind_Complete
PUBLIC 2f060 0 _Unwind_DeleteException
PUBLIC 2f080 0 _Unwind_VRS_Get
PUBLIC 2f104 0 _Unwind_VRS_Set
PUBLIC 2f18c 0 __gnu_Unwind_Backtrace
PUBLIC 2f644 0 __aeabi_unwind_cpp_pr0
PUBLIC 2f64c 0 __aeabi_unwind_cpp_pr1
PUBLIC 2f654 0 __aeabi_unwind_cpp_pr2
PUBLIC 2f65c 0 _Unwind_VRS_Pop
PUBLIC 2f9b4 0 restore_core_regs
PUBLIC 2f9c8 0 __gnu_Unwind_Restore_VFP
PUBLIC 2f9d0 0 __gnu_Unwind_Save_VFP
PUBLIC 2f9d8 0 __gnu_Unwind_Restore_VFP_D
PUBLIC 2f9e0 0 __gnu_Unwind_Save_VFP_D
PUBLIC 2f9e8 0 __gnu_Unwind_Restore_VFP_D_16_to_31
PUBLIC 2f9f0 0 __gnu_Unwind_Save_VFP_D_16_to_31
PUBLIC 2f9f8 0 __gnu_Unwind_Restore_WMMXD
PUBLIC 2fa3c 0 __gnu_Unwind_Save_WMMXD
PUBLIC 2fa80 0 __gnu_Unwind_Restore_WMMXC
PUBLIC 2fa94 0 __gnu_Unwind_Save_WMMXC
PUBLIC 2faa8 0 ___Unwind_RaiseException
PUBLIC 2facc 0 ___Unwind_Resume
PUBLIC 2faf0 0 ___Unwind_Resume_or_Rethrow
PUBLIC 2fb14 0 ___Unwind_ForcedUnwind
PUBLIC 2fb38 0 ___Unwind_Backtrace
PUBLIC 2fbe8 0 __gnu_unwind_execute
PUBLIC 2ff64 0 __gnu_unwind_frame
PUBLIC 2ffa4 0 _Unwind_GetRegionStart
PUBLIC 2ffb4 0 _Unwind_GetLanguageSpecificData
PUBLIC 2ffd0 0 _Unwind_GetDataRelBase
PUBLIC 2ffd8 0 _Unwind_GetTextRelBase
PUBLIC 2ffe0 0 __divdi3
PUBLIC 30478 0 __udivdi3
STACK CFI INIT 4f08 8e0 .cfa: sp 0 + .ra: lr
STACK CFI 4f0c .cfa: sp 32 + r10: .cfa -8 + ^ r11: .cfa -4 + ^ r4: .cfa -32 + ^ r5: .cfa -28 + ^ r6: .cfa -24 + ^ r7: .cfa -20 + ^ r8: .cfa -16 + ^ r9: .cfa -12 + ^
STACK CFI 4f18 .cfa: sp 120 +
STACK CFI INIT 57e8 304 .cfa: sp 0 + .ra: lr
STACK CFI 57ec .cfa: sp 32 + r10: .cfa -8 + ^ r11: .cfa -4 + ^ r4: .cfa -32 + ^ r5: .cfa -28 + ^ r6: .cfa -24 + ^ r7: .cfa -20 + ^ r8: .cfa -16 + ^ r9: .cfa -12 + ^
STACK CFI 57f0 .cfa: sp 64 +
STACK CFI INIT 5aec 534 .cfa: sp 0 + .ra: lr
STACK CFI 5af4 .cfa: sp 36 + .ra: .cfa -4 + ^ r10: .cfa -12 + ^ r11: .cfa -8 + ^ r4: .cfa -36 + ^ r5: .cfa -32 + ^ r6: .cfa -28 + ^ r7: .cfa -24 + ^ r8: .cfa -20 + ^ r9: .cfa -16 + ^
STACK CFI 5afc .cfa: sp 112 +
STACK CFI INIT 6020 124 .cfa: sp 0 + .ra: lr
STACK CFI 6024 .cfa: sp 8 + .ra: .cfa -4 + ^ r4: .cfa -8 + ^
STACK CFI 6028 .cfa: sp 16 +
STACK CFI INIT 6144 88 .cfa: sp 0 + .ra: lr
STACK CFI 6148 .cfa: sp 16 + .ra: .cfa -4 + ^ r4: .cfa -16 + ^ r5: .cfa -12 + ^ r6: .cfa -8 + ^
STACK CFI 6158 .cfa: sp 32 +
STACK CFI INIT 61cc eb0 .cfa: sp 0 + .ra: lr
STACK CFI 61d0 .cfa: sp 36 + .ra: .cfa -4 + ^ r10: .cfa -12 + ^ r11: .cfa -8 + ^ r4: .cfa -36 + ^ r5: .cfa -32 + ^ r6: .cfa -28 + ^ r7: .cfa -24 + ^ r8: .cfa -20 + ^ r9: .cfa -16 + ^
STACK CFI 61e0 .cfa: sp 2228 +
STACK CFI 61e8 .cfa: sp 2240 +
STACK CFI INIT 707c 250 .cfa: sp 0 + .ra: lr
STACK CFI 7080 .cfa: sp 20 + .ra: .cfa -4 + ^ r4: .cfa -20 + ^ r5: .cfa -16 + ^ r6: .cfa -12 + ^ r7: .cfa -8 + ^
STACK CFI 7084 .cfa: sp 64 +
STACK CFI INIT 72cc cd0 .cfa: sp 0 + .ra: lr
STACK CFI 72d0 .cfa: sp 36 + .ra: .cfa -4 + ^ r10: .cfa -12 + ^ r11: .cfa -8 + ^ r4: .cfa -36 + ^ r5: .cfa -32 + ^ r6: .cfa -28 + ^ r7: .cfa -24 + ^ r8: .cfa -20 + ^ r9: .cfa -16 + ^
STACK CFI 72d4 .cfa: sp 2212 +
STACK CFI 72dc .cfa: sp 2224 +
STACK CFI INIT 7f9c 87c .cfa: sp 0 + .ra: lr
STACK CFI 7fa4 .cfa: sp 36 + .ra: .cfa -4 + ^ r10: .cfa -12 + ^ r11: .cfa -8 + ^ r4: .cfa -36 + ^ r5: .cfa -32 + ^ r6: .cfa -28 + ^ r7: .cfa -24 + ^ r8: .cfa -20 + ^ r9: .cfa -16 + ^
STACK CFI 7fb0 .cfa: sp 128 +
STACK CFI INIT 8818 100 .cfa: sp 0 + .ra: lr
STACK CFI 881c .cfa: sp 28 + r10: .cfa -4 + ^ r4: .cfa -28 + ^ r5: .cfa -24 + ^ r6: .cfa -20 + ^ r7: .cfa -16 + ^ r8: .cfa -12 + ^ r9: .cfa -8 + ^
STACK CFI INIT 8918 2c .cfa: sp 0 + .ra: lr
STACK CFI 891c .cfa: sp 8 + .ra: .cfa -4 + ^ r4: .cfa -8 + ^
STACK CFI INIT 8944 194 .cfa: sp 0 + .ra: lr
STACK CFI 894c .cfa: sp 36 + .ra: .cfa -4 + ^ r10: .cfa -12 + ^ r11: .cfa -8 + ^ r4: .cfa -36 + ^ r5: .cfa -32 + ^ r6: .cfa -28 + ^ r7: .cfa -24 + ^ r8: .cfa -20 + ^ r9: .cfa -16 + ^
STACK CFI 8958 .cfa: sp 48 +
STACK CFI INIT 8ad8 8c .cfa: sp 0 + .ra: lr
STACK CFI 8adc .cfa: sp 16 + .ra: .cfa -4 + ^ r4: .cfa -16 + ^ r5: .cfa -12 + ^ r6: .cfa -8 + ^
STACK CFI 8ae8 .cfa: sp 24 +
STACK CFI INIT 8b64 3c .cfa: sp 0 + .ra: lr
STACK CFI 8b68 .cfa: sp 4 + .ra: .cfa -4 + ^
STACK CFI 8b6c .cfa: sp 112 +
STACK CFI INIT 8ba0 10c .cfa: sp 0 + .ra: lr
STACK CFI 8bac .cfa: sp 20 + .ra: .cfa -4 + ^ r4: .cfa -20 + ^ r5: .cfa -16 + ^ r6: .cfa -12 + ^ r7: .cfa -8 + ^
STACK CFI 8bb8 .cfa: sp 40 +
STACK CFI INIT 8cac 1a8 .cfa: sp 0 + .ra: lr
STACK CFI 8cb0 .cfa: sp 24 + .ra: .cfa -4 + ^ r4: .cfa -24 + ^ r5: .cfa -20 + ^ r6: .cfa -16 + ^ r7: .cfa -12 + ^ r8: .cfa -8 + ^
STACK CFI INIT 8e54 c4 .cfa: sp 0 + .ra: lr
STACK CFI 8e58 .cfa: sp 24 + .ra: .cfa -4 + ^ r3: .cfa -24 + ^ r4: .cfa -20 + ^ r5: .cfa -16 + ^ r6: .cfa -12 + ^ r7: .cfa -8 + ^
STACK CFI INIT 8f18 34 .cfa: sp 0 + .ra: lr
STACK CFI 8f1c .cfa: sp 16 + .ra: .cfa -4 + ^ r3: .cfa -16 + ^ r4: .cfa -12 + ^ r5: .cfa -8 + ^
STACK CFI INIT 8f50 4c .cfa: sp 0 + .ra: lr
STACK CFI 8f54 .cfa: sp 16 + .ra: .cfa -4 + ^ r3: .cfa -16 + ^ r4: .cfa -12 + ^ r5: .cfa -8 + ^
STACK CFI INIT 8f9c 58 .cfa: sp 0 + .ra: lr
STACK CFI 8fa0 .cfa: sp 20 + .ra: .cfa -4 + ^ r4: .cfa -20 + ^ r5: .cfa -16 + ^ r6: .cfa -12 + ^ r7: .cfa -8 + ^
STACK CFI 8fa4 .cfa: sp 2068 +
STACK CFI 8fa8 .cfa: sp 2080 +
STACK CFI INIT 8ff4 7c .cfa: sp 0 + .ra: lr
STACK CFI 8ff8 .cfa: sp 24 + .ra: .cfa -4 + ^ r4: .cfa -24 + ^ r5: .cfa -20 + ^ r6: .cfa -16 + ^ r7: .cfa -12 + ^ r8: .cfa -8 + ^
STACK CFI 8ffc .cfa: sp 2072 +
STACK CFI 9000 .cfa: sp 2080 +
STACK CFI INIT 9070 60 .cfa: sp 0 + .ra: lr
STACK CFI 9074 .cfa: sp 12 + .ra: .cfa -4 + ^ r4: .cfa -12 + ^ r5: .cfa -8 + ^
STACK CFI 9080 .cfa: sp 32 +
STACK CFI INIT 90d0 50 .cfa: sp 0 + .ra: lr
STACK CFI 90d4 .cfa: sp 8 + .ra: .cfa -4 + ^ r4: .cfa -8 + ^
STACK CFI 90e0 .cfa: sp 24 +
STACK CFI INIT 9120 68 .cfa: sp 0 + .ra: lr
STACK CFI 9124 .cfa: sp 12 + .ra: .cfa -4 + ^ r4: .cfa -12 + ^ r5: .cfa -8 + ^
STACK CFI 9130 .cfa: sp 32 +
STACK CFI INIT 9188 58 .cfa: sp 0 + .ra: lr
STACK CFI 918c .cfa: sp 12 + .ra: .cfa -4 + ^ r4: .cfa -12 + ^ r5: .cfa -8 + ^
STACK CFI 9198 .cfa: sp 32 +
STACK CFI INIT 91e0 60 .cfa: sp 0 + .ra: lr
STACK CFI 91e4 .cfa: sp 12 + .ra: .cfa -4 + ^ r4: .cfa -12 + ^ r5: .cfa -8 + ^
STACK CFI 91f0 .cfa: sp 32 +
STACK CFI INIT 9240 48 .cfa: sp 0 + .ra: lr
STACK CFI 9244 .cfa: sp 8 + .ra: .cfa -4 + ^ r4: .cfa -8 + ^
STACK CFI 9250 .cfa: sp 24 +
STACK CFI INIT 9288 54 .cfa: sp 0 + .ra: lr
STACK CFI 9294 .cfa: sp 16 + .ra: .cfa -4 + ^ r4: .cfa -16 + ^ r5: .cfa -12 + ^ r6: .cfa -8 + ^
STACK CFI 9298 .cfa: sp 32 +
STACK CFI INIT 92dc 54 .cfa: sp 0 + .ra: lr
STACK CFI 92e8 .cfa: sp 12 + .ra: .cfa -4 + ^ r4: .cfa -12 + ^ r5: .cfa -8 + ^
STACK CFI 92ec .cfa: sp 32 +
STACK CFI INIT 9330 64 .cfa: sp 0 + .ra: lr
STACK CFI 9334 .cfa: sp 16 + .ra: .cfa -4 + ^ r4: .cfa -16 + ^ r5: .cfa -12 + ^ r6: .cfa -8 + ^
STACK CFI 9338 .cfa: sp 32 +
STACK CFI INIT 9394 9d0 .cfa: sp 0 + .ra: lr
STACK CFI 9398 .cfa: sp 36 + .ra: .cfa -4 + ^ r10: .cfa -12 + ^ r11: .cfa -8 + ^ r4: .cfa -36 + ^ r5: .cfa -32 + ^ r6: .cfa -28 + ^ r7: .cfa -24 + ^ r8: .cfa -20 + ^ r9: .cfa -16 + ^
STACK CFI 93a4 .cfa: sp 8292 +
STACK CFI 93a8 .cfa: sp 8304 +
STACK CFI INIT 9d64 c .cfa: sp 0 + .ra: lr
STACK CFI INIT 9d70 5c .cfa: sp 0 + .ra: lr
STACK CFI 9d78 .cfa: sp 16 + .ra: .cfa -4 + ^ r3: .cfa -16 + ^ r4: .cfa -12 + ^ r5: .cfa -8 + ^
STACK CFI INIT 9dcc c8 .cfa: sp 0 + .ra: lr
STACK CFI 9dd0 .cfa: sp 24 + .ra: .cfa -4 + ^ r3: .cfa -24 + ^ r4: .cfa -20 + ^ r5: .cfa -16 + ^ r6: .cfa -12 + ^ r7: .cfa -8 + ^
STACK CFI INIT 9e94 b0 .cfa: sp 0 + .ra: lr
STACK CFI 9e98 .cfa: sp 32 + .ra: .cfa -4 + ^ r3: .cfa -32 + ^ r4: .cfa -28 + ^ r5: .cfa -24 + ^ r6: .cfa -20 + ^ r7: .cfa -16 + ^ r8: .cfa -12 + ^ r9: .cfa -8 + ^
STACK CFI INIT 9f44 54 .cfa: sp 0 + .ra: lr
STACK CFI 9f48 .cfa: sp 16 + .ra: .cfa -4 + ^ r3: .cfa -16 + ^ r4: .cfa -12 + ^ r5: .cfa -8 + ^
STACK CFI INIT 9f98 4 .cfa: sp 0 + .ra: lr
STACK CFI INIT 9f9c 8 .cfa: sp 0 + .ra: lr
STACK CFI INIT 9fa4 34 .cfa: sp 0 + .ra: lr
STACK CFI INIT 9fd8 128 .cfa: sp 0 + .ra: lr
STACK CFI 9fe0 .cfa: sp 16 + .ra: .cfa -4 + ^ r4: .cfa -16 + ^ r5: .cfa -12 + ^ r6: .cfa -8 + ^
STACK CFI INIT a100 8 .cfa: sp 0 + .ra: lr
STACK CFI INIT a108 8 .cfa: sp 0 + .ra: lr
STACK CFI INIT a110 c .cfa: sp 0 + .ra: lr
STACK CFI INIT a11c c .cfa: sp 0 + .ra: lr
STACK CFI INIT a128 28 .cfa: sp 0 + .ra: lr
STACK CFI a12c .cfa: sp 8 + .ra: .cfa -4 + ^ r4: .cfa -8 + ^
STACK CFI INIT a150 9c .cfa: sp 0 + .ra: lr
STACK CFI a154 .cfa: sp 16 + .ra: .cfa -4 + ^ r4: .cfa -16 + ^ r5: .cfa -12 + ^ r6: .cfa -8 + ^
STACK CFI INIT a1ec c4 .cfa: sp 0 + .ra: lr
STACK CFI a1fc .cfa: sp 8 + r4: .cfa -8 + ^ r5: .cfa -4 + ^
STACK CFI INIT a2b0 5e4 .cfa: sp 0 + .ra: lr
STACK CFI a2b4 .cfa: sp 36 + .ra: .cfa -4 + ^ r10: .cfa -12 + ^ r11: .cfa -8 + ^ r4: .cfa -36 + ^ r5: .cfa -32 + ^ r6: .cfa -28 + ^ r7: .cfa -24 + ^ r8: .cfa -20 + ^ r9: .cfa -16 + ^
STACK CFI a2c0 .cfa: sp 4196 +
STACK CFI a2c4 .cfa: sp 4224 +
STACK CFI INIT a894 1d0 .cfa: sp 0 + .ra: lr
STACK CFI a898 .cfa: sp 24 + .ra: .cfa -4 + ^ r4: .cfa -24 + ^ r5: .cfa -20 + ^ r6: .cfa -16 + ^ r7: .cfa -12 + ^ r8: .cfa -8 + ^
STACK CFI a8a4 .cfa: sp 4184 +
STACK CFI a8a8 .cfa: sp 4240 +
STACK CFI INIT aa64 28 .cfa: sp 0 + .ra: lr
STACK CFI INIT aa8c 8 .cfa: sp 0 + .ra: lr
STACK CFI INIT aa94 8 .cfa: sp 0 + .ra: lr
STACK CFI INIT aa9c 578 .cfa: sp 0 + .ra: lr
STACK CFI aaa0 .cfa: sp 36 + .ra: .cfa -4 + ^ r10: .cfa -12 + ^ r11: .cfa -8 + ^ r4: .cfa -36 + ^ r5: .cfa -32 + ^ r6: .cfa -28 + ^ r7: .cfa -24 + ^ r8: .cfa -20 + ^ r9: .cfa -16 + ^
STACK CFI aaac .cfa: sp 152 +
STACK CFI INIT b014 58 .cfa: sp 0 + .ra: lr
STACK CFI b018 .cfa: sp 8 + .ra: .cfa -4 + ^ r4: .cfa -8 + ^
STACK CFI INIT b06c 830 .cfa: sp 0 + .ra: lr
STACK CFI b074 .cfa: sp 36 + .ra: .cfa -4 + ^ r10: .cfa -12 + ^ r11: .cfa -8 + ^ r4: .cfa -36 + ^ r5: .cfa -32 + ^ r6: .cfa -28 + ^ r7: .cfa -24 + ^ r8: .cfa -20 + ^ r9: .cfa -16 + ^
STACK CFI b088 .cfa: sp 44 + s16: .cfa -44 + ^
STACK CFI b08c .cfa: sp 6316 +
STACK CFI b090 .cfa: sp 6320 +
STACK CFI INIT b89c 5c .cfa: sp 0 + .ra: lr
STACK CFI b8a0 .cfa: sp 16 + .ra: .cfa -4 + ^ r4: .cfa -16 + ^ r5: .cfa -12 + ^ r6: .cfa -8 + ^
STACK CFI INIT b8f8 5f8 .cfa: sp 0 + .ra: lr
STACK CFI b8fc .cfa: sp 36 + .ra: .cfa -4 + ^ r10: .cfa -12 + ^ r11: .cfa -8 + ^ r4: .cfa -36 + ^ r5: .cfa -32 + ^ r6: .cfa -28 + ^ r7: .cfa -24 + ^ r8: .cfa -20 + ^ r9: .cfa -16 + ^
STACK CFI b918 .cfa: sp 44 + s16: .cfa -44 + ^
STACK CFI b91c .cfa: sp 6380 +
STACK CFI b920 .cfa: sp 6408 +
STACK CFI INIT bef0 cc .cfa: sp 0 + .ra: lr
STACK CFI bef4 .cfa: sp 32 + .ra: .cfa -4 + ^ r3: .cfa -32 + ^ r4: .cfa -28 + ^ r5: .cfa -24 + ^ r6: .cfa -20 + ^ r7: .cfa -16 + ^ r8: .cfa -12 + ^ r9: .cfa -8 + ^
STACK CFI INIT bfbc 34 .cfa: sp 0 + .ra: lr
STACK CFI INIT bff0 4c0 .cfa: sp 0 + .ra: lr
STACK CFI bff4 .cfa: sp 36 + .ra: .cfa -4 + ^ r10: .cfa -12 + ^ r11: .cfa -8 + ^ r4: .cfa -36 + ^ r5: .cfa -32 + ^ r6: .cfa -28 + ^ r7: .cfa -24 + ^ r8: .cfa -20 + ^ r9: .cfa -16 + ^
STACK CFI c008 .cfa: sp 72 +
STACK CFI INIT c4b0 3c .cfa: sp 0 + .ra: lr
STACK CFI c4b8 .cfa: sp 8 + .ra: .cfa -4 + ^ r4: .cfa -8 + ^
STACK CFI c4c0 .cfa: sp 16 +
STACK CFI INIT c4ec 30 .cfa: sp 0 + .ra: lr
STACK CFI INIT c51c 94 .cfa: sp 0 + .ra: lr
STACK CFI c528 .cfa: sp 16 + .ra: .cfa -4 + ^ r3: .cfa -16 + ^ r4: .cfa -12 + ^ r5: .cfa -8 + ^
STACK CFI INIT c5b0 118 .cfa: sp 0 + .ra: lr
STACK CFI c5bc .cfa: sp 36 + .ra: .cfa -4 + ^ r10: .cfa -12 + ^ r11: .cfa -8 + ^ r4: .cfa -36 + ^ r5: .cfa -32 + ^ r6: .cfa -28 + ^ r7: .cfa -24 + ^ r8: .cfa -20 + ^ r9: .cfa -16 + ^
STACK CFI c5c4 .cfa: sp 56 +
STACK CFI INIT c6c8 10 .cfa: sp 0 + .ra: lr
STACK CFI INIT c6d8 160 .cfa: sp 0 + .ra: lr
STACK CFI c6e4 .cfa: sp 36 + .ra: .cfa -4 + ^ r10: .cfa -12 + ^ r11: .cfa -8 + ^ r4: .cfa -36 + ^ r5: .cfa -32 + ^ r6: .cfa -28 + ^ r7: .cfa -24 + ^ r8: .cfa -20 + ^ r9: .cfa -16 + ^
STACK CFI c6e8 .cfa: sp 208 +
STACK CFI INIT c838 17c .cfa: sp 0 + .ra: lr
STACK CFI c83c .cfa: sp 36 + .ra: .cfa -4 + ^ r10: .cfa -12 + ^ r11: .cfa -8 + ^ r4: .cfa -36 + ^ r5: .cfa -32 + ^ r6: .cfa -28 + ^ r7: .cfa -24 + ^ r8: .cfa -20 + ^ r9: .cfa -16 + ^
STACK CFI c844 .cfa: sp 48 +
STACK CFI INIT c9b4 78 .cfa: sp 0 + .ra: lr
STACK CFI c9b8 .cfa: sp 24 + .ra: .cfa -4 + ^ r3: .cfa -24 + ^ r4: .cfa -20 + ^ r5: .cfa -16 + ^ r6: .cfa -12 + ^ r7: .cfa -8 + ^
STACK CFI INIT ca30 1bc .cfa: sp 0 + .ra: lr
STACK CFI ca34 .cfa: sp 36 + .ra: .cfa -4 + ^ r10: .cfa -12 + ^ r11: .cfa -8 + ^ r4: .cfa -36 + ^ r5: .cfa -32 + ^ r6: .cfa -28 + ^ r7: .cfa -24 + ^ r8: .cfa -20 + ^ r9: .cfa -16 + ^
STACK CFI ca38 .cfa: sp 4132 +
STACK CFI ca3c .cfa: sp 4144 +
STACK CFI INIT cbec 20c .cfa: sp 0 + .ra: lr
STACK CFI cbf0 .cfa: sp 36 + .ra: .cfa -4 + ^ r10: .cfa -12 + ^ r11: .cfa -8 + ^ r4: .cfa -36 + ^ r5: .cfa -32 + ^ r6: .cfa -28 + ^ r7: .cfa -24 + ^ r8: .cfa -20 + ^ r9: .cfa -16 + ^
STACK CFI cbf4 .cfa: sp 4132 +
STACK CFI cbf8 .cfa: sp 4168 +
STACK CFI INIT cdf8 660 .cfa: sp 0 + .ra: lr
STACK CFI cdfc .cfa: sp 36 + .ra: .cfa -4 + ^ r10: .cfa -12 + ^ r11: .cfa -8 + ^ r4: .cfa -36 + ^ r5: .cfa -32 + ^ r6: .cfa -28 + ^ r7: .cfa -24 + ^ r8: .cfa -20 + ^ r9: .cfa -16 + ^
STACK CFI ce00 .cfa: sp 4132 +
STACK CFI ce04 .cfa: sp 4192 +
STACK CFI INIT d458 70 .cfa: sp 0 + .ra: lr
STACK CFI d45c .cfa: sp 16 + .ra: .cfa -4 + ^ r4: .cfa -16 + ^ r5: .cfa -12 + ^ r6: .cfa -8 + ^
STACK CFI INIT d4c8 1020 .cfa: sp 0 + .ra: lr
STACK CFI d4cc .cfa: sp 36 + .ra: .cfa -4 + ^ r10: .cfa -12 + ^ r11: .cfa -8 + ^ r4: .cfa -36 + ^ r5: .cfa -32 + ^ r6: .cfa -28 + ^ r7: .cfa -24 + ^ r8: .cfa -20 + ^ r9: .cfa -16 + ^
STACK CFI d4d0 .cfa: sp 14692 +
STACK CFI d4d4 .cfa: sp 14720 +
STACK CFI INIT e4e8 2cc .cfa: sp 0 + .ra: lr
STACK CFI e4ec .cfa: sp 20 + .ra: .cfa -4 + ^ r4: .cfa -20 + ^ r5: .cfa -16 + ^ r6: .cfa -12 + ^ r7: .cfa -8 + ^
STACK CFI e4f0 .cfa: sp 184 +
STACK CFI INIT e7b4 44 .cfa: sp 0 + .ra: lr
STACK CFI e7b8 .cfa: sp 12 + .ra: .cfa -4 + ^ r4: .cfa -12 + ^ r5: .cfa -8 + ^
STACK CFI e7bc .cfa: sp 176 +
STACK CFI INIT e7f8 344 .cfa: sp 0 + .ra: lr
STACK CFI e800 .cfa: sp 8 + .ra: .cfa -4 + ^ r4: .cfa -8 + ^
STACK CFI INIT eb3c 4f0 .cfa: sp 0 + .ra: lr
STACK CFI eb40 .cfa: sp 16 + .ra: .cfa -4 + ^ r3: .cfa -16 + ^ r4: .cfa -12 + ^ r5: .cfa -8 + ^
STACK CFI INIT f02c 290 .cfa: sp 0 + .ra: lr
STACK CFI f030 .cfa: sp 16 + .ra: .cfa -4 + ^ r4: .cfa -16 + ^ r5: .cfa -12 + ^ r6: .cfa -8 + ^
STACK CFI INIT f2bc 21c .cfa: sp 0 + .ra: lr
STACK CFI f2c0 .cfa: sp 8 + .ra: .cfa -4 + ^ r4: .cfa -8 + ^
STACK CFI f2cc .cfa: sp 16 +
STACK CFI INIT f4d8 d60 .cfa: sp 0 + .ra: lr
STACK CFI f4dc .cfa: sp 36 + .ra: .cfa -4 + ^ r10: .cfa -12 + ^ r11: .cfa -8 + ^ r4: .cfa -36 + ^ r5: .cfa -32 + ^ r6: .cfa -28 + ^ r7: .cfa -24 + ^ r8: .cfa -20 + ^ r9: .cfa -16 + ^
STACK CFI f4e4 .cfa: sp 72 +
STACK CFI INIT 10238 31c .cfa: sp 0 + .ra: lr
STACK CFI 1023c .cfa: sp 36 + .ra: .cfa -4 + ^ r10: .cfa -12 + ^ r11: .cfa -8 + ^ r4: .cfa -36 + ^ r5: .cfa -32 + ^ r6: .cfa -28 + ^ r7: .cfa -24 + ^ r8: .cfa -20 + ^ r9: .cfa -16 + ^
STACK CFI 10248 .cfa: sp 88 +
STACK CFI INIT 10554 150c .cfa: sp 0 + .ra: lr
STACK CFI 10558 .cfa: sp 36 + .ra: .cfa -4 + ^ r10: .cfa -12 + ^ r11: .cfa -8 + ^ r4: .cfa -36 + ^ r5: .cfa -32 + ^ r6: .cfa -28 + ^ r7: .cfa -24 + ^ r8: .cfa -20 + ^ r9: .cfa -16 + ^
STACK CFI 10564 .cfa: sp 96 +
STACK CFI INIT 11a60 104 .cfa: sp 0 + .ra: lr
STACK CFI 11a64 .cfa: sp 16 + .ra: .cfa -4 + ^ r3: .cfa -16 + ^ r4: .cfa -12 + ^ r5: .cfa -8 + ^
STACK CFI INIT 11b64 140 .cfa: sp 0 + .ra: lr
STACK CFI 11b68 .cfa: sp 12 + .ra: .cfa -4 + ^ r4: .cfa -12 + ^ r5: .cfa -8 + ^
STACK CFI 11b6c .cfa: sp 40 +
STACK CFI INIT 11ca4 1b8 .cfa: sp 0 + .ra: lr
STACK CFI 11ca8 .cfa: sp 12 + .ra: .cfa -4 + ^ r4: .cfa -12 + ^ r5: .cfa -8 + ^
STACK CFI 11cb4 .cfa: sp 40 +
STACK CFI INIT 11e5c c8 .cfa: sp 0 + .ra: lr
STACK CFI 11e60 .cfa: sp 12 + .ra: .cfa -4 + ^ r4: .cfa -12 + ^ r5: .cfa -8 + ^
STACK CFI 11e6c .cfa: sp 40 +
STACK CFI INIT 11f24 e68 .cfa: sp 0 + .ra: lr
STACK CFI 11f28 .cfa: sp 28 + .ra: .cfa -4 + ^ r4: .cfa -28 + ^ r5: .cfa -24 + ^ r6: .cfa -20 + ^ r7: .cfa -16 + ^ r8: .cfa -12 + ^ r9: .cfa -8 + ^
STACK CFI 11f30 .cfa: sp 40 +
STACK CFI INIT 12d8c 1a40 .cfa: sp 0 + .ra: lr
STACK CFI 12d90 .cfa: sp 36 + .ra: .cfa -4 + ^ r10: .cfa -12 + ^ r11: .cfa -8 + ^ r4: .cfa -36 + ^ r5: .cfa -32 + ^ r6: .cfa -28 + ^ r7: .cfa -24 + ^ r8: .cfa -20 + ^ r9: .cfa -16 + ^
STACK CFI 12d98 .cfa: sp 120 +
STACK CFI INIT 147cc 1174 .cfa: sp 0 + .ra: lr
STACK CFI 147d0 .cfa: sp 36 + .ra: .cfa -4 + ^ r10: .cfa -12 + ^ r11: .cfa -8 + ^ r4: .cfa -36 + ^ r5: .cfa -32 + ^ r6: .cfa -28 + ^ r7: .cfa -24 + ^ r8: .cfa -20 + ^ r9: .cfa -16 + ^
STACK CFI 147d4 .cfa: sp 144 +
STACK CFI INIT 15940 460 .cfa: sp 0 + .ra: lr
STACK CFI 15944 .cfa: sp 36 + .ra: .cfa -4 + ^ r10: .cfa -12 + ^ r11: .cfa -8 + ^ r4: .cfa -36 + ^ r5: .cfa -32 + ^ r6: .cfa -28 + ^ r7: .cfa -24 + ^ r8: .cfa -20 + ^ r9: .cfa -16 + ^
STACK CFI 15950 .cfa: sp 64 +
STACK CFI INIT 15da0 590 .cfa: sp 0 + .ra: lr
STACK CFI 15da8 .cfa: sp 36 + .ra: .cfa -4 + ^ r10: .cfa -12 + ^ r11: .cfa -8 + ^ r4: .cfa -36 + ^ r5: .cfa -32 + ^ r6: .cfa -28 + ^ r7: .cfa -24 + ^ r8: .cfa -20 + ^ r9: .cfa -16 + ^
STACK CFI 15dac .cfa: sp 112 +
STACK CFI INIT 16330 17c .cfa: sp 0 + .ra: lr
STACK CFI 16334 .cfa: sp 32 + .ra: .cfa -4 + ^ r3: .cfa -32 + ^ r4: .cfa -28 + ^ r5: .cfa -24 + ^ r6: .cfa -20 + ^ r7: .cfa -16 + ^ r8: .cfa -12 + ^ r9: .cfa -8 + ^
STACK CFI INIT 164ac b0 .cfa: sp 0 + .ra: lr
STACK CFI 164b0 .cfa: sp 16 + .ra: .cfa -4 + ^ r4: .cfa -16 + ^ r5: .cfa -12 + ^ r6: .cfa -8 + ^
STACK CFI INIT 1655c 100 .cfa: sp 0 + .ra: lr
STACK CFI 16560 .cfa: sp 16 + .ra: .cfa -4 + ^ r3: .cfa -16 + ^ r4: .cfa -12 + ^ r5: .cfa -8 + ^
STACK CFI INIT 1665c 34 .cfa: sp 0 + .ra: lr
STACK CFI 16660 .cfa: sp 8 + .ra: .cfa -4 + ^ r4: .cfa -8 + ^
STACK CFI INIT 16690 760 .cfa: sp 0 + .ra: lr
STACK CFI 16694 .cfa: sp 36 + .ra: .cfa -4 + ^ r10: .cfa -12 + ^ r11: .cfa -8 + ^ r4: .cfa -36 + ^ r5: .cfa -32 + ^ r6: .cfa -28 + ^ r7: .cfa -24 + ^ r8: .cfa -20 + ^ r9: .cfa -16 + ^
STACK CFI 166a0 .cfa: sp 96 +
STACK CFI INIT 16df0 8b4 .cfa: sp 0 + .ra: lr
STACK CFI 16df4 .cfa: sp 36 + .ra: .cfa -4 + ^ r10: .cfa -12 + ^ r11: .cfa -8 + ^ r4: .cfa -36 + ^ r5: .cfa -32 + ^ r6: .cfa -28 + ^ r7: .cfa -24 + ^ r8: .cfa -20 + ^ r9: .cfa -16 + ^
STACK CFI 16e00 .cfa: sp 88 +
STACK CFI INIT 176a4 7c .cfa: sp 0 + .ra: lr
STACK CFI 176a8 .cfa: sp 16 + .ra: .cfa -4 + ^ r4: .cfa -16 + ^ r5: .cfa -12 + ^ r6: .cfa -8 + ^
STACK CFI INIT 17720 b18 .cfa: sp 0 + .ra: lr
STACK CFI 1772c .cfa: sp 36 + .ra: .cfa -4 + ^ r10: .cfa -12 + ^ r11: .cfa -8 + ^ r4: .cfa -36 + ^ r5: .cfa -32 + ^ r6: .cfa -28 + ^ r7: .cfa -24 + ^ r8: .cfa -20 + ^ r9: .cfa -16 + ^
STACK CFI 17730 .cfa: sp 96 +
STACK CFI INIT 18238 70 .cfa: sp 0 + .ra: lr
STACK CFI 1823c .cfa: sp 16 + .ra: .cfa -4 + ^ r4: .cfa -16 + ^ r5: .cfa -12 + ^ r6: .cfa -8 + ^
STACK CFI INIT 182a8 80 .cfa: sp 0 + .ra: lr
STACK CFI 182ac .cfa: sp 16 + .ra: .cfa -4 + ^ r3: .cfa -16 + ^ r4: .cfa -12 + ^ r5: .cfa -8 + ^
STACK CFI INIT 18328 5e8 .cfa: sp 0 + .ra: lr
STACK CFI 1832c .cfa: sp 36 + .ra: .cfa -4 + ^ r10: .cfa -12 + ^ r11: .cfa -8 + ^ r4: .cfa -36 + ^ r5: .cfa -32 + ^ r6: .cfa -28 + ^ r7: .cfa -24 + ^ r8: .cfa -20 + ^ r9: .cfa -16 + ^
STACK CFI 18338 .cfa: sp 72 +
STACK CFI INIT 18910 a4 .cfa: sp 0 + .ra: lr
STACK CFI 18914 .cfa: sp 16 + .ra: .cfa -4 + ^ r4: .cfa -16 + ^ r5: .cfa -12 + ^ r6: .cfa -8 + ^
STACK CFI INIT 189b4 b4 .cfa: sp 0 + .ra: lr
STACK CFI 189b8 .cfa: sp 16 + .ra: .cfa -4 + ^ r4: .cfa -16 + ^ r5: .cfa -12 + ^ r6: .cfa -8 + ^
STACK CFI INIT 18a68 34 .cfa: sp 0 + .ra: lr
STACK CFI 18a6c .cfa: sp 16 + .ra: .cfa -4 + ^ r3: .cfa -16 + ^ r4: .cfa -12 + ^ r5: .cfa -8 + ^
STACK CFI INIT 18a9c 34 .cfa: sp 0 + .ra: lr
STACK CFI 18aa0 .cfa: sp 16 + .ra: .cfa -4 + ^ r3: .cfa -16 + ^ r4: .cfa -12 + ^ r5: .cfa -8 + ^
STACK CFI INIT 18ad0 200 .cfa: sp 0 + .ra: lr
STACK CFI 18ad4 .cfa: sp 20 + .ra: .cfa -4 + ^ r4: .cfa -20 + ^ r5: .cfa -16 + ^ r6: .cfa -12 + ^ r7: .cfa -8 + ^
STACK CFI 18adc .cfa: sp 32 +
STACK CFI INIT 18cd0 20c .cfa: sp 0 + .ra: lr
STACK CFI 18cd4 .cfa: sp 20 + .ra: .cfa -4 + ^ r4: .cfa -20 + ^ r5: .cfa -16 + ^ r6: .cfa -12 + ^ r7: .cfa -8 + ^
STACK CFI 18cdc .cfa: sp 32 +
STACK CFI INIT 18edc 34 .cfa: sp 0 + .ra: lr
STACK CFI 18ee0 .cfa: sp 16 + .ra: .cfa -4 + ^ r3: .cfa -16 + ^ r4: .cfa -12 + ^ r5: .cfa -8 + ^
STACK CFI INIT 18f10 34 .cfa: sp 0 + .ra: lr
STACK CFI 18f14 .cfa: sp 16 + .ra: .cfa -4 + ^ r3: .cfa -16 + ^ r4: .cfa -12 + ^ r5: .cfa -8 + ^
STACK CFI INIT 18f44 b4 .cfa: sp 0 + .ra: lr
STACK CFI 18f48 .cfa: sp 24 + .ra: .cfa -4 + ^ r3: .cfa -24 + ^ r4: .cfa -20 + ^ r5: .cfa -16 + ^ r6: .cfa -12 + ^ r7: .cfa -8 + ^
STACK CFI INIT 18ff8 17c .cfa: sp 0 + .ra: lr
STACK CFI 18ffc .cfa: sp 32 + .ra: .cfa -4 + ^ r3: .cfa -32 + ^ r4: .cfa -28 + ^ r5: .cfa -24 + ^ r6: .cfa -20 + ^ r7: .cfa -16 + ^ r8: .cfa -12 + ^ r9: .cfa -8 + ^
STACK CFI INIT 19174 588 .cfa: sp 0 + .ra: lr
STACK CFI 19178 .cfa: sp 36 + .ra: .cfa -4 + ^ r10: .cfa -12 + ^ r11: .cfa -8 + ^ r4: .cfa -36 + ^ r5: .cfa -32 + ^ r6: .cfa -28 + ^ r7: .cfa -24 + ^ r8: .cfa -20 + ^ r9: .cfa -16 + ^
STACK CFI 19184 .cfa: sp 56 +
STACK CFI INIT 196fc 1fc .cfa: sp 0 + .ra: lr
STACK CFI 19700 .cfa: sp 36 + .ra: .cfa -4 + ^ r10: .cfa -12 + ^ r11: .cfa -8 + ^ r4: .cfa -36 + ^ r5: .cfa -32 + ^ r6: .cfa -28 + ^ r7: .cfa -24 + ^ r8: .cfa -20 + ^ r9: .cfa -16 + ^
STACK CFI 19708 .cfa: sp 48 +
STACK CFI INIT 198f8 de0 .cfa: sp 0 + .ra: lr
STACK CFI 19900 .cfa: sp 36 + .ra: .cfa -4 + ^ r10: .cfa -12 + ^ r11: .cfa -8 + ^ r4: .cfa -36 + ^ r5: .cfa -32 + ^ r6: .cfa -28 + ^ r7: .cfa -24 + ^ r8: .cfa -20 + ^ r9: .cfa -16 + ^
STACK CFI 19908 .cfa: sp 120 +
STACK CFI INIT 1a6d8 40 .cfa: sp 0 + .ra: lr
STACK CFI 1a6dc .cfa: sp 8 + .ra: .cfa -4 + ^ r4: .cfa -8 + ^
STACK CFI INIT 1a718 b8 .cfa: sp 0 + .ra: lr
STACK CFI 1a71c .cfa: sp 16 + .ra: .cfa -4 + ^ r4: .cfa -16 + ^ r5: .cfa -12 + ^ r6: .cfa -8 + ^
STACK CFI INIT 1a7d0 28 .cfa: sp 0 + .ra: lr
STACK CFI 1a7d4 .cfa: sp 8 + .ra: .cfa -4 + ^ r4: .cfa -8 + ^
STACK CFI INIT 1a7f8 ac .cfa: sp 0 + .ra: lr
STACK CFI 1a7fc .cfa: sp 8 + .ra: .cfa -4 + ^ r4: .cfa -8 + ^
STACK CFI INIT 1a8a4 3f4 .cfa: sp 0 + .ra: lr
STACK CFI 1a8a8 .cfa: sp 32 + .ra: .cfa -4 + ^ r10: .cfa -8 + ^ r4: .cfa -32 + ^ r5: .cfa -28 + ^ r6: .cfa -24 + ^ r7: .cfa -20 + ^ r8: .cfa -16 + ^ r9: .cfa -12 + ^
STACK CFI 1a8b0 .cfa: sp 56 +
STACK CFI INIT 1ac98 ec .cfa: sp 0 + .ra: lr
STACK CFI 1ac9c .cfa: sp 16 + .ra: .cfa -4 + ^ r3: .cfa -16 + ^ r4: .cfa -12 + ^ r5: .cfa -8 + ^
STACK CFI INIT 1ad84 11c .cfa: sp 0 + .ra: lr
STACK CFI 1ad88 .cfa: sp 24 + .ra: .cfa -4 + ^ r3: .cfa -24 + ^ r4: .cfa -20 + ^ r5: .cfa -16 + ^ r6: .cfa -12 + ^ r7: .cfa -8 + ^
STACK CFI INIT 1aea0 48 .cfa: sp 0 + .ra: lr
STACK CFI 1aea4 .cfa: sp 4 + r4: .cfa -4 + ^
STACK CFI INIT 1aee8 2c .cfa: sp 0 + .ra: lr
STACK CFI INIT 1af14 af4 .cfa: sp 0 + .ra: lr
STACK CFI 1af18 .cfa: sp 32 + r10: .cfa -8 + ^ r11: .cfa -4 + ^ r4: .cfa -32 + ^ r5: .cfa -28 + ^ r6: .cfa -24 + ^ r7: .cfa -20 + ^ r8: .cfa -16 + ^ r9: .cfa -12 + ^
STACK CFI 1af1c .cfa: sp 128 +
STACK CFI INIT 1ba08 a0 .cfa: sp 0 + .ra: lr
STACK CFI 1ba0c .cfa: sp 24 + .ra: .cfa -4 + ^ r3: .cfa -24 + ^ r4: .cfa -20 + ^ r5: .cfa -16 + ^ r6: .cfa -12 + ^ r7: .cfa -8 + ^
STACK CFI INIT 1baa8 e4 .cfa: sp 0 + .ra: lr
STACK CFI 1baac .cfa: sp 32 + .ra: .cfa -4 + ^ r10: .cfa -8 + ^ r4: .cfa -32 + ^ r5: .cfa -28 + ^ r6: .cfa -24 + ^ r7: .cfa -20 + ^ r8: .cfa -16 + ^ r9: .cfa -12 + ^
STACK CFI INIT 1bb8c 44 .cfa: sp 0 + .ra: lr
STACK CFI 1bb90 .cfa: sp 20 + .ra: .cfa -4 + ^ r4: .cfa -20 + ^ r5: .cfa -16 + ^ r6: .cfa -12 + ^ r7: .cfa -8 + ^
STACK CFI 1bb94 .cfa: sp 184 +
STACK CFI INIT 1bbd0 d0 .cfa: sp 0 + .ra: lr
STACK CFI 1bbd4 .cfa: sp 28 + .ra: .cfa -4 + ^ r4: .cfa -28 + ^ r5: .cfa -24 + ^ r6: .cfa -20 + ^ r7: .cfa -16 + ^ r8: .cfa -12 + ^ r9: .cfa -8 + ^
STACK CFI 1bbd8 .cfa: sp 4316 +
STACK CFI 1bbdc .cfa: sp 4360 +
STACK CFI INIT 1bca0 6c8 .cfa: sp 0 + .ra: lr
STACK CFI 1bca4 .cfa: sp 36 + .ra: .cfa -4 + ^ r10: .cfa -12 + ^ r11: .cfa -8 + ^ r4: .cfa -36 + ^ r5: .cfa -32 + ^ r6: .cfa -28 + ^ r7: .cfa -24 + ^ r8: .cfa -20 + ^ r9: .cfa -16 + ^
STACK CFI 1bcb0 .cfa: sp 88 +
STACK CFI INIT 1c368 3e0 .cfa: sp 0 + .ra: lr
STACK CFI 1c36c .cfa: sp 20 + .ra: .cfa -4 + ^ r4: .cfa -20 + ^ r5: .cfa -16 + ^ r6: .cfa -12 + ^ r7: .cfa -8 + ^
STACK CFI 1c378 .cfa: sp 28 + s16: .cfa -28 + ^
STACK CFI 1c37c .cfa: sp 120 +
STACK CFI INIT 1c748 1534 .cfa: sp 0 + .ra: lr
STACK CFI 1c74c .cfa: sp 36 + .ra: .cfa -4 + ^ r10: .cfa -12 + ^ r11: .cfa -8 + ^ r4: .cfa -36 + ^ r5: .cfa -32 + ^ r6: .cfa -28 + ^ r7: .cfa -24 + ^ r8: .cfa -20 + ^ r9: .cfa -16 + ^
STACK CFI 1c750 .cfa: sp 80 +
STACK CFI INIT 1dc7c 30c .cfa: sp 0 + .ra: lr
STACK CFI 1dc80 .cfa: sp 24 + .ra: .cfa -4 + ^ r4: .cfa -24 + ^ r5: .cfa -20 + ^ r6: .cfa -16 + ^ r7: .cfa -12 + ^ r8: .cfa -8 + ^
STACK CFI 1dc84 .cfa: sp 48 +
STACK CFI INIT 1df88 7dc .cfa: sp 0 + .ra: lr
STACK CFI 1df90 .cfa: sp 32 + .ra: .cfa -4 + ^ r10: .cfa -8 + ^ r4: .cfa -32 + ^ r5: .cfa -28 + ^ r6: .cfa -24 + ^ r7: .cfa -20 + ^ r8: .cfa -16 + ^ r9: .cfa -12 + ^
STACK CFI 1df98 .cfa: sp 48 +
STACK CFI INIT 1e764 b8 .cfa: sp 0 + .ra: lr
STACK CFI 1e76c .cfa: sp 8 + .ra: .cfa -4 + ^ r4: .cfa -8 + ^
STACK CFI INIT 1e81c 27c .cfa: sp 0 + .ra: lr
STACK CFI 1e820 .cfa: sp 24 + .ra: .cfa -4 + ^ r4: .cfa -24 + ^ r5: .cfa -20 + ^ r6: .cfa -16 + ^ r7: .cfa -12 + ^ r8: .cfa -8 + ^
STACK CFI 1e828 .cfa: sp 32 +
STACK CFI INIT 1ea98 130 .cfa: sp 0 + .ra: lr
STACK CFI 1ea9c .cfa: sp 24 + .ra: .cfa -4 + ^ r3: .cfa -24 + ^ r4: .cfa -20 + ^ r5: .cfa -16 + ^ r6: .cfa -12 + ^ r7: .cfa -8 + ^
STACK CFI INIT 1ebc8 164 .cfa: sp 0 + .ra: lr
STACK CFI 1ebcc .cfa: sp 36 + .ra: .cfa -4 + ^ r10: .cfa -12 + ^ r11: .cfa -8 + ^ r4: .cfa -36 + ^ r5: .cfa -32 + ^ r6: .cfa -28 + ^ r7: .cfa -24 + ^ r8: .cfa -20 + ^ r9: .cfa -16 + ^
STACK CFI 1ebd8 .cfa: sp 56 +
STACK CFI INIT 1ed2c 2ac .cfa: sp 0 + .ra: lr
STACK CFI 1ed30 .cfa: sp 28 + .ra: .cfa -4 + ^ r4: .cfa -28 + ^ r5: .cfa -24 + ^ r6: .cfa -20 + ^ r7: .cfa -16 + ^ r8: .cfa -12 + ^ r9: .cfa -8 + ^
STACK CFI 1ed38 .cfa: sp 40 +
STACK CFI INIT 1efd8 2ac .cfa: sp 0 + .ra: lr
STACK CFI 1efdc .cfa: sp 28 + .ra: .cfa -4 + ^ r4: .cfa -28 + ^ r5: .cfa -24 + ^ r6: .cfa -20 + ^ r7: .cfa -16 + ^ r8: .cfa -12 + ^ r9: .cfa -8 + ^
STACK CFI 1efe4 .cfa: sp 40 +
STACK CFI INIT 1f284 11a4 .cfa: sp 0 + .ra: lr
STACK CFI 1f288 .cfa: sp 36 + .ra: .cfa -4 + ^ r10: .cfa -12 + ^ r11: .cfa -8 + ^ r4: .cfa -36 + ^ r5: .cfa -32 + ^ r6: .cfa -28 + ^ r7: .cfa -24 + ^ r8: .cfa -20 + ^ r9: .cfa -16 + ^
STACK CFI 1f294 .cfa: sp 144 +
STACK CFI INIT 20428 124 .cfa: sp 0 + .ra: lr
STACK CFI 2042c .cfa: sp 24 + .ra: .cfa -4 + ^ r4: .cfa -24 + ^ r5: .cfa -20 + ^ r6: .cfa -16 + ^ r7: .cfa -12 + ^ r8: .cfa -8 + ^
STACK CFI 20438 .cfa: sp 32 +
STACK CFI INIT 2054c 260 .cfa: sp 0 + .ra: lr
STACK CFI 20554 .cfa: sp 36 + .ra: .cfa -4 + ^ r10: .cfa -12 + ^ r11: .cfa -8 + ^ r4: .cfa -36 + ^ r5: .cfa -32 + ^ r6: .cfa -28 + ^ r7: .cfa -24 + ^ r8: .cfa -20 + ^ r9: .cfa -16 + ^
STACK CFI 20560 .cfa: sp 48 +
STACK CFI INIT 207ac 88 .cfa: sp 0 + .ra: lr
STACK CFI 207b0 .cfa: sp 16 + .ra: .cfa -4 + ^ r4: .cfa -16 + ^ r5: .cfa -12 + ^ r6: .cfa -8 + ^
STACK CFI INIT 20834 11c .cfa: sp 0 + .ra: lr
STACK CFI 20838 .cfa: sp 32 + .ra: .cfa -4 + ^ r3: .cfa -32 + ^ r4: .cfa -28 + ^ r5: .cfa -24 + ^ r6: .cfa -20 + ^ r7: .cfa -16 + ^ r8: .cfa -12 + ^ r9: .cfa -8 + ^
STACK CFI INIT 20950 c .cfa: sp 0 + .ra: lr
STACK CFI INIT 2095c 24 .cfa: sp 0 + .ra: lr
STACK CFI INIT 20980 e4 .cfa: sp 0 + .ra: lr
STACK CFI 20984 .cfa: sp 24 + r4: .cfa -24 + ^ r5: .cfa -20 + ^ r6: .cfa -16 + ^ r7: .cfa -12 + ^ r8: .cfa -8 + ^ r9: .cfa -4 + ^
STACK CFI INIT 20a64 b4 .cfa: sp 0 + .ra: lr
STACK CFI 20a68 .cfa: sp 32 + .ra: .cfa -4 + ^ r3: .cfa -32 + ^ r4: .cfa -28 + ^ r5: .cfa -24 + ^ r6: .cfa -20 + ^ r7: .cfa -16 + ^ r8: .cfa -12 + ^ r9: .cfa -8 + ^
STACK CFI INIT 20b18 e30 .cfa: sp 0 + .ra: lr
STACK CFI 20b1c .cfa: sp 36 + .ra: .cfa -4 + ^ r10: .cfa -12 + ^ r11: .cfa -8 + ^ r4: .cfa -36 + ^ r5: .cfa -32 + ^ r6: .cfa -28 + ^ r7: .cfa -24 + ^ r8: .cfa -20 + ^ r9: .cfa -16 + ^
STACK CFI 20b28 .cfa: sp 96 +
STACK CFI INIT 21948 6c .cfa: sp 0 + .ra: lr
STACK CFI 2194c .cfa: sp 20 + .ra: .cfa -4 + ^ r4: .cfa -20 + ^ r5: .cfa -16 + ^ r6: .cfa -12 + ^ r7: .cfa -8 + ^
STACK CFI 21950 .cfa: sp 32 +
STACK CFI INIT 219b4 18 .cfa: sp 0 + .ra: lr
STACK CFI INIT 219cc 1c .cfa: sp 0 + .ra: lr
STACK CFI INIT 219e8 6c .cfa: sp 0 + .ra: lr
STACK CFI 219ec .cfa: sp 16 + .ra: .cfa -4 + ^ r3: .cfa -16 + ^ r4: .cfa -12 + ^ r5: .cfa -8 + ^
STACK CFI INIT 21a54 94 .cfa: sp 0 + .ra: lr
STACK CFI 21a5c .cfa: sp 20 + .ra: .cfa -4 + ^ r4: .cfa -20 + ^ r5: .cfa -16 + ^ r6: .cfa -12 + ^ r7: .cfa -8 + ^
STACK CFI 21a64 .cfa: sp 40 +
STACK CFI INIT 21ae8 6c .cfa: sp 0 + .ra: lr
STACK CFI 21aec .cfa: sp 16 + .ra: .cfa -4 + ^ r3: .cfa -16 + ^ r4: .cfa -12 + ^ r5: .cfa -8 + ^
STACK CFI INIT 21b54 90 .cfa: sp 0 + .ra: lr
STACK CFI 21b5c .cfa: sp 16 + .ra: .cfa -4 + ^ r4: .cfa -16 + ^ r5: .cfa -12 + ^ r6: .cfa -8 + ^
STACK CFI 21b64 .cfa: sp 24 +
STACK CFI INIT 21be4 84 .cfa: sp 0 + .ra: lr
STACK CFI 21bec .cfa: sp 16 + .ra: .cfa -4 + ^ r4: .cfa -16 + ^ r5: .cfa -12 + ^ r6: .cfa -8 + ^
STACK CFI 21bf4 .cfa: sp 24 +
STACK CFI INIT 21c68 88 .cfa: sp 0 + .ra: lr
STACK CFI 21c70 .cfa: sp 16 + .ra: .cfa -4 + ^ r4: .cfa -16 + ^ r5: .cfa -12 + ^ r6: .cfa -8 + ^
STACK CFI 21c78 .cfa: sp 24 +
STACK CFI INIT 21cf0 90 .cfa: sp 0 + .ra: lr
STACK CFI 21cf8 .cfa: sp 16 + .ra: .cfa -4 + ^ r4: .cfa -16 + ^ r5: .cfa -12 + ^ r6: .cfa -8 + ^
STACK CFI 21d00 .cfa: sp 24 +
STACK CFI INIT 21d80 b0 .cfa: sp 0 + .ra: lr
STACK CFI 21d84 .cfa: sp 24 + .ra: .cfa -4 + ^ r3: .cfa -24 + ^ r4: .cfa -20 + ^ r5: .cfa -16 + ^ r6: .cfa -12 + ^ r7: .cfa -8 + ^
STACK CFI INIT 21e30 c8 .cfa: sp 0 + .ra: lr
STACK CFI 21e38 .cfa: sp 24 + .ra: .cfa -4 + ^ r4: .cfa -24 + ^ r5: .cfa -20 + ^ r6: .cfa -16 + ^ r7: .cfa -12 + ^ r8: .cfa -8 + ^
STACK CFI 21e40 .cfa: sp 32 +
STACK CFI INIT 21ef8 b4 .cfa: sp 0 + .ra: lr
STACK CFI 21efc .cfa: sp 24 + .ra: .cfa -4 + ^ r3: .cfa -24 + ^ r4: .cfa -20 + ^ r5: .cfa -16 + ^ r6: .cfa -12 + ^ r7: .cfa -8 + ^
STACK CFI INIT 21fac c8 .cfa: sp 0 + .ra: lr
STACK CFI 21fb4 .cfa: sp 24 + .ra: .cfa -4 + ^ r4: .cfa -24 + ^ r5: .cfa -20 + ^ r6: .cfa -16 + ^ r7: .cfa -12 + ^ r8: .cfa -8 + ^
STACK CFI 21fbc .cfa: sp 32 +
STACK CFI INIT 22074 a8 .cfa: sp 0 + .ra: lr
STACK CFI 2207c .cfa: sp 16 + .ra: .cfa -4 + ^ r4: .cfa -16 + ^ r5: .cfa -12 + ^ r6: .cfa -8 + ^
STACK CFI INIT 2211c ac .cfa: sp 0 + .ra: lr
STACK CFI 22124 .cfa: sp 16 + .ra: .cfa -4 + ^ r4: .cfa -16 + ^ r5: .cfa -12 + ^ r6: .cfa -8 + ^
STACK CFI INIT 221c8 7c .cfa: sp 0 + .ra: lr
STACK CFI 221cc .cfa: sp 16 + .ra: .cfa -4 + ^ r3: .cfa -16 + ^ r4: .cfa -12 + ^ r5: .cfa -8 + ^
STACK CFI INIT 22244 7c .cfa: sp 0 + .ra: lr
STACK CFI 22248 .cfa: sp 16 + .ra: .cfa -4 + ^ r3: .cfa -16 + ^ r4: .cfa -12 + ^ r5: .cfa -8 + ^
STACK CFI INIT 222c0 7c .cfa: sp 0 + .ra: lr
STACK CFI 222c4 .cfa: sp 16 + .ra: .cfa -4 + ^ r3: .cfa -16 + ^ r4: .cfa -12 + ^ r5: .cfa -8 + ^
STACK CFI INIT 2233c 7c .cfa: sp 0 + .ra: lr
STACK CFI 22340 .cfa: sp 16 + .ra: .cfa -4 + ^ r3: .cfa -16 + ^ r4: .cfa -12 + ^ r5: .cfa -8 + ^
STACK CFI INIT 223b8 90 .cfa: sp 0 + .ra: lr
STACK CFI 223bc .cfa: sp 24 + .ra: .cfa -4 + ^ r4: .cfa -24 + ^ r5: .cfa -20 + ^ r6: .cfa -16 + ^ r7: .cfa -12 + ^ r8: .cfa -8 + ^
STACK CFI 223c8 .cfa: sp 40 +
STACK CFI INIT 22448 44 .cfa: sp 0 + .ra: lr
STACK CFI 2244c .cfa: sp 24 + .ra: .cfa -4 + ^ r3: .cfa -24 + ^ r4: .cfa -20 + ^ r5: .cfa -16 + ^ r6: .cfa -12 + ^ r7: .cfa -8 + ^
STACK CFI INIT 2248c 10 .cfa: sp 0 + .ra: lr
STACK CFI INIT 2249c 10 .cfa: sp 0 + .ra: lr
STACK CFI INIT 224ac 14 .cfa: sp 0 + .ra: lr
STACK CFI INIT 224c0 b4 .cfa: sp 0 + .ra: lr
STACK CFI 224c4 .cfa: sp 12 + .ra: .cfa -4 + ^ r4: .cfa -12 + ^ r5: .cfa -8 + ^
STACK CFI 224cc .cfa: sp 24 +
STACK CFI INIT 22574 10 .cfa: sp 0 + .ra: lr
STACK CFI INIT 22584 128 .cfa: sp 0 + .ra: lr
STACK CFI 22588 .cfa: sp 20 + .ra: .cfa -4 + ^ r4: .cfa -20 + ^ r5: .cfa -16 + ^ r6: .cfa -12 + ^ r7: .cfa -8 + ^
STACK CFI 22590 .cfa: sp 32 +
STACK CFI INIT 226ac 4 .cfa: sp 0 + .ra: lr
STACK CFI INIT 226b0 2c .cfa: sp 0 + .ra: lr
STACK CFI INIT 226dc c8 .cfa: sp 0 + .ra: lr
STACK CFI 226e0 .cfa: sp 12 + r4: .cfa -12 + ^ r5: .cfa -8 + ^ r6: .cfa -4 + ^
STACK CFI INIT 227a4 1d8 .cfa: sp 0 + .ra: lr
STACK CFI 227a8 .cfa: sp 32 + .ra: .cfa -4 + ^ r10: .cfa -8 + ^ r4: .cfa -32 + ^ r5: .cfa -28 + ^ r6: .cfa -24 + ^ r7: .cfa -20 + ^ r8: .cfa -16 + ^ r9: .cfa -12 + ^
STACK CFI INIT 2297c 78 .cfa: sp 0 + .ra: lr
STACK CFI 22980 .cfa: sp 24 + .ra: .cfa -4 + ^ r4: .cfa -24 + ^ r5: .cfa -20 + ^ r6: .cfa -16 + ^ r7: .cfa -12 + ^ r8: .cfa -8 + ^
STACK CFI INIT 229f4 d4 .cfa: sp 0 + .ra: lr
STACK CFI 229f8 .cfa: sp 8 + .ra: .cfa -4 + ^ r4: .cfa -8 + ^
STACK CFI INIT 22ac8 14c .cfa: sp 0 + .ra: lr
STACK CFI 22acc .cfa: sp 24 + .ra: .cfa -4 + ^ r4: .cfa -24 + ^ r5: .cfa -20 + ^ r6: .cfa -16 + ^ r7: .cfa -12 + ^ r8: .cfa -8 + ^
STACK CFI INIT 22c14 14c .cfa: sp 0 + .ra: lr
STACK CFI 22c18 .cfa: sp 24 + .ra: .cfa -4 + ^ r4: .cfa -24 + ^ r5: .cfa -20 + ^ r6: .cfa -16 + ^ r7: .cfa -12 + ^ r8: .cfa -8 + ^
STACK CFI INIT 22d60 14c .cfa: sp 0 + .ra: lr
STACK CFI 22d64 .cfa: sp 24 + .ra: .cfa -4 + ^ r4: .cfa -24 + ^ r5: .cfa -20 + ^ r6: .cfa -16 + ^ r7: .cfa -12 + ^ r8: .cfa -8 + ^
STACK CFI INIT 22eac 14c .cfa: sp 0 + .ra: lr
STACK CFI 22eb0 .cfa: sp 24 + .ra: .cfa -4 + ^ r4: .cfa -24 + ^ r5: .cfa -20 + ^ r6: .cfa -16 + ^ r7: .cfa -12 + ^ r8: .cfa -8 + ^
STACK CFI INIT 22ff8 28 .cfa: sp 0 + .ra: lr
STACK CFI 22ffc .cfa: sp 16 + .ra: .cfa -4 + ^ r3: .cfa -16 + ^ r4: .cfa -12 + ^ r5: .cfa -8 + ^
STACK CFI INIT 23020 194 .cfa: sp 0 + .ra: lr
STACK CFI 23024 .cfa: sp 36 + .ra: .cfa -4 + ^ r10: .cfa -12 + ^ r11: .cfa -8 + ^ r4: .cfa -36 + ^ r5: .cfa -32 + ^ r6: .cfa -28 + ^ r7: .cfa -24 + ^ r8: .cfa -20 + ^ r9: .cfa -16 + ^
STACK CFI 23028 .cfa: sp 56 +
STACK CFI INIT 231b4 28 .cfa: sp 0 + .ra: lr
STACK CFI 231b8 .cfa: sp 16 + .ra: .cfa -4 + ^ r3: .cfa -16 + ^ r4: .cfa -12 + ^ r5: .cfa -8 + ^
STACK CFI INIT 231dc 50 .cfa: sp 0 + .ra: lr
STACK CFI 231e0 .cfa: sp 16 + .ra: .cfa -4 + ^ r4: .cfa -16 + ^ r5: .cfa -12 + ^ r6: .cfa -8 + ^
STACK CFI INIT 2322c 20 .cfa: sp 0 + .ra: lr
STACK CFI INIT 2324c 5c .cfa: sp 0 + .ra: lr
STACK CFI 23250 .cfa: sp 16 + .ra: .cfa -4 + ^ r3: .cfa -16 + ^ r4: .cfa -12 + ^ r5: .cfa -8 + ^
STACK CFI INIT 232a8 b0 .cfa: sp 0 + .ra: lr
STACK CFI 232ac .cfa: sp 24 + .ra: .cfa -4 + ^ r4: .cfa -24 + ^ r5: .cfa -20 + ^ r6: .cfa -16 + ^ r7: .cfa -12 + ^ r8: .cfa -8 + ^
STACK CFI INIT 23358 14c .cfa: sp 0 + .ra: lr
STACK CFI 2335c .cfa: sp 32 + .ra: .cfa -4 + ^ r10: .cfa -8 + ^ r4: .cfa -32 + ^ r5: .cfa -28 + ^ r6: .cfa -24 + ^ r7: .cfa -20 + ^ r8: .cfa -16 + ^ r9: .cfa -12 + ^
STACK CFI INIT 234a4 194 .cfa: sp 0 + .ra: lr
STACK CFI 234a8 .cfa: sp 36 + .ra: .cfa -4 + ^ r10: .cfa -12 + ^ r11: .cfa -8 + ^ r4: .cfa -36 + ^ r5: .cfa -32 + ^ r6: .cfa -28 + ^ r7: .cfa -24 + ^ r8: .cfa -20 + ^ r9: .cfa -16 + ^
STACK CFI 234b8 .cfa: sp 48 +
STACK CFI INIT 23638 110 .cfa: sp 0 + .ra: lr
STACK CFI 2363c .cfa: sp 40 + .ra: .cfa -4 + ^ r10: .cfa -12 + ^ r11: .cfa -8 + ^ r3: .cfa -40 + ^ r4: .cfa -36 + ^ r5: .cfa -32 + ^ r6: .cfa -28 + ^ r7: .cfa -24 + ^ r8: .cfa -20 + ^ r9: .cfa -16 + ^
STACK CFI INIT 23748 13c .cfa: sp 0 + .ra: lr
STACK CFI 2374c .cfa: sp 32 + .ra: .cfa -4 + ^ r10: .cfa -8 + ^ r4: .cfa -32 + ^ r5: .cfa -28 + ^ r6: .cfa -24 + ^ r7: .cfa -20 + ^ r8: .cfa -16 + ^ r9: .cfa -12 + ^
STACK CFI INIT 23884 8 .cfa: sp 0 + .ra: lr
STACK CFI INIT 2388c 48 .cfa: sp 0 + .ra: lr
STACK CFI 23890 .cfa: sp 8 + .ra: .cfa -4 + ^ r4: .cfa -8 + ^
STACK CFI INIT 238d4 30 .cfa: sp 0 + .ra: lr
STACK CFI 238dc .cfa: sp 8 + .ra: .cfa -4 + ^ r3: .cfa -8 + ^
STACK CFI INIT 23904 38 .cfa: sp 0 + .ra: lr
STACK CFI 23908 .cfa: sp 16 + .ra: .cfa -4 + ^ r4: .cfa -16 + ^ r5: .cfa -12 + ^ r6: .cfa -8 + ^
STACK CFI INIT 2393c 3c .cfa: sp 0 + .ra: lr
STACK CFI 23940 .cfa: sp 16 + .ra: .cfa -4 + ^ r3: .cfa -16 + ^ r4: .cfa -12 + ^ r5: .cfa -8 + ^
STACK CFI INIT 23978 24c .cfa: sp 0 + .ra: lr
STACK CFI 2397c .cfa: sp 16 + .ra: .cfa -4 + ^ r4: .cfa -16 + ^ r5: .cfa -12 + ^ r6: .cfa -8 + ^
STACK CFI INIT 23bc4 50 .cfa: sp 0 + .ra: lr
STACK CFI 23bc8 .cfa: sp 16 + .ra: .cfa -4 + ^ r3: .cfa -16 + ^ r4: .cfa -12 + ^ r5: .cfa -8 + ^
STACK CFI INIT 23c14 a4 .cfa: sp 0 + .ra: lr
STACK CFI 23c18 .cfa: sp 16 + .ra: .cfa -4 + ^ r4: .cfa -16 + ^ r5: .cfa -12 + ^ r6: .cfa -8 + ^
STACK CFI INIT 23cb8 258 .cfa: sp 0 + .ra: lr
STACK CFI 23cbc .cfa: sp 40 + .ra: .cfa -4 + ^ r10: .cfa -12 + ^ r11: .cfa -8 + ^ r3: .cfa -40 + ^ r4: .cfa -36 + ^ r5: .cfa -32 + ^ r6: .cfa -28 + ^ r7: .cfa -24 + ^ r8: .cfa -20 + ^ r9: .cfa -16 + ^
STACK CFI INIT 23f10 1ec .cfa: sp 0 + .ra: lr
STACK CFI 23f14 .cfa: sp 40 + .ra: .cfa -4 + ^ r10: .cfa -12 + ^ r11: .cfa -8 + ^ r3: .cfa -40 + ^ r4: .cfa -36 + ^ r5: .cfa -32 + ^ r6: .cfa -28 + ^ r7: .cfa -24 + ^ r8: .cfa -20 + ^ r9: .cfa -16 + ^
STACK CFI INIT 240fc ac .cfa: sp 0 + .ra: lr
STACK CFI 24104 .cfa: sp 16 + .ra: .cfa -4 + ^ r4: .cfa -16 + ^ r5: .cfa -12 + ^ r6: .cfa -8 + ^
STACK CFI INIT 241a8 5d0 .cfa: sp 0 + .ra: lr
STACK CFI 241ac .cfa: sp 36 + .ra: .cfa -4 + ^ r10: .cfa -12 + ^ r11: .cfa -8 + ^ r4: .cfa -36 + ^ r5: .cfa -32 + ^ r6: .cfa -28 + ^ r7: .cfa -24 + ^ r8: .cfa -20 + ^ r9: .cfa -16 + ^
STACK CFI 241b0 .cfa: sp 4388 +
STACK CFI 241b4 .cfa: sp 4408 +
STACK CFI INIT 24778 144 .cfa: sp 0 + .ra: lr
STACK CFI 2477c .cfa: sp 36 + .ra: .cfa -4 + ^ r10: .cfa -12 + ^ r11: .cfa -8 + ^ r4: .cfa -36 + ^ r5: .cfa -32 + ^ r6: .cfa -28 + ^ r7: .cfa -24 + ^ r8: .cfa -20 + ^ r9: .cfa -16 + ^
STACK CFI 24788 .cfa: sp 64 +
STACK CFI INIT 248bc 1e4 .cfa: sp 0 + .ra: lr
STACK CFI 248c8 .cfa: sp 40 + .ra: .cfa -4 + ^ r10: .cfa -12 + ^ r11: .cfa -8 + ^ r3: .cfa -40 + ^ r4: .cfa -36 + ^ r5: .cfa -32 + ^ r6: .cfa -28 + ^ r7: .cfa -24 + ^ r8: .cfa -20 + ^ r9: .cfa -16 + ^
STACK CFI INIT 24aa0 398 .cfa: sp 0 + .ra: lr
STACK CFI 24aa8 .cfa: sp 36 + .ra: .cfa -4 + ^ r10: .cfa -12 + ^ r11: .cfa -8 + ^ r4: .cfa -36 + ^ r5: .cfa -32 + ^ r6: .cfa -28 + ^ r7: .cfa -24 + ^ r8: .cfa -20 + ^ r9: .cfa -16 + ^
STACK CFI 24ab0 .cfa: sp 56 +
STACK CFI INIT 24e38 48 .cfa: sp 0 + .ra: lr
STACK CFI 24e3c .cfa: sp 12 + .ra: .cfa -4 + ^ r4: .cfa -12 + ^ r5: .cfa -8 + ^
STACK CFI 24e40 .cfa: sp 32 +
STACK CFI INIT 24e80 d0 .cfa: sp 0 + .ra: lr
STACK CFI 24e84 .cfa: sp 24 + .ra: .cfa -4 + ^ r4: .cfa -24 + ^ r5: .cfa -20 + ^ r6: .cfa -16 + ^ r7: .cfa -12 + ^ r8: .cfa -8 + ^
STACK CFI INIT 24f50 d0 .cfa: sp 0 + .ra: lr
STACK CFI 24f54 .cfa: sp 24 + .ra: .cfa -4 + ^ r4: .cfa -24 + ^ r5: .cfa -20 + ^ r6: .cfa -16 + ^ r7: .cfa -12 + ^ r8: .cfa -8 + ^
STACK CFI INIT 25020 12c .cfa: sp 0 + .ra: lr
STACK CFI 25024 .cfa: sp 24 + .ra: .cfa -4 + ^ r4: .cfa -24 + ^ r5: .cfa -20 + ^ r6: .cfa -16 + ^ r7: .cfa -12 + ^ r8: .cfa -8 + ^
STACK CFI INIT 2514c 138 .cfa: sp 0 + .ra: lr
STACK CFI 25150 .cfa: sp 32 + .ra: .cfa -4 + ^ r3: .cfa -32 + ^ r4: .cfa -28 + ^ r5: .cfa -24 + ^ r6: .cfa -20 + ^ r7: .cfa -16 + ^ r8: .cfa -12 + ^ r9: .cfa -8 + ^
STACK CFI INIT 25284 210 .cfa: sp 0 + .ra: lr
STACK CFI 2528c .cfa: sp 24 + .ra: .cfa -4 + ^ r4: .cfa -24 + ^ r5: .cfa -20 + ^ r6: .cfa -16 + ^ r7: .cfa -12 + ^ r8: .cfa -8 + ^
STACK CFI INIT 25494 7bc .cfa: sp 0 + .ra: lr
STACK CFI 2549c .cfa: sp 36 + .ra: .cfa -4 + ^ r10: .cfa -12 + ^ r11: .cfa -8 + ^ r4: .cfa -36 + ^ r5: .cfa -32 + ^ r6: .cfa -28 + ^ r7: .cfa -24 + ^ r8: .cfa -20 + ^ r9: .cfa -16 + ^
STACK CFI 254a8 .cfa: sp 112 +
STACK CFI INIT 25c50 a0 .cfa: sp 0 + .ra: lr
STACK CFI 25c54 .cfa: sp 32 + .ra: .cfa -4 + ^ r3: .cfa -32 + ^ r4: .cfa -28 + ^ r5: .cfa -24 + ^ r6: .cfa -20 + ^ r7: .cfa -16 + ^ r8: .cfa -12 + ^ r9: .cfa -8 + ^
STACK CFI INIT 25cf0 494 .cfa: sp 0 + .ra: lr
STACK CFI 25cf4 .cfa: sp 36 + .ra: .cfa -4 + ^ r10: .cfa -12 + ^ r11: .cfa -8 + ^ r4: .cfa -36 + ^ r5: .cfa -32 + ^ r6: .cfa -28 + ^ r7: .cfa -24 + ^ r8: .cfa -20 + ^ r9: .cfa -16 + ^
STACK CFI 25cfc .cfa: sp 104 +
STACK CFI INIT 26184 84 .cfa: sp 0 + .ra: lr
STACK CFI 26188 .cfa: sp 24 + .ra: .cfa -4 + ^ r4: .cfa -24 + ^ r5: .cfa -20 + ^ r6: .cfa -16 + ^ r7: .cfa -12 + ^ r8: .cfa -8 + ^
STACK CFI INIT 26208 13c .cfa: sp 0 + .ra: lr
STACK CFI 2620c .cfa: sp 40 + .ra: .cfa -4 + ^ r10: .cfa -12 + ^ r11: .cfa -8 + ^ r3: .cfa -40 + ^ r4: .cfa -36 + ^ r5: .cfa -32 + ^ r6: .cfa -28 + ^ r7: .cfa -24 + ^ r8: .cfa -20 + ^ r9: .cfa -16 + ^
STACK CFI INIT 26344 ce8 .cfa: sp 0 + .ra: lr
STACK CFI 26348 .cfa: sp 36 + .ra: .cfa -4 + ^ r10: .cfa -12 + ^ r11: .cfa -8 + ^ r4: .cfa -36 + ^ r5: .cfa -32 + ^ r6: .cfa -28 + ^ r7: .cfa -24 + ^ r8: .cfa -20 + ^ r9: .cfa -16 + ^
STACK CFI 2634c .cfa: sp 272 +
STACK CFI INIT 2702c 18 .cfa: sp 0 + .ra: lr
STACK CFI INIT 27044 3c .cfa: sp 0 + .ra: lr
STACK CFI 27048 .cfa: sp 16 + .ra: .cfa -4 + ^ r4: .cfa -16 + ^ r5: .cfa -12 + ^ r6: .cfa -8 + ^
STACK CFI INIT 27080 10 .cfa: sp 0 + .ra: lr
STACK CFI INIT 27090 14 .cfa: sp 0 + .ra: lr
STACK CFI INIT 270a4 9c .cfa: sp 0 + .ra: lr
STACK CFI 270a8 .cfa: sp 12 + .ra: .cfa -4 + ^ r4: .cfa -12 + ^ r5: .cfa -8 + ^
STACK CFI 270b4 .cfa: sp 24 +
STACK CFI INIT 27140 9c .cfa: sp 0 + .ra: lr
STACK CFI 27144 .cfa: sp 12 + .ra: .cfa -4 + ^ r4: .cfa -12 + ^ r5: .cfa -8 + ^
STACK CFI 27150 .cfa: sp 24 +
STACK CFI INIT 271dc 9c .cfa: sp 0 + .ra: lr
STACK CFI 271e0 .cfa: sp 12 + .ra: .cfa -4 + ^ r4: .cfa -12 + ^ r5: .cfa -8 + ^
STACK CFI 271ec .cfa: sp 24 +
STACK CFI INIT 27278 10 .cfa: sp 0 + .ra: lr
STACK CFI INIT 27288 14 .cfa: sp 0 + .ra: lr
STACK CFI INIT 2729c 15c .cfa: sp 0 + .ra: lr
STACK CFI 272a0 .cfa: sp 16 + .ra: .cfa -4 + ^ r4: .cfa -16 + ^ r5: .cfa -12 + ^ r6: .cfa -8 + ^
STACK CFI INIT 273f8 20c .cfa: sp 0 + .ra: lr
STACK CFI 273fc .cfa: sp 24 + .ra: .cfa -4 + ^ r4: .cfa -24 + ^ r5: .cfa -20 + ^ r6: .cfa -16 + ^ r7: .cfa -12 + ^ r8: .cfa -8 + ^
STACK CFI INIT 27604 12c .cfa: sp 0 + .ra: lr
STACK CFI 27608 .cfa: sp 24 + .ra: .cfa -4 + ^ r4: .cfa -24 + ^ r5: .cfa -20 + ^ r6: .cfa -16 + ^ r7: .cfa -12 + ^ r8: .cfa -8 + ^
STACK CFI INIT 27730 238 .cfa: sp 0 + .ra: lr
STACK CFI 27734 .cfa: sp 16 + .ra: .cfa -4 + ^ r4: .cfa -16 + ^ r5: .cfa -12 + ^ r6: .cfa -8 + ^
STACK CFI INIT 27968 2d0 .cfa: sp 0 + .ra: lr
STACK CFI 2796c .cfa: sp 24 + .ra: .cfa -4 + ^ r4: .cfa -24 + ^ r5: .cfa -20 + ^ r6: .cfa -16 + ^ r7: .cfa -12 + ^ r8: .cfa -8 + ^
STACK CFI INIT 27c38 284 .cfa: sp 0 + .ra: lr
STACK CFI 27c3c .cfa: sp 24 + .ra: .cfa -4 + ^ r4: .cfa -24 + ^ r5: .cfa -20 + ^ r6: .cfa -16 + ^ r7: .cfa -12 + ^ r8: .cfa -8 + ^
STACK CFI INIT 27ebc 116c .cfa: sp 0 + .ra: lr
STACK CFI 27ec0 .cfa: sp 36 + .ra: .cfa -4 + ^ r10: .cfa -12 + ^ r11: .cfa -8 + ^ r4: .cfa -36 + ^ r5: .cfa -32 + ^ r6: .cfa -28 + ^ r7: .cfa -24 + ^ r8: .cfa -20 + ^ r9: .cfa -16 + ^
STACK CFI 27ed0 .cfa: sp 88 +
STACK CFI INIT 29028 90 .cfa: sp 0 + .ra: lr
STACK CFI 2902c .cfa: sp 24 + .ra: .cfa -4 + ^ r3: .cfa -24 + ^ r4: .cfa -20 + ^ r5: .cfa -16 + ^ r6: .cfa -12 + ^ r7: .cfa -8 + ^
STACK CFI INIT 290b8 264 .cfa: sp 0 + .ra: lr
STACK CFI 290bc .cfa: sp 36 + .ra: .cfa -4 + ^ r10: .cfa -12 + ^ r11: .cfa -8 + ^ r4: .cfa -36 + ^ r5: .cfa -32 + ^ r6: .cfa -28 + ^ r7: .cfa -24 + ^ r8: .cfa -20 + ^ r9: .cfa -16 + ^
STACK CFI 290c0 .cfa: sp 2084 +
STACK CFI 290c4 .cfa: sp 2096 +
STACK CFI INIT 2931c 180 .cfa: sp 0 + .ra: lr
STACK CFI 29320 .cfa: sp 28 + .ra: .cfa -4 + ^ r4: .cfa -28 + ^ r5: .cfa -24 + ^ r6: .cfa -20 + ^ r7: .cfa -16 + ^ r8: .cfa -12 + ^ r9: .cfa -8 + ^
STACK CFI 29328 .cfa: sp 40 +
STACK CFI INIT 2949c 224 .cfa: sp 0 + .ra: lr
STACK CFI 294a0 .cfa: sp 24 + .ra: .cfa -4 + ^ r4: .cfa -24 + ^ r5: .cfa -20 + ^ r6: .cfa -16 + ^ r7: .cfa -12 + ^ r8: .cfa -8 + ^
STACK CFI INIT 296c0 c4 .cfa: sp 0 + .ra: lr
STACK CFI 296c4 .cfa: sp 16 + .ra: .cfa -4 + ^ r3: .cfa -16 + ^ r4: .cfa -12 + ^ r5: .cfa -8 + ^
STACK CFI INIT 29784 130 .cfa: sp 0 + .ra: lr
STACK CFI 29788 .cfa: sp 32 + .ra: .cfa -4 + ^ r10: .cfa -8 + ^ r4: .cfa -32 + ^ r5: .cfa -28 + ^ r6: .cfa -24 + ^ r7: .cfa -20 + ^ r8: .cfa -16 + ^ r9: .cfa -12 + ^
STACK CFI INIT 298b4 164 .cfa: sp 0 + .ra: lr
STACK CFI 298bc .cfa: sp 16 + .ra: .cfa -4 + ^ r4: .cfa -16 + ^ r5: .cfa -12 + ^ r6: .cfa -8 + ^
STACK CFI INIT 29a18 1cc .cfa: sp 0 + .ra: lr
STACK CFI 29a1c .cfa: sp 32 + .ra: .cfa -4 + ^ r3: .cfa -32 + ^ r4: .cfa -28 + ^ r5: .cfa -24 + ^ r6: .cfa -20 + ^ r7: .cfa -16 + ^ r8: .cfa -12 + ^ r9: .cfa -8 + ^
STACK CFI INIT 29be4 c .cfa: sp 0 + .ra: lr
STACK CFI INIT 29bf0 8 .cfa: sp 0 + .ra: lr
STACK CFI INIT 29bf8 8 .cfa: sp 0 + .ra: lr
STACK CFI INIT 29c00 8 .cfa: sp 0 + .ra: lr
STACK CFI INIT 29c08 5c .cfa: sp 0 + .ra: lr
STACK CFI 29c0c .cfa: sp 8 + .ra: .cfa -4 + ^ r4: .cfa -8 + ^
STACK CFI INIT 29c64 18 .cfa: sp 0 + .ra: lr
STACK CFI 29c68 .cfa: sp 8 + .ra: .cfa -4 + ^ r4: .cfa -8 + ^
STACK CFI INIT 29c7c 588 .cfa: sp 0 + .ra: lr
STACK CFI 29c80 .cfa: sp 32 + .ra: .cfa -4 + ^ r10: .cfa -8 + ^ r4: .cfa -32 + ^ r5: .cfa -28 + ^ r6: .cfa -24 + ^ r7: .cfa -20 + ^ r8: .cfa -16 + ^ r9: .cfa -12 + ^
STACK CFI 29c8c .cfa: sp 40 +
STACK CFI INIT 2a204 244 .cfa: sp 0 + .ra: lr
STACK CFI 2a208 .cfa: sp 24 + .ra: .cfa -4 + ^ r3: .cfa -24 + ^ r4: .cfa -20 + ^ r5: .cfa -16 + ^ r6: .cfa -12 + ^ r7: .cfa -8 + ^
STACK CFI INIT 2a448 40 .cfa: sp 0 + .ra: lr
STACK CFI 2a44c .cfa: sp 16 + .ra: .cfa -4 + ^ r3: .cfa -16 + ^ r4: .cfa -12 + ^ r5: .cfa -8 + ^
STACK CFI INIT 2a488 24 .cfa: sp 0 + .ra: lr
STACK CFI 2a48c .cfa: sp 8 + .ra: .cfa -4 + ^ r4: .cfa -8 + ^
STACK CFI INIT 2a4ac 12c .cfa: sp 0 + .ra: lr
STACK CFI 2a4b0 .cfa: sp 32 + .ra: .cfa -4 + ^ r10: .cfa -8 + ^ r4: .cfa -32 + ^ r5: .cfa -28 + ^ r6: .cfa -24 + ^ r7: .cfa -20 + ^ r8: .cfa -16 + ^ r9: .cfa -12 + ^
STACK CFI INIT 2a5d8 a4 .cfa: sp 0 + .ra: lr
STACK CFI 2a5e0 .cfa: sp 16 + .ra: .cfa -4 + ^ r3: .cfa -16 + ^ r4: .cfa -12 + ^ r5: .cfa -8 + ^
STACK CFI INIT 2a67c 268 .cfa: sp 0 + .ra: lr
STACK CFI 2a684 .cfa: sp 32 + .ra: .cfa -4 + ^ r10: .cfa -8 + ^ r4: .cfa -32 + ^ r5: .cfa -28 + ^ r6: .cfa -24 + ^ r7: .cfa -20 + ^ r8: .cfa -16 + ^ r9: .cfa -12 + ^
STACK CFI INIT 2a8e4 39c .cfa: sp 0 + .ra: lr
STACK CFI 2a8ec .cfa: sp 16 + .ra: .cfa -4 + ^ r4: .cfa -16 + ^ r5: .cfa -12 + ^ r6: .cfa -8 + ^
STACK CFI 2a8f8 .cfa: sp 32 +
STACK CFI INIT 2ac80 264 .cfa: sp 0 + .ra: lr
STACK CFI 2ac90 .cfa: sp 20 + .ra: .cfa -4 + ^ r4: .cfa -20 + ^ r5: .cfa -16 + ^ r6: .cfa -12 + ^ r7: .cfa -8 + ^
STACK CFI 2ac9c .cfa: sp 48 +
STACK CFI INIT 2aee4 14c .cfa: sp 0 + .ra: lr
STACK CFI 2aeec .cfa: sp 20 + .ra: .cfa -4 + ^ r4: .cfa -20 + ^ r5: .cfa -16 + ^ r6: .cfa -12 + ^ r7: .cfa -8 + ^
STACK CFI 2aef4 .cfa: sp 40 +
STACK CFI INIT 2b030 1fc .cfa: sp 0 + .ra: lr
STACK CFI 2b038 .cfa: sp 20 + .ra: .cfa -4 + ^ r4: .cfa -20 + ^ r5: .cfa -16 + ^ r6: .cfa -12 + ^ r7: .cfa -8 + ^
STACK CFI 2b040 .cfa: sp 40 +
STACK CFI INIT 2b22c 1148 .cfa: sp 0 + .ra: lr
STACK CFI 2b230 .cfa: sp 36 + .ra: .cfa -4 + ^ r10: .cfa -12 + ^ r11: .cfa -8 + ^ r4: .cfa -36 + ^ r5: .cfa -32 + ^ r6: .cfa -28 + ^ r7: .cfa -24 + ^ r8: .cfa -20 + ^ r9: .cfa -16 + ^
STACK CFI 2b234 .cfa: sp 104 +
STACK CFI INIT 2c374 29c .cfa: sp 0 + .ra: lr
STACK CFI 2c380 .cfa: sp 16 + .ra: .cfa -4 + ^ r4: .cfa -16 + ^ r5: .cfa -12 + ^ r6: .cfa -8 + ^
STACK CFI 2c388 .cfa: sp 56 +
STACK CFI INIT 2c610 204 .cfa: sp 0 + .ra: lr
STACK CFI 2c618 .cfa: sp 16 + .ra: .cfa -4 + ^ r4: .cfa -16 + ^ r5: .cfa -12 + ^ r6: .cfa -8 + ^
STACK CFI 2c620 .cfa: sp 40 +
STACK CFI INIT 2c814 200 .cfa: sp 0 + .ra: lr
STACK CFI 2c81c .cfa: sp 16 + .ra: .cfa -4 + ^ r4: .cfa -16 + ^ r5: .cfa -12 + ^ r6: .cfa -8 + ^
STACK CFI 2c824 .cfa: sp 40 +
STACK CFI INIT 2ca14 170 .cfa: sp 0 + .ra: lr
STACK CFI 2ca1c .cfa: sp 16 + .ra: .cfa -4 + ^ r4: .cfa -16 + ^ r5: .cfa -12 + ^ r6: .cfa -8 + ^
STACK CFI 2ca28 .cfa: sp 40 +
STACK CFI INIT 2cb84 128 .cfa: sp 0 + .ra: lr
STACK CFI 2cb8c .cfa: sp 16 + .ra: .cfa -4 + ^ r4: .cfa -16 + ^ r5: .cfa -12 + ^ r6: .cfa -8 + ^
STACK CFI 2cb94 .cfa: sp 32 +
STACK CFI INIT 2ccac fc .cfa: sp 0 + .ra: lr
STACK CFI 2ccb4 .cfa: sp 16 + .ra: .cfa -4 + ^ r4: .cfa -16 + ^ r5: .cfa -12 + ^ r6: .cfa -8 + ^
STACK CFI 2ccbc .cfa: sp 32 +
STACK CFI INIT 2cda8 2c8 .cfa: sp 0 + .ra: lr
STACK CFI 2cdac .cfa: sp 36 + .ra: .cfa -4 + ^ r10: .cfa -12 + ^ r11: .cfa -8 + ^ r4: .cfa -36 + ^ r5: .cfa -32 + ^ r6: .cfa -28 + ^ r7: .cfa -24 + ^ r8: .cfa -20 + ^ r9: .cfa -16 + ^
STACK CFI 2cdb8 .cfa: sp 56 +
STACK CFI INIT 2d070 48 .cfa: sp 0 + .ra: lr
STACK CFI 2d07c .cfa: sp 4 + .ra: .cfa -4 + ^
STACK CFI 2d084 .cfa: sp 24 +
STACK CFI INIT 2d0b8 40 .cfa: sp 0 + .ra: lr
STACK CFI 2d0bc .cfa: sp 12 + .ra: .cfa -4 + ^ r4: .cfa -12 + ^ r5: .cfa -8 + ^
STACK CFI 2d0c0 .cfa: sp 32 +
STACK CFI INIT 2d0f8 264 .cfa: sp 0 + .ra: lr
STACK CFI 2d0fc .cfa: sp 32 + .ra: .cfa -4 + ^ r10: .cfa -8 + ^ r4: .cfa -32 + ^ r5: .cfa -28 + ^ r6: .cfa -24 + ^ r7: .cfa -20 + ^ r8: .cfa -16 + ^ r9: .cfa -12 + ^
STACK CFI 2d110 .cfa: sp 64 +
STACK CFI INIT 2d35c 304 .cfa: sp 0 + .ra: lr
STACK CFI 2d364 .cfa: sp 28 + .ra: .cfa -4 + ^ r4: .cfa -28 + ^ r5: .cfa -24 + ^ r6: .cfa -20 + ^ r7: .cfa -16 + ^ r8: .cfa -12 + ^ r9: .cfa -8 + ^
STACK CFI 2d36c .cfa: sp 56 +
STACK CFI INIT 2d660 2e8 .cfa: sp 0 + .ra: lr
STACK CFI 2d668 .cfa: sp 12 + .ra: .cfa -4 + ^ r4: .cfa -12 + ^ r5: .cfa -8 + ^
STACK CFI 2d674 .cfa: sp 48 +
STACK CFI INIT 2d948 3c0 .cfa: sp 0 + .ra: lr
STACK CFI 2d94c .cfa: sp 24 + .ra: .cfa -4 + ^ r4: .cfa -24 + ^ r5: .cfa -20 + ^ r6: .cfa -16 + ^ r7: .cfa -12 + ^ r8: .cfa -8 + ^
STACK CFI 2d95c .cfa: sp 48 +
STACK CFI INIT 2dd08 54 .cfa: sp 0 + .ra: lr
STACK CFI INIT 2dd5c 150 .cfa: sp 0 + .ra: lr
STACK CFI 2dd60 .cfa: sp 8 + .ra: .cfa -4 + ^ r4: .cfa -8 + ^
STACK CFI INIT 2deac 7c .cfa: sp 0 + .ra: lr
STACK CFI 2debc .cfa: sp 4 + r4: .cfa -4 + ^
STACK CFI INIT 2df28 a8 .cfa: sp 0 + .ra: lr
STACK CFI 2df30 .cfa: sp 4 + .ra: .cfa -4 + ^
STACK CFI 2df34 .cfa: sp 16 +
STACK CFI INIT 2dfd0 80 .cfa: sp 0 + .ra: lr
STACK CFI 2dfd4 .cfa: sp 12 + .ra: .cfa -4 + ^ r4: .cfa -12 + ^ r5: .cfa -8 + ^
STACK CFI 2dfd8 .cfa: sp 24 +
STACK CFI INIT 2e050 70 .cfa: sp 0 + .ra: lr
STACK CFI 2e054 .cfa: sp 12 + .ra: .cfa -4 + ^ r4: .cfa -12 + ^ r5: .cfa -8 + ^
STACK CFI 2e058 .cfa: sp 24 +
STACK CFI INIT 2e0c0 b4 .cfa: sp 0 + .ra: lr
STACK CFI 2e0c4 .cfa: sp 16 + .ra: .cfa -4 + ^ r4: .cfa -16 + ^ r5: .cfa -12 + ^ r6: .cfa -8 + ^
STACK CFI INIT 2e174 88 .cfa: sp 0 + .ra: lr
STACK CFI 2e17c .cfa: sp 16 + .ra: .cfa -4 + ^ r4: .cfa -16 + ^ r5: .cfa -12 + ^ r6: .cfa -8 + ^
STACK CFI INIT 2e1fc 18 .cfa: sp 0 + .ra: lr
STACK CFI 2e200 .cfa: sp 4 + .ra: .cfa -4 + ^
STACK CFI 2e204 .cfa: sp 16 +
STACK CFI INIT 2e214 98 .cfa: sp 0 + .ra: lr
STACK CFI 2e218 .cfa: sp 8 + .ra: .cfa -4 + ^ r3: .cfa -8 + ^
STACK CFI INIT 2e2ac 90 .cfa: sp 0 + .ra: lr
STACK CFI 2e2b0 .cfa: sp 8 + .ra: .cfa -4 + ^ r3: .cfa -8 + ^
STACK CFI INIT 2e33c 3c .cfa: sp 0 + .ra: lr
STACK CFI INIT 2e378 4 .cfa: sp 0 + .ra: lr
STACK CFI INIT 2e37c 2c .cfa: sp 0 + .ra: lr
STACK CFI 2e380 .cfa: sp 8 + .ra: .cfa -4 + ^ r3: .cfa -8 + ^
STACK CFI INIT 2e3a8 278 .cfa: sp 0 + .ra: lr
STACK CFI 2e3ac .cfa: sp 24 + .ra: .cfa -4 + ^ r4: .cfa -24 + ^ r5: .cfa -20 + ^ r6: .cfa -16 + ^ r7: .cfa -12 + ^ r8: .cfa -8 + ^
STACK CFI INIT 2e620 4 .cfa: sp 0 + .ra: lr
STACK CFI INIT 2e624 4 .cfa: sp 0 + .ra: lr
STACK CFI INIT 2e628 4 .cfa: sp 0 + .ra: lr
STACK CFI INIT 2e62c 4 .cfa: sp 0 + .ra: lr
STACK CFI INIT 2e630 4 .cfa: sp 0 + .ra: lr
STACK CFI INIT 2e634 4 .cfa: sp 0 + .ra: lr
STACK CFI INIT 2e638 1c .cfa: sp 0 + .ra: lr
STACK CFI 2e63c .cfa: sp 12 + r1: .cfa -12 + ^ r2: .cfa -8 + ^ r3: .cfa -4 + ^
STACK CFI 2e640 .cfa: sp 16 + .ra: .cfa -16 + ^
STACK CFI INIT 2e654 1c .cfa: sp 0 + .ra: lr
STACK CFI 2e658 .cfa: sp 12 + r1: .cfa -12 + ^ r2: .cfa -8 + ^ r3: .cfa -4 + ^
STACK CFI 2e65c .cfa: sp 16 + .ra: .cfa -16 + ^
STACK CFI INIT 2e670 4 .cfa: sp 0 + .ra: lr
STACK CFI INIT 2e674 4 .cfa: sp 0 + .ra: lr
STACK CFI INIT 2e678 4 .cfa: sp 0 + .ra: lr
STACK CFI INIT 2e67c 4 .cfa: sp 0 + .ra: lr
STACK CFI INIT 2e680 4 .cfa: sp 0 + .ra: lr
STACK CFI INIT 2e684 4 .cfa: sp 0 + .ra: lr
STACK CFI INIT 2e688 4 .cfa: sp 0 + .ra: lr
STACK CFI INIT 2e68c 4 .cfa: sp 0 + .ra: lr
STACK CFI INIT 2e690 4 .cfa: sp 0 + .ra: lr
STACK CFI INIT 2e694 4 .cfa: sp 0 + .ra: lr
STACK CFI INIT 2e698 4 .cfa: sp 0 + .ra: lr
STACK CFI INIT 2e69c 4 .cfa: sp 0 + .ra: lr
STACK CFI INIT 2e6a0 4 .cfa: sp 0 + .ra: lr
STACK CFI INIT 2e6a4 4 .cfa: sp 0 + .ra: lr
STACK CFI INIT 2e6a8 4 .cfa: sp 0 + .ra: lr
STACK CFI INIT 2e6ac 4 .cfa: sp 0 + .ra: lr
STACK CFI INIT 2e6b0 4 .cfa: sp 0 + .ra: lr
STACK CFI INIT 2e6b4 4 .cfa: sp 0 + .ra: lr
STACK CFI INIT 2e6b8 4 .cfa: sp 0 + .ra: lr
STACK CFI INIT 2e6bc 4 .cfa: sp 0 + .ra: lr
STACK CFI INIT 2e6c0 4 .cfa: sp 0 + .ra: lr
STACK CFI INIT 2e6c4 4 .cfa: sp 0 + .ra: lr
STACK CFI INIT 2e6c8 4 .cfa: sp 0 + .ra: lr
STACK CFI INIT 2e6cc 4 .cfa: sp 0 + .ra: lr
STACK CFI INIT 2e6d0 4 .cfa: sp 0 + .ra: lr
STACK CFI INIT 2e6d4 4 .cfa: sp 0 + .ra: lr
STACK CFI INIT 2e6d8 4 .cfa: sp 0 + .ra: lr
STACK CFI INIT 2e6dc 4 .cfa: sp 0 + .ra: lr
STACK CFI INIT 2e6e0 4 .cfa: sp 0 + .ra: lr
STACK CFI INIT 2e6e4 4 .cfa: sp 0 + .ra: lr
STACK CFI INIT 2e6e8 4 .cfa: sp 0 + .ra: lr
STACK CFI INIT 2e6ec 4 .cfa: sp 0 + .ra: lr
STACK CFI INIT 2e6f0 4 .cfa: sp 0 + .ra: lr
STACK CFI INIT 2e6f4 4 .cfa: sp 0 + .ra: lr
STACK CFI INIT 2e6f8 30 .cfa: sp 0 + .ra: lr
STACK CFI 2e6fc .cfa: sp 12 + r1: .cfa -12 + ^ r2: .cfa -8 + ^ r3: .cfa -4 + ^
STACK CFI 2e700 .cfa: sp 16 + .ra: .cfa -16 + ^
STACK CFI 2e704 .cfa: sp 24 +
STACK CFI INIT 2e728 4 .cfa: sp 0 + .ra: lr
STACK CFI INIT 2e72c 40 .cfa: sp 0 + .ra: lr
STACK CFI 2e730 .cfa: sp 16 + r0: .cfa -16 + ^ r1: .cfa -12 + ^ r2: .cfa -8 + ^ r3: .cfa -4 + ^
STACK CFI 2e738 .cfa: sp 20 + .ra: .cfa -20 + ^
STACK CFI 2e73c .cfa: sp 32 +
STACK CFI INIT 2e76c 4 .cfa: sp 0 + .ra: lr
STACK CFI INIT 2e770 4 .cfa: sp 0 + .ra: lr
STACK CFI INIT 2e774 4 .cfa: sp 0 + .ra: lr
STACK CFI INIT 2e778 4 .cfa: sp 0 + .ra: lr
STACK CFI INIT 2e77c 4 .cfa: sp 0 + .ra: lr
STACK CFI INIT 2e780 4 .cfa: sp 0 + .ra: lr
STACK CFI INIT 2e784 4 .cfa: sp 0 + .ra: lr
STACK CFI INIT 2e788 30 .cfa: sp 0 + .ra: lr
STACK CFI 2e78c .cfa: sp 12 + r1: .cfa -12 + ^ r2: .cfa -8 + ^ r3: .cfa -4 + ^
STACK CFI 2e790 .cfa: sp 16 + .ra: .cfa -16 + ^
STACK CFI 2e794 .cfa: sp 24 +
STACK CFI INIT 2e7b8 4 .cfa: sp 0 + .ra: lr
STACK CFI INIT 2e7bc 4 .cfa: sp 0 + .ra: lr
STACK CFI INIT 2e7c0 c .cfa: sp 0 + .ra: lr
STACK CFI INIT 2e7cc c .cfa: sp 0 + .ra: lr
STACK CFI INIT 2e7d8 4 .cfa: sp 0 + .ra: lr
STACK CFI INIT 2e7dc 4 .cfa: sp 0 + .ra: lr
STACK CFI INIT 2e7e0 4 .cfa: sp 0 + .ra: lr
STACK CFI INIT 2e7e4 c .cfa: sp 0 + .ra: lr
STACK CFI INIT 2e7f0 4 .cfa: sp 0 + .ra: lr
STACK CFI INIT 2e7f4 4 .cfa: sp 0 + .ra: lr
STACK CFI INIT 2e7f8 4 .cfa: sp 0 + .ra: lr
STACK CFI INIT 2e7fc a8 .cfa: sp 0 + .ra: lr
STACK CFI INIT 2e8c4 dc .cfa: sp 0 + .ra: lr
STACK CFI INIT 2ea50 3c .cfa: sp 0 + .ra: lr
STACK CFI 2ea54 .cfa: sp 24 + .ra: .cfa -4 + ^ r4: .cfa -24 + ^ r5: .cfa -20 + ^ r6: .cfa -16 + ^ r7: .cfa -12 + ^ r8: .cfa -8 + ^
STACK CFI INIT 2ea8c 3c .cfa: sp 0 + .ra: lr
STACK CFI 2ea90 .cfa: sp 24 + .ra: .cfa -4 + ^ r4: .cfa -24 + ^ r5: .cfa -20 + ^ r6: .cfa -16 + ^ r7: .cfa -12 + ^ r8: .cfa -8 + ^
STACK CFI INIT 2eac8 18 .cfa: sp 0 + .ra: lr
STACK CFI INIT 2eae0 ac .cfa: sp 0 + .ra: lr
STACK CFI 2eae4 .cfa: sp 48 + .ra: .cfa -4 + ^ r0: .cfa -48 + ^ r1: .cfa -44 + ^ r10: .cfa -12 + ^ r11: .cfa -8 + ^ r2: .cfa -40 + ^ r4: .cfa -36 + ^ r5: .cfa -32 + ^ r6: .cfa -28 + ^ r7: .cfa -24 + ^ r8: .cfa -20 + ^ r9: .cfa -16 + ^
STACK CFI INIT 2eb8c 50 .cfa: sp 0 + .ra: lr
STACK CFI INIT 2ebdc 110 .cfa: sp 0 + .ra: lr
STACK CFI 2ebe4 .cfa: sp 24 + .ra: .cfa -4 + ^ r0: .cfa -24 + ^ r1: .cfa -20 + ^ r2: .cfa -16 + ^ r4: .cfa -12 + ^ r5: .cfa -8 + ^
STACK CFI INIT 2ecec 6c .cfa: sp 0 + .ra: lr
STACK CFI 2ecf4 .cfa: sp 8 + .ra: .cfa -4 + ^ r4: .cfa -8 + ^
STACK CFI INIT 2ed58 14 .cfa: sp 0 + .ra: lr
STACK CFI INIT 2ed6c 8 .cfa: sp 0 + .ra: lr
STACK CFI INIT 2ed74 4 .cfa: sp 0 + .ra: lr
STACK CFI INIT 2ed78 64 .cfa: sp 0 + .ra: lr
STACK CFI 2ed7c .cfa: sp 16 + .ra: .cfa -4 + ^ r4: .cfa -16 + ^ r5: .cfa -12 + ^ r6: .cfa -8 + ^
STACK CFI INIT 2eddc 124 .cfa: sp 0 + .ra: lr
STACK CFI 2ede0 .cfa: sp 36 + .ra: .cfa -4 + ^ r10: .cfa -12 + ^ r11: .cfa -8 + ^ r4: .cfa -36 + ^ r5: .cfa -32 + ^ r6: .cfa -28 + ^ r7: .cfa -24 + ^ r8: .cfa -20 + ^ r9: .cfa -16 + ^
STACK CFI 2edfc .cfa: sp 1008 +
STACK CFI INIT 2ef00 8 .cfa: sp 0 + .ra: lr
STACK CFI INIT 2ef08 a4 .cfa: sp 0 + .ra: lr
STACK CFI 2ef0c .cfa: sp 20 + .ra: .cfa -4 + ^ r4: .cfa -20 + ^ r5: .cfa -16 + ^ r6: .cfa -12 + ^ r7: .cfa -8 + ^
STACK CFI 2ef28 .cfa: sp 504 +
STACK CFI INIT 2efac 1c .cfa: sp 0 + .ra: lr
STACK CFI INIT 2efc8 74 .cfa: sp 0 + .ra: lr
STACK CFI 2efcc .cfa: sp 16 + .ra: .cfa -4 + ^ r4: .cfa -16 + ^ r5: .cfa -12 + ^ r6: .cfa -8 + ^
STACK CFI INIT 2f03c 20 .cfa: sp 0 + .ra: lr
STACK CFI INIT 2f05c 4 .cfa: sp 0 + .ra: lr
STACK CFI INIT 2f060 20 .cfa: sp 0 + .ra: lr
STACK CFI 2f064 .cfa: sp 8 + .ra: .cfa -4 + ^ r3: .cfa -8 + ^
STACK CFI INIT 2f080 5c .cfa: sp 0 + .ra: lr
STACK CFI INIT 2f0dc 28 .cfa: sp 0 + .ra: lr
STACK CFI 2f0e0 .cfa: sp 24 + .ra: .cfa -4 + ^ r0: .cfa -24 + ^ r1: .cfa -20 + ^ r2: .cfa -16 + ^ r3: .cfa -12 + ^ r4: .cfa -8 + ^
STACK CFI INIT 2f104 5c .cfa: sp 0 + .ra: lr
STACK CFI INIT 2f160 2c .cfa: sp 0 + .ra: lr
STACK CFI 2f164 .cfa: sp 24 + .ra: .cfa -4 + ^ r0: .cfa -24 + ^ r1: .cfa -20 + ^ r2: .cfa -16 + ^ r3: .cfa -12 + ^ r4: .cfa -8 + ^
STACK CFI INIT 2f18c c4 .cfa: sp 0 + .ra: lr
STACK CFI 2f190 .cfa: sp 24 + .ra: .cfa -4 + ^ r4: .cfa -24 + ^ r5: .cfa -20 + ^ r6: .cfa -16 + ^ r7: .cfa -12 + ^ r8: .cfa -8 + ^
STACK CFI 2f1ac .cfa: sp 592 +
STACK CFI INIT 2f250 3f4 .cfa: sp 0 + .ra: lr
STACK CFI 2f254 .cfa: sp 36 + .ra: .cfa -4 + ^ r10: .cfa -12 + ^ r11: .cfa -8 + ^ r4: .cfa -36 + ^ r5: .cfa -32 + ^ r6: .cfa -28 + ^ r7: .cfa -24 + ^ r8: .cfa -20 + ^ r9: .cfa -16 + ^
STACK CFI 2f260 .cfa: sp 72 +
STACK CFI INIT 2f644 8 .cfa: sp 0 + .ra: lr
STACK CFI INIT 2f64c 8 .cfa: sp 0 + .ra: lr
STACK CFI INIT 2f654 8 .cfa: sp 0 + .ra: lr
STACK CFI INIT 2f65c 358 .cfa: sp 0 + .ra: lr
STACK CFI 2f660 .cfa: sp 28 + .ra: .cfa -4 + ^ r4: .cfa -28 + ^ r5: .cfa -24 + ^ r6: .cfa -20 + ^ r7: .cfa -16 + ^ r8: .cfa -12 + ^ r9: .cfa -8 + ^
STACK CFI 2f668 .cfa: sp 296 +
STACK CFI INIT 2fb5c 60 .cfa: sp 0 + .ra: lr
STACK CFI INIT 2fbbc 28 .cfa: sp 0 + .ra: lr
STACK CFI 2fbc0 .cfa: sp 24 + .ra: .cfa -4 + ^ r0: .cfa -24 + ^ r1: .cfa -20 + ^ r2: .cfa -16 + ^ r3: .cfa -12 + ^ r4: .cfa -8 + ^
STACK CFI INIT 2fbe4 4 .cfa: sp 0 + .ra: lr
STACK CFI INIT 2fbe8 37c .cfa: sp 0 + .ra: lr
STACK CFI 2fbec .cfa: sp 48 + .ra: .cfa -4 + ^ r0: .cfa -48 + ^ r1: .cfa -44 + ^ r10: .cfa -8 + ^ r2: .cfa -40 + ^ r3: .cfa -36 + ^ r4: .cfa -32 + ^ r5: .cfa -28 + ^ r6: .cfa -24 + ^ r7: .cfa -20 + ^ r8: .cfa -16 + ^ r9: .cfa -12 + ^
STACK CFI INIT 2ff64 40 .cfa: sp 0 + .ra: lr
STACK CFI 2ff68 .cfa: sp 24 + .ra: .cfa -4 + ^ r0: .cfa -24 + ^ r1: .cfa -20 + ^ r2: .cfa -16 + ^ r3: .cfa -12 + ^ r4: .cfa -8 + ^
STACK CFI INIT 2ffa4 10 .cfa: sp 0 + .ra: lr
STACK CFI 2ffa8 .cfa: sp 8 + .ra: .cfa -4 + ^ r3: .cfa -8 + ^
STACK CFI INIT 2ffb4 1c .cfa: sp 0 + .ra: lr
STACK CFI 2ffb8 .cfa: sp 8 + .ra: .cfa -4 + ^ r3: .cfa -8 + ^
STACK CFI INIT 2ffd0 8 .cfa: sp 0 + .ra: lr
STACK CFI 2ffd4 .cfa: sp 8 + .ra: .cfa -4 + ^ r3: .cfa -8 + ^
STACK CFI INIT 2ffd8 8 .cfa: sp 0 + .ra: lr
STACK CFI 2ffdc .cfa: sp 8 + .ra: .cfa -4 + ^ r3: .cfa -8 + ^
STACK CFI INIT 2ffe0 498 .cfa: sp 0 + .ra: lr
STACK CFI 2ffe8 .cfa: sp 36 + .ra: .cfa -4 + ^ r10: .cfa -12 + ^ r11: .cfa -8 + ^ r4: .cfa -36 + ^ r5: .cfa -32 + ^ r6: .cfa -28 + ^ r7: .cfa -24 + ^ r8: .cfa -20 + ^ r9: .cfa -16 + ^
STACK CFI 2fff0 .cfa: sp 56 +
STACK CFI INIT 30478 404 .cfa: sp 0 + .ra: lr
STACK CFI 30480 .cfa: sp 48 + .ra: .cfa -4 + ^ r0: .cfa -48 + ^ r1: .cfa -44 + ^ r10: .cfa -12 + ^ r11: .cfa -8 + ^ r2: .cfa -40 + ^ r4: .cfa -36 + ^ r5: .cfa -32 + ^ r6: .cfa -28 + ^ r7: .cfa -24 + ^ r8: .cfa -20 + ^ r9: .cfa -16 + ^
