MODULE Linux arm A985E14C376C37F18D206912C021DF740 libexif-arm.so
FUNC 44b0 5c 0 _GLOBAL__sub_I_eh_globals.cc
FUNC 450c 18 0 _GLOBAL__sub_I_eh_alloc.cc
FUNC 4558 b4 0 process_jpeg
FUNC 4610 28 0 CExifParse::CExifParse
FUNC 4638 1c 0 CExifParse::Get16
FUNC 4654 38 0 CExifParse::Get32
FUNC 468c 17c 0 CExifParse::ConvertAnyFormat
FUNC 4808 144 0 CExifParse::GetLatLong
FUNC 494c 2b8 0 CExifParse::ProcessGpsInfo
FUNC 4c04 c6c 0 CExifParse::ProcessDir
FUNC 5870 220 0 CExifParse::Process
FUNC 5a90 550 0 CIptcParse::Process
FUNC 5fe0 3c 0 CJpegParse::CJpegParse
FUNC 601c 4c 0 CJpegParse::ProcessSOFn
FUNC 6068 24 0 CJpegParse::ReleaseSection
FUNC 608c bc 0 CJpegParse::GetSection
FUNC 6148 364 0 CJpegParse::ExtractInfo
FUNC 64ac 74 0 CJpegParse::Process
FUNC 6520 4 0 __wrap_dlopen
FUNC 6524 4 0 __wrap_popen
FUNC 6528 4 0 __wrap_calloc
FUNC 652c 4 0 __wrap_malloc
FUNC 6530 4 0 __wrap_realloc
FUNC 6534 4 0 __wrap_free
FUNC 6538 1c 0 __wrap_open
FUNC 6554 1c 0 __wrap_open64
FUNC 6570 4 0 __wrap_close
FUNC 6574 4 0 __wrap_write
FUNC 6578 4 0 __wrap_read
FUNC 657c 4 0 __wrap_lseek
FUNC 6580 4 0 __wrap_lseek64
FUNC 6584 4 0 __wrap_fclose
FUNC 6588 4 0 __wrap_ferror
FUNC 658c 4 0 __wrap_clearerr
FUNC 6590 4 0 __wrap_feof
FUNC 6594 4 0 __wrap_fileno
FUNC 6598 4 0 __wrap_fopen
FUNC 659c 4 0 __wrap_fopen64
FUNC 65a0 4 0 __wrap_fdopen
FUNC 65a4 4 0 __wrap_freopen
FUNC 65a8 4 0 __wrap_fread
FUNC 65ac 4 0 __wrap_fwrite
FUNC 65b0 4 0 __wrap_fflush
FUNC 65b4 4 0 __wrap_fputc
FUNC 65b8 4 0 __wrap_fputs
FUNC 65bc 4 0 __wrap__IO_putc
FUNC 65c0 4 0 __wrap_fseek
FUNC 65c4 4 0 __wrap_fseeko64
FUNC 65c8 4 0 __wrap_ftell
FUNC 65cc 4 0 __wrap_ftello64
FUNC 65d0 4 0 __wrap_rewind
FUNC 65d4 4 0 __wrap_fgetpos
FUNC 65d8 4 0 __wrap_fgetpos64
FUNC 65dc 4 0 __wrap_fsetpos
FUNC 65e0 4 0 __wrap_fsetpos64
FUNC 65e4 4 0 __wrap_opendir
FUNC 65e8 4 0 __wrap_readdir
FUNC 65ec 4 0 __wrap_readdir64
FUNC 65f0 4 0 __wrap_closedir
FUNC 65f4 4 0 __wrap_rewinddir
FUNC 65f8 30 0 __wrap_fprintf
FUNC 6628 4 0 __wrap_vfprintf
FUNC 662c 40 0 __wrap_printf
FUNC 666c 4 0 __wrap_fgetc
FUNC 6670 4 0 __wrap_fgets
FUNC 6674 4 0 __wrap__IO_getc
FUNC 6678 4 0 __wrap__IO_getc_unlocked
FUNC 667c 4 0 __wrap_getc_unlocked
FUNC 6680 4 0 __wrap_ungetc
FUNC 6684 4 0 __wrap_getc
FUNC 6688 30 0 __wrap_ioctl
FUNC 66b8 4 0 __wrap__stat
FUNC 66bc 4 0 __wrap_stat
FUNC 66c0 c 0 __wrap___xstat64
FUNC 66cc c 0 __wrap___lxstat64
FUNC 66d8 4 0 __wrap_flockfile
FUNC 66dc 4 0 __wrap_ftrylockfile
FUNC 66e0 4 0 __wrap_funlockfile
FUNC 66e4 c 0 __wrap___fxstat64
FUNC 66f0 4 0 __wrap_fstat
FUNC 66f4 4 0 __wrap_setvbuf
FUNC 66f8 4 0 __wrap_getmntent
FUNC 66fc 4 0 operator delete []
FUNC 6700 c 0 operator delete
FUNC 670c 1c 0 operator new []
FUNC 6728 10 0 std::bad_alloc::what
FUNC 6738 28 0 std::bad_alloc::~bad_alloc
FUNC 6760 1c 0 std::bad_alloc::~bad_alloc
FUNC 677c 44 0 read_sleb128
FUNC 67c0 11c 0 read_encoded_value_with_base
FUNC 68dc 74 0 base_of_encoded_value
FUNC 6950 e0 0 parse_lsda_header
FUNC 6a30 668 0 __cxxabiv1::__gxx_personality_v0
FUNC 7098 8 0 __cxxabiv1::__cxa_get_exception_ptr
FUNC 70a0 e0 0 __cxxabiv1::__cxa_begin_catch
FUNC 7180 d8 0 __cxxabiv1::__cxa_end_catch
FUNC 7258 18 0 std::uncaught_exception
FUNC 7270 a4 0 operator new
FUNC 7314 70 0 __cxxabiv1::__is_gxx_exception_class
FUNC 7384 2c 0 __cxa_call_terminate
FUNC 73b0 168 0 __cxa_call_unexpected
FUNC 7518 34 0 __eh_globals_init::~__eh_globals_init
FUNC 754c 3c 0 eh_globals_dtor
FUNC 7588 48 0 __cxxabiv1::__cxa_get_globals_fast
FUNC 75d0 90 0 __cxxabiv1::__cxa_get_globals
FUNC 7660 28 0 __cxxabiv1::__si_class_type_info::~__si_class_type_info
FUNC 7688 1c 0 __cxxabiv1::__si_class_type_info::~__si_class_type_info
FUNC 76a4 64 0 __cxxabiv1::__si_class_type_info::__do_find_public_src
FUNC 7708 e0 0 __cxxabiv1::__si_class_type_info::__do_dyncast
FUNC 77e8 40 0 __cxxabiv1::__si_class_type_info::__do_upcast
FUNC 7828 5c 0 __cxxabiv1::__class_type_info::__do_upcast
FUNC 7884 14 0 __cxxabiv1::__class_type_info::__do_find_public_src
FUNC 7898 28 0 __cxxabiv1::__class_type_info::~__class_type_info
FUNC 78c0 1c 0 __cxxabiv1::__class_type_info::~__class_type_info
FUNC 78dc 2c 0 __cxxabiv1::__class_type_info::__do_upcast
FUNC 7908 44 0 __cxxabiv1::__class_type_info::__do_catch
FUNC 794c 78 0 __cxxabiv1::__class_type_info::__do_dyncast
FUNC 79c4 60 0 __gxx_exception_cleanup
FUNC 7a24 b8 0 __cxxabiv1::__cxa_throw
FUNC 7adc b0 0 __cxxabiv1::__cxa_rethrow
FUNC 7b8c 18 0 std::exception::~exception
FUNC 7ba4 28 0 std::bad_exception::~bad_exception
FUNC 7bcc 18 0 __cxxabiv1::__forced_unwind::~__forced_unwind
FUNC 7be4 18 0 __cxxabiv1::__foreign_exception::~__foreign_exception
FUNC 7bfc 10 0 std::exception::what
FUNC 7c0c 10 0 std::bad_exception::what
FUNC 7c1c 1c 0 std::exception::~exception
FUNC 7c38 1c 0 std::bad_exception::~bad_exception
FUNC 7c54 1c 0 __cxxabiv1::__forced_unwind::~__forced_unwind
FUNC 7c70 1c 0 __cxxabiv1::__foreign_exception::~__foreign_exception
FUNC 7c9c 144 0 __cxa_type_match
FUNC 7de0 b4 0 __cxa_begin_cleanup
FUNC 7e94 b4 0 __gnu_end_cleanup
FUNC 7f48 34 0 __cxxabiv1::__terminate
FUNC 7f7c 18 0 std::terminate
FUNC 7f94 c 0 __cxxabiv1::__unexpected
FUNC 7fa0 18 0 std::unexpected
FUNC 7fb8 1c 0 std::set_terminate
FUNC 7fd4 1c 0 std::set_unexpected
FUNC 7ff0 10 0 __gnu_cxx::__concurrence_lock_error::what
FUNC 8000 10 0 __gnu_cxx::__concurrence_unlock_error::what
FUNC 8010 28 0 __gnu_cxx::__concurrence_unlock_error::~__concurrence_unlock_error
FUNC 8038 28 0 __gnu_cxx::__concurrence_lock_error::~__concurrence_lock_error
FUNC 8060 30 0 __gnu_cxx::__concurrence_unlock_error::~__concurrence_unlock_error
FUNC 8090 30 0 __gnu_cxx::__concurrence_lock_error::~__concurrence_lock_error
FUNC 80c0 3c 0 __gnu_cxx::__throw_concurrence_lock_error
FUNC 80fc 3c 0 __gnu_cxx::__throw_concurrence_unlock_error
FUNC 8138 e0 0 __cxxabiv1::__cxa_allocate_exception
FUNC 8218 a0 0 __cxxabiv1::__cxa_free_exception
FUNC 82b8 dc 0 __cxxabiv1::__cxa_allocate_dependent_exception
FUNC 8394 a8 0 __cxxabiv1::__cxa_free_dependent_exception
FUNC 843c 10 0 __aeabiv1::__aeabi_atexit
FUNC 844c 1c 0 std::set_new_handler
FUNC 8468 20 0 __cxxabiv1::__cxa_pure_virtual
FUNC 8488 20 0 __cxxabiv1::__cxa_deleted_virtual
FUNC 84a8 18 0 std::type_info::~type_info
FUNC 84c0 8 0 std::type_info::__is_pointer_p
FUNC 84c8 8 0 std::type_info::__is_function_p
FUNC 84d0 8 0 std::type_info::__do_upcast
FUNC 84d8 28 0 std::type_info::~type_info
FUNC 8500 4c 0 std::type_info::operator==
FUNC 854c 4 0 std::type_info::__do_catch
FUNC 8550 1b4 0 __gnu_cxx::__verbose_terminate_handler
FUNC 8704 1d0 0 d_make_comp
FUNC 88d4 6c 0 d_make_name
FUNC 8940 13c 0 d_cv_qualifiers
FUNC 8a7c 58 0 d_ref_qualifier
FUNC 8ad4 f4 0 d_clone_suffix
FUNC 8bc8 244 0 d_substitution
FUNC 8e0c 5c 0 d_append_char
FUNC 8e68 7c 0 d_number
FUNC 8ee4 60 0 d_number_component
FUNC 8f44 54 0 d_compact_number
FUNC 8f98 80 0 d_template_param
FUNC 9018 34 0 d_discriminator
FUNC 904c f8 0 d_source_name
FUNC 9144 9c 0 d_call_offset
FUNC 91e0 88 0 d_lookup_template_argument
FUNC 9268 19c 0 d_find_pack
FUNC 9404 cc 0 d_growable_string_callback_adapter
FUNC 94d0 158 0 d_expr_primary
FUNC 9628 170 0 d_template_args
FUNC 9798 4b0 0 d_name
FUNC 9c48 b88 0 d_type
FUNC a7d0 108 0 d_parmlist
FUNC a8d8 68 0 d_bare_function_type
FUNC a940 874 0 d_encoding
FUNC b1b4 194 0 d_operator_name
FUNC b348 468 0 d_unqualified_name
FUNC b7b0 61c 0 d_expression
FUNC bdcc ac 0 d_exprlist
FUNC be78 84 0 d_append_string
FUNC befc 3554 0 d_print_comp
FUNC f450 20 0 d_print_comp
FUNC f470 778 0 d_print_mod
FUNC fbe8 398 0 d_print_mod_list
FUNC ff80 264 0 d_print_array_type
FUNC 101e4 2d8 0 d_print_function_type
FUNC 104bc 238 0 d_print_cast
FUNC 106f4 a4 0 d_print_expr_op
FUNC 10798 110 0 d_print_subexpr
FUNC 108a8 31c 0 d_demangle_callback
FUNC 10bc4 14c 0 __cxa_demangle
FUNC 10d10 2c 0 __gcclibcxx_demangle_callback
FUNC 10d3c 2c 0 __cxxabiv1::__cxa_current_exception_type
FUNC 10d68 18 0 selfrel_offset31
FUNC 10d80 ac 0 search_EIT_table
FUNC 10e2c 50 0 __gnu_unwind_get_pr_addr
FUNC 10e7c 10c 0 get_eit_entry
FUNC 10f88 6c 0 restore_non_core_regs
FUNC 10ff4 14 0 _Unwind_decode_typeinfo_ptr
FUNC 11008 8 0 __gnu_unwind_24bit
FUNC 11010 4 0 _Unwind_DebugHook
FUNC 11014 64 0 unwind_phase2
FUNC 11078 124 0 unwind_phase2_forced
FUNC 1119c 8 0 _Unwind_GetCFA
FUNC 111a4 a4 0 __gnu_Unwind_RaiseException
FUNC 11248 1c 0 __gnu_Unwind_ForcedUnwind
FUNC 11264 74 0 __gnu_Unwind_Resume
FUNC 112d8 20 0 __gnu_Unwind_Resume_or_Rethrow
FUNC 112f8 4 0 _Unwind_Complete
FUNC 112fc 20 0 _Unwind_DeleteException
FUNC 1131c 5c 0 _Unwind_VRS_Get
FUNC 11378 28 0 _Unwind_GetGR
FUNC 113a0 5c 0 _Unwind_VRS_Set
FUNC 113fc 2c 0 _Unwind_SetGR
FUNC 11428 c4 0 __gnu_Unwind_Backtrace
FUNC 114ec 3f0 0 __gnu_unwind_pr_common
FUNC 118dc 8 0 __aeabi_unwind_cpp_pr0
FUNC 118e4 8 0 __aeabi_unwind_cpp_pr1
FUNC 118ec 8 0 __aeabi_unwind_cpp_pr2
FUNC 118f4 34c 0 _Unwind_VRS_Pop
FUNC 11de8 60 0 next_unwind_byte
FUNC 11e48 28 0 _Unwind_GetGR
FUNC 11e70 4 0 unwind_UCB_from_context
FUNC 11e74 37c 0 __gnu_unwind_execute
FUNC 121f0 40 0 __gnu_unwind_frame
FUNC 12230 10 0 _Unwind_GetRegionStart
FUNC 12240 1c 0 _Unwind_GetLanguageSpecificData
FUNC 1225c 8 0 _Unwind_GetDataRelBase
FUNC 12264 8 0 _Unwind_GetTextRelBase
PUBLIC 4558 0 process_jpeg
PUBLIC 4610 0 CExifParse::CExifParse()
PUBLIC 4638 0 CExifParse::Get16(void const*, bool)
PUBLIC 4654 0 CExifParse::Get32(void const*, bool)
PUBLIC 468c 0 CExifParse::ConvertAnyFormat(void const*, int)
PUBLIC 4808 0 CExifParse::GetLatLong(unsigned int, unsigned char const*, int, char*)
PUBLIC 494c 0 CExifParse::ProcessGpsInfo(unsigned char const*, int, unsigned char const*, unsigned int)
PUBLIC 4c04 0 CExifParse::ProcessDir(unsigned char const*, unsigned char const*, unsigned int, int)
PUBLIC 5870 0 CExifParse::Process(unsigned char const*, unsigned short, ExifInfo_t*)
PUBLIC 5a90 0 CIptcParse::Process(unsigned char const*, unsigned short, IPTCInfo_t*)
PUBLIC 5fe0 0 CJpegParse::CJpegParse()
PUBLIC 601c 0 CJpegParse::ProcessSOFn()
PUBLIC 6068 0 CJpegParse::ReleaseSection()
PUBLIC 608c 0 CJpegParse::GetSection(__sFILE*, unsigned short)
PUBLIC 6148 0 CJpegParse::ExtractInfo(__sFILE*)
PUBLIC 64ac 0 CJpegParse::Process(char const*)
PUBLIC 6520 0 __wrap_dlopen
PUBLIC 6524 0 __wrap_popen
PUBLIC 6528 0 __wrap_calloc
PUBLIC 652c 0 __wrap_malloc
PUBLIC 6530 0 __wrap_realloc
PUBLIC 6534 0 __wrap_free
PUBLIC 6538 0 __wrap_open
PUBLIC 6554 0 __wrap_open64
PUBLIC 6570 0 __wrap_close
PUBLIC 6574 0 __wrap_write
PUBLIC 6578 0 __wrap_read
PUBLIC 657c 0 __wrap_lseek
PUBLIC 6580 0 __wrap_lseek64
PUBLIC 6584 0 __wrap_fclose
PUBLIC 6588 0 __wrap_ferror
PUBLIC 658c 0 __wrap_clearerr
PUBLIC 6590 0 __wrap_feof
PUBLIC 6594 0 __wrap_fileno
PUBLIC 6598 0 __wrap_fopen
PUBLIC 659c 0 __wrap_fopen64
PUBLIC 65a0 0 __wrap_fdopen
PUBLIC 65a4 0 __wrap_freopen
PUBLIC 65a8 0 __wrap_fread
PUBLIC 65ac 0 __wrap_fwrite
PUBLIC 65b0 0 __wrap_fflush
PUBLIC 65b4 0 __wrap_fputc
PUBLIC 65b8 0 __wrap_fputs
PUBLIC 65bc 0 __wrap__IO_putc
PUBLIC 65c0 0 __wrap_fseek
PUBLIC 65c4 0 __wrap_fseeko64
PUBLIC 65c8 0 __wrap_ftell
PUBLIC 65cc 0 __wrap_ftello64
PUBLIC 65d0 0 __wrap_rewind
PUBLIC 65d4 0 __wrap_fgetpos
PUBLIC 65d8 0 __wrap_fgetpos64
PUBLIC 65dc 0 __wrap_fsetpos
PUBLIC 65e0 0 __wrap_fsetpos64
PUBLIC 65e4 0 __wrap_opendir
PUBLIC 65e8 0 __wrap_readdir
PUBLIC 65ec 0 __wrap_readdir64
PUBLIC 65f0 0 __wrap_closedir
PUBLIC 65f4 0 __wrap_rewinddir
PUBLIC 65f8 0 __wrap_fprintf
PUBLIC 6628 0 __wrap_vfprintf
PUBLIC 662c 0 __wrap_printf
PUBLIC 666c 0 __wrap_fgetc
PUBLIC 6670 0 __wrap_fgets
PUBLIC 6674 0 __wrap__IO_getc
PUBLIC 6678 0 __wrap__IO_getc_unlocked
PUBLIC 667c 0 __wrap_getc_unlocked
PUBLIC 6680 0 __wrap_ungetc
PUBLIC 6684 0 __wrap_getc
PUBLIC 6688 0 __wrap_ioctl
PUBLIC 66b8 0 __wrap__stat
PUBLIC 66bc 0 __wrap_stat
PUBLIC 66c0 0 __wrap___xstat64
PUBLIC 66cc 0 __wrap___lxstat64
PUBLIC 66d8 0 __wrap_flockfile
PUBLIC 66dc 0 __wrap_ftrylockfile
PUBLIC 66e0 0 __wrap_funlockfile
PUBLIC 66e4 0 __wrap___fxstat64
PUBLIC 66f0 0 __wrap_fstat
PUBLIC 66f4 0 __wrap_setvbuf
PUBLIC 66f8 0 __wrap_getmntent
PUBLIC 66fc 0 operator delete[](void*)
PUBLIC 6700 0 operator delete(void*)
PUBLIC 670c 0 operator new[](unsigned int)
PUBLIC 6728 0 std::bad_alloc::what() const
PUBLIC 6738 0 std::bad_alloc::~bad_alloc()
PUBLIC 6760 0 std::bad_alloc::~bad_alloc()
PUBLIC 7098 0 __cxa_get_exception_ptr
PUBLIC 70a0 0 __cxa_begin_catch
PUBLIC 7180 0 __cxa_end_catch
PUBLIC 7258 0 std::uncaught_exception()
PUBLIC 7270 0 operator new(unsigned int)
PUBLIC 73b0 0 __cxa_call_unexpected
PUBLIC 7588 0 __cxa_get_globals_fast
PUBLIC 75d0 0 __cxa_get_globals
PUBLIC 7660 0 __cxxabiv1::__si_class_type_info::~__si_class_type_info()
PUBLIC 7688 0 __cxxabiv1::__si_class_type_info::~__si_class_type_info()
PUBLIC 76a4 0 __cxxabiv1::__si_class_type_info::__do_find_public_src(int, void const*, __cxxabiv1::__class_type_info const*, void const*) const
PUBLIC 7708 0 __cxxabiv1::__si_class_type_info::__do_dyncast(int, __cxxabiv1::__class_type_info::__sub_kind, __cxxabiv1::__class_type_info const*, void const*, __cxxabiv1::__class_type_info const*, void const*, __cxxabiv1::__class_type_info::__dyncast_result&) const
PUBLIC 77e8 0 __cxxabiv1::__si_class_type_info::__do_upcast(__cxxabiv1::__class_type_info const*, void const*, __cxxabiv1::__class_type_info::__upcast_result&) const
PUBLIC 7828 0 __cxxabiv1::__class_type_info::__do_upcast(__cxxabiv1::__class_type_info const*, void**) const
PUBLIC 7884 0 __cxxabiv1::__class_type_info::__do_find_public_src(int, void const*, __cxxabiv1::__class_type_info const*, void const*) const
PUBLIC 7898 0 __cxxabiv1::__class_type_info::~__class_type_info()
PUBLIC 78c0 0 __cxxabiv1::__class_type_info::~__class_type_info()
PUBLIC 78dc 0 __cxxabiv1::__class_type_info::__do_upcast(__cxxabiv1::__class_type_info const*, void const*, __cxxabiv1::__class_type_info::__upcast_result&) const
PUBLIC 7908 0 __cxxabiv1::__class_type_info::__do_catch(std::type_info const*, void**, unsigned int) const
PUBLIC 794c 0 __cxxabiv1::__class_type_info::__do_dyncast(int, __cxxabiv1::__class_type_info::__sub_kind, __cxxabiv1::__class_type_info const*, void const*, __cxxabiv1::__class_type_info const*, void const*, __cxxabiv1::__class_type_info::__dyncast_result&) const
PUBLIC 7a24 0 __cxa_throw
PUBLIC 7adc 0 __cxa_rethrow
PUBLIC 7b8c 0 std::exception::~exception()
PUBLIC 7ba4 0 std::bad_exception::~bad_exception()
PUBLIC 7bcc 0 __cxxabiv1::__forced_unwind::~__forced_unwind()
PUBLIC 7be4 0 __cxxabiv1::__foreign_exception::~__foreign_exception()
PUBLIC 7bfc 0 std::exception::what() const
PUBLIC 7c0c 0 std::bad_exception::what() const
PUBLIC 7c1c 0 std::exception::~exception()
PUBLIC 7c38 0 std::bad_exception::~bad_exception()
PUBLIC 7c54 0 __cxxabiv1::__forced_unwind::~__forced_unwind()
PUBLIC 7c70 0 __cxxabiv1::__foreign_exception::~__foreign_exception()
PUBLIC 7c8c 0 __cxa_end_cleanup
PUBLIC 7c9c 0 __cxa_type_match
PUBLIC 7de0 0 __cxa_begin_cleanup
PUBLIC 7e94 0 __gnu_end_cleanup
PUBLIC 7f48 0 __cxxabiv1::__terminate(void (*)())
PUBLIC 7f7c 0 std::terminate()
PUBLIC 7f94 0 __cxxabiv1::__unexpected(void (*)())
PUBLIC 7fa0 0 std::unexpected()
PUBLIC 7fb8 0 std::set_terminate(void (*)())
PUBLIC 7fd4 0 std::set_unexpected(void (*)())
PUBLIC 8138 0 __cxa_allocate_exception
PUBLIC 8218 0 __cxa_free_exception
PUBLIC 82b8 0 __cxa_allocate_dependent_exception
PUBLIC 8394 0 __cxa_free_dependent_exception
PUBLIC 844c 0 std::set_new_handler(void (*)())
PUBLIC 8468 0 __cxa_pure_virtual
PUBLIC 8488 0 __cxa_deleted_virtual
PUBLIC 8550 0 __gnu_cxx::__verbose_terminate_handler()
PUBLIC 10bc4 0 __cxa_demangle
PUBLIC 10d10 0 __gcclibcxx_demangle_callback
PUBLIC 10d3c 0 __cxa_current_exception_type
PUBLIC 1119c 0 _Unwind_GetCFA
PUBLIC 111a4 0 __gnu_Unwind_RaiseException
PUBLIC 11248 0 __gnu_Unwind_ForcedUnwind
PUBLIC 11264 0 __gnu_Unwind_Resume
PUBLIC 112d8 0 __gnu_Unwind_Resume_or_Rethrow
PUBLIC 112f8 0 _Unwind_Complete
PUBLIC 112fc 0 _Unwind_DeleteException
PUBLIC 1131c 0 _Unwind_VRS_Get
PUBLIC 113a0 0 _Unwind_VRS_Set
PUBLIC 11428 0 __gnu_Unwind_Backtrace
PUBLIC 118dc 0 __aeabi_unwind_cpp_pr0
PUBLIC 118e4 0 __aeabi_unwind_cpp_pr1
PUBLIC 118ec 0 __aeabi_unwind_cpp_pr2
PUBLIC 118f4 0 _Unwind_VRS_Pop
PUBLIC 11c40 0 restore_core_regs
PUBLIC 11c54 0 __gnu_Unwind_Restore_VFP
PUBLIC 11c5c 0 __gnu_Unwind_Save_VFP
PUBLIC 11c64 0 __gnu_Unwind_Restore_VFP_D
PUBLIC 11c6c 0 __gnu_Unwind_Save_VFP_D
PUBLIC 11c74 0 __gnu_Unwind_Restore_VFP_D_16_to_31
PUBLIC 11c7c 0 __gnu_Unwind_Save_VFP_D_16_to_31
PUBLIC 11c84 0 __gnu_Unwind_Restore_WMMXD
PUBLIC 11cc8 0 __gnu_Unwind_Save_WMMXD
PUBLIC 11d0c 0 __gnu_Unwind_Restore_WMMXC
PUBLIC 11d20 0 __gnu_Unwind_Save_WMMXC
PUBLIC 11d34 0 _Unwind_RaiseException
PUBLIC 11d58 0 _Unwind_Resume
PUBLIC 11d7c 0 _Unwind_Resume_or_Rethrow
PUBLIC 11da0 0 ___Unwind_ForcedUnwind
PUBLIC 11dc4 0 ___Unwind_Backtrace
PUBLIC 11e74 0 __gnu_unwind_execute
PUBLIC 121f0 0 __gnu_unwind_frame
PUBLIC 12230 0 _Unwind_GetRegionStart
PUBLIC 12240 0 _Unwind_GetLanguageSpecificData
PUBLIC 1225c 0 _Unwind_GetDataRelBase
PUBLIC 12264 0 _Unwind_GetTextRelBase
STACK CFI INIT 4558 b4 .cfa: sp 0 + .ra: lr
STACK CFI 455c .cfa: sp 24 + .ra: .cfa -4 + ^ r4: .cfa -24 + ^ r5: .cfa -20 + ^ r6: .cfa -16 + ^ r7: .cfa -12 + ^ r8: .cfa -8 + ^
STACK CFI 4568 .cfa: sp 266264 +
STACK CFI 4570 .cfa: sp 268888 +
STACK CFI 4578 .cfa: sp 268896 +
STACK CFI INIT 4610 28 .cfa: sp 0 + .ra: lr
STACK CFI INIT 4638 1c .cfa: sp 0 + .ra: lr
STACK CFI INIT 4654 38 .cfa: sp 0 + .ra: lr
STACK CFI INIT 468c 17c .cfa: sp 0 + .ra: lr
STACK CFI 4694 .cfa: sp 16 + .ra: .cfa -4 + ^ r4: .cfa -16 + ^ r5: .cfa -12 + ^ r6: .cfa -8 + ^
STACK CFI INIT 4808 144 .cfa: sp 0 + .ra: lr
STACK CFI 4810 .cfa: sp 24 + .ra: .cfa -4 + ^ r4: .cfa -24 + ^ r5: .cfa -20 + ^ r6: .cfa -16 + ^ r7: .cfa -12 + ^ r8: .cfa -8 + ^
STACK CFI 4818 .cfa: sp 96 +
STACK CFI INIT 494c 2b8 .cfa: sp 0 + .ra: lr
STACK CFI 4950 .cfa: sp 36 + .ra: .cfa -4 + ^ r10: .cfa -12 + ^ r11: .cfa -8 + ^ r4: .cfa -36 + ^ r5: .cfa -32 + ^ r6: .cfa -28 + ^ r7: .cfa -24 + ^ r8: .cfa -20 + ^ r9: .cfa -16 + ^
STACK CFI 4958 .cfa: sp 152 +
STACK CFI INIT 4c04 c6c .cfa: sp 0 + .ra: lr
STACK CFI 4c08 .cfa: sp 36 + .ra: .cfa -4 + ^ r10: .cfa -12 + ^ r11: .cfa -8 + ^ r4: .cfa -36 + ^ r5: .cfa -32 + ^ r6: .cfa -28 + ^ r7: .cfa -24 + ^ r8: .cfa -20 + ^ r9: .cfa -16 + ^
STACK CFI 4c10 .cfa: sp 60 + s16: .cfa -60 + ^ s18: .cfa -52 + ^ s20: .cfa -44 + ^
STACK CFI 4c14 .cfa: sp 192 +
STACK CFI INIT 5870 220 .cfa: sp 0 + .ra: lr
STACK CFI 5874 .cfa: sp 24 + .ra: .cfa -4 + ^ r4: .cfa -24 + ^ r5: .cfa -20 + ^ r6: .cfa -16 + ^ r7: .cfa -12 + ^ r8: .cfa -8 + ^
STACK CFI 5884 .cfa: sp 48 +
STACK CFI INIT 5a90 550 .cfa: sp 0 + .ra: lr
STACK CFI 5a94 .cfa: sp 36 + .ra: .cfa -4 + ^ r10: .cfa -12 + ^ r11: .cfa -8 + ^ r4: .cfa -36 + ^ r5: .cfa -32 + ^ r6: .cfa -28 + ^ r7: .cfa -24 + ^ r8: .cfa -20 + ^ r9: .cfa -16 + ^
STACK CFI 5a9c .cfa: sp 88 +
STACK CFI INIT 5fe0 3c .cfa: sp 0 + .ra: lr
STACK CFI 5fe4 .cfa: sp 16 + .ra: .cfa -4 + ^ r3: .cfa -16 + ^ r4: .cfa -12 + ^ r5: .cfa -8 + ^
STACK CFI INIT 601c 4c .cfa: sp 0 + .ra: lr
STACK CFI 6020 .cfa: sp 8 + .ra: .cfa -4 + ^ r4: .cfa -8 + ^
STACK CFI INIT 6068 24 .cfa: sp 0 + .ra: lr
STACK CFI 606c .cfa: sp 8 + .ra: .cfa -4 + ^ r4: .cfa -8 + ^
STACK CFI INIT 608c bc .cfa: sp 0 + .ra: lr
STACK CFI 6094 .cfa: sp 24 + .ra: .cfa -4 + ^ r4: .cfa -24 + ^ r5: .cfa -20 + ^ r6: .cfa -16 + ^ r7: .cfa -12 + ^ r8: .cfa -8 + ^
STACK CFI INIT 6148 364 .cfa: sp 0 + .ra: lr
STACK CFI 614c .cfa: sp 36 + .ra: .cfa -4 + ^ r10: .cfa -12 + ^ r11: .cfa -8 + ^ r4: .cfa -36 + ^ r5: .cfa -32 + ^ r6: .cfa -28 + ^ r7: .cfa -24 + ^ r8: .cfa -20 + ^ r9: .cfa -16 + ^
STACK CFI 6154 .cfa: sp 104 +
STACK CFI INIT 64ac 74 .cfa: sp 0 + .ra: lr
STACK CFI 64b0 .cfa: sp 16 + .ra: .cfa -4 + ^ r4: .cfa -16 + ^ r5: .cfa -12 + ^ r6: .cfa -8 + ^
STACK CFI INIT 6520 4 .cfa: sp 0 + .ra: lr
STACK CFI INIT 6524 4 .cfa: sp 0 + .ra: lr
STACK CFI INIT 6528 4 .cfa: sp 0 + .ra: lr
STACK CFI INIT 652c 4 .cfa: sp 0 + .ra: lr
STACK CFI INIT 6530 4 .cfa: sp 0 + .ra: lr
STACK CFI INIT 6534 4 .cfa: sp 0 + .ra: lr
STACK CFI INIT 6538 1c .cfa: sp 0 + .ra: lr
STACK CFI 653c .cfa: sp 12 + r1: .cfa -12 + ^ r2: .cfa -8 + ^ r3: .cfa -4 + ^
STACK CFI 6540 .cfa: sp 16 + .ra: .cfa -16 + ^
STACK CFI INIT 6554 1c .cfa: sp 0 + .ra: lr
STACK CFI 6558 .cfa: sp 12 + r1: .cfa -12 + ^ r2: .cfa -8 + ^ r3: .cfa -4 + ^
STACK CFI 655c .cfa: sp 16 + .ra: .cfa -16 + ^
STACK CFI INIT 6570 4 .cfa: sp 0 + .ra: lr
STACK CFI INIT 6574 4 .cfa: sp 0 + .ra: lr
STACK CFI INIT 6578 4 .cfa: sp 0 + .ra: lr
STACK CFI INIT 657c 4 .cfa: sp 0 + .ra: lr
STACK CFI INIT 6580 4 .cfa: sp 0 + .ra: lr
STACK CFI INIT 6584 4 .cfa: sp 0 + .ra: lr
STACK CFI INIT 6588 4 .cfa: sp 0 + .ra: lr
STACK CFI INIT 658c 4 .cfa: sp 0 + .ra: lr
STACK CFI INIT 6590 4 .cfa: sp 0 + .ra: lr
STACK CFI INIT 6594 4 .cfa: sp 0 + .ra: lr
STACK CFI INIT 6598 4 .cfa: sp 0 + .ra: lr
STACK CFI INIT 659c 4 .cfa: sp 0 + .ra: lr
STACK CFI INIT 65a0 4 .cfa: sp 0 + .ra: lr
STACK CFI INIT 65a4 4 .cfa: sp 0 + .ra: lr
STACK CFI INIT 65a8 4 .cfa: sp 0 + .ra: lr
STACK CFI INIT 65ac 4 .cfa: sp 0 + .ra: lr
STACK CFI INIT 65b0 4 .cfa: sp 0 + .ra: lr
STACK CFI INIT 65b4 4 .cfa: sp 0 + .ra: lr
STACK CFI INIT 65b8 4 .cfa: sp 0 + .ra: lr
STACK CFI INIT 65bc 4 .cfa: sp 0 + .ra: lr
STACK CFI INIT 65c0 4 .cfa: sp 0 + .ra: lr
STACK CFI INIT 65c4 4 .cfa: sp 0 + .ra: lr
STACK CFI INIT 65c8 4 .cfa: sp 0 + .ra: lr
STACK CFI INIT 65cc 4 .cfa: sp 0 + .ra: lr
STACK CFI INIT 65d0 4 .cfa: sp 0 + .ra: lr
STACK CFI INIT 65d4 4 .cfa: sp 0 + .ra: lr
STACK CFI INIT 65d8 4 .cfa: sp 0 + .ra: lr
STACK CFI INIT 65dc 4 .cfa: sp 0 + .ra: lr
STACK CFI INIT 65e0 4 .cfa: sp 0 + .ra: lr
STACK CFI INIT 65e4 4 .cfa: sp 0 + .ra: lr
STACK CFI INIT 65e8 4 .cfa: sp 0 + .ra: lr
STACK CFI INIT 65ec 4 .cfa: sp 0 + .ra: lr
STACK CFI INIT 65f0 4 .cfa: sp 0 + .ra: lr
STACK CFI INIT 65f4 4 .cfa: sp 0 + .ra: lr
STACK CFI INIT 65f8 30 .cfa: sp 0 + .ra: lr
STACK CFI 65fc .cfa: sp 12 + r1: .cfa -12 + ^ r2: .cfa -8 + ^ r3: .cfa -4 + ^
STACK CFI 6600 .cfa: sp 16 + .ra: .cfa -16 + ^
STACK CFI 6604 .cfa: sp 24 +
STACK CFI INIT 6628 4 .cfa: sp 0 + .ra: lr
STACK CFI INIT 662c 40 .cfa: sp 0 + .ra: lr
STACK CFI 6630 .cfa: sp 16 + r0: .cfa -16 + ^ r1: .cfa -12 + ^ r2: .cfa -8 + ^ r3: .cfa -4 + ^
STACK CFI 6638 .cfa: sp 20 + .ra: .cfa -20 + ^
STACK CFI 663c .cfa: sp 32 +
STACK CFI INIT 666c 4 .cfa: sp 0 + .ra: lr
STACK CFI INIT 6670 4 .cfa: sp 0 + .ra: lr
STACK CFI INIT 6674 4 .cfa: sp 0 + .ra: lr
STACK CFI INIT 6678 4 .cfa: sp 0 + .ra: lr
STACK CFI INIT 667c 4 .cfa: sp 0 + .ra: lr
STACK CFI INIT 6680 4 .cfa: sp 0 + .ra: lr
STACK CFI INIT 6684 4 .cfa: sp 0 + .ra: lr
STACK CFI INIT 6688 30 .cfa: sp 0 + .ra: lr
STACK CFI 668c .cfa: sp 12 + r1: .cfa -12 + ^ r2: .cfa -8 + ^ r3: .cfa -4 + ^
STACK CFI 6690 .cfa: sp 16 + .ra: .cfa -16 + ^
STACK CFI 6694 .cfa: sp 24 +
STACK CFI INIT 66b8 4 .cfa: sp 0 + .ra: lr
STACK CFI INIT 66bc 4 .cfa: sp 0 + .ra: lr
STACK CFI INIT 66c0 c .cfa: sp 0 + .ra: lr
STACK CFI INIT 66cc c .cfa: sp 0 + .ra: lr
STACK CFI INIT 66d8 4 .cfa: sp 0 + .ra: lr
STACK CFI INIT 66dc 4 .cfa: sp 0 + .ra: lr
STACK CFI INIT 66e0 4 .cfa: sp 0 + .ra: lr
STACK CFI INIT 66e4 c .cfa: sp 0 + .ra: lr
STACK CFI INIT 66f0 4 .cfa: sp 0 + .ra: lr
STACK CFI INIT 66f4 4 .cfa: sp 0 + .ra: lr
STACK CFI INIT 66f8 4 .cfa: sp 0 + .ra: lr
STACK CFI INIT 66fc 4 .cfa: sp 0 + .ra: lr
STACK CFI INIT 6700 c .cfa: sp 0 + .ra: lr
STACK CFI INIT 670c 1c .cfa: sp 0 + .ra: lr
STACK CFI 6710 .cfa: sp 8 + .ra: .cfa -4 + ^ r3: .cfa -8 + ^
STACK CFI INIT 6728 10 .cfa: sp 0 + .ra: lr
STACK CFI INIT 6738 28 .cfa: sp 0 + .ra: lr
STACK CFI 6740 .cfa: sp 8 + .ra: .cfa -4 + ^ r4: .cfa -8 + ^
STACK CFI INIT 6760 1c .cfa: sp 0 + .ra: lr
STACK CFI 6764 .cfa: sp 8 + .ra: .cfa -4 + ^ r4: .cfa -8 + ^
STACK CFI INIT 677c 44 .cfa: sp 0 + .ra: lr
STACK CFI 6788 .cfa: sp 4 + r4: .cfa -4 + ^
STACK CFI INIT 67c0 11c .cfa: sp 0 + .ra: lr
STACK CFI 67c8 .cfa: sp 24 + .ra: .cfa -4 + ^ r4: .cfa -24 + ^ r5: .cfa -20 + ^ r6: .cfa -16 + ^ r7: .cfa -12 + ^ r8: .cfa -8 + ^
STACK CFI 67d0 .cfa: sp 40 +
STACK CFI INIT 68dc 74 .cfa: sp 0 + .ra: lr
STACK CFI 68e4 .cfa: sp 8 + .ra: .cfa -4 + ^ r3: .cfa -8 + ^
STACK CFI INIT 6950 e0 .cfa: sp 0 + .ra: lr
STACK CFI 6954 .cfa: sp 24 + .ra: .cfa -4 + ^ r3: .cfa -24 + ^ r4: .cfa -20 + ^ r5: .cfa -16 + ^ r6: .cfa -12 + ^ r7: .cfa -8 + ^
STACK CFI INIT 6a30 668 .cfa: sp 0 + .ra: lr
STACK CFI 6a38 .cfa: sp 36 + .ra: .cfa -4 + ^ r10: .cfa -12 + ^ r11: .cfa -8 + ^ r4: .cfa -36 + ^ r5: .cfa -32 + ^ r6: .cfa -28 + ^ r7: .cfa -24 + ^ r8: .cfa -20 + ^ r9: .cfa -16 + ^
STACK CFI 6a40 .cfa: sp 128 +
STACK CFI INIT 7098 8 .cfa: sp 0 + .ra: lr
STACK CFI INIT 70a0 e0 .cfa: sp 0 + .ra: lr
STACK CFI 70a4 .cfa: sp 8 + .ra: .cfa -4 + ^ r4: .cfa -8 + ^
STACK CFI INIT 7180 d8 .cfa: sp 0 + .ra: lr
STACK CFI 7184 .cfa: sp 8 + .ra: .cfa -4 + ^ r3: .cfa -8 + ^
STACK CFI INIT 7258 18 .cfa: sp 0 + .ra: lr
STACK CFI 725c .cfa: sp 8 + .ra: .cfa -4 + ^ r3: .cfa -8 + ^
STACK CFI INIT 7270 a4 .cfa: sp 0 + .ra: lr
STACK CFI 7278 .cfa: sp 16 + .ra: .cfa -4 + ^ r4: .cfa -16 + ^ r5: .cfa -12 + ^ r6: .cfa -8 + ^
STACK CFI INIT 7314 70 .cfa: sp 0 + .ra: lr
STACK CFI INIT 7384 2c .cfa: sp 0 + .ra: lr
STACK CFI 7388 .cfa: sp 8 + .ra: .cfa -4 + ^ r4: .cfa -8 + ^
STACK CFI INIT 73b0 168 .cfa: sp 0 + .ra: lr
STACK CFI 73b4 .cfa: sp 36 + .ra: .cfa -4 + ^ r10: .cfa -12 + ^ r11: .cfa -8 + ^ r4: .cfa -36 + ^ r5: .cfa -32 + ^ r6: .cfa -28 + ^ r7: .cfa -24 + ^ r8: .cfa -20 + ^ r9: .cfa -16 + ^
STACK CFI 73b8 .cfa: sp 64 +
STACK CFI INIT 7518 34 .cfa: sp 0 + .ra: lr
STACK CFI 751c .cfa: sp 8 + .ra: .cfa -4 + ^ r4: .cfa -8 + ^
STACK CFI INIT 754c 3c .cfa: sp 0 + .ra: lr
STACK CFI 7550 .cfa: sp 16 + .ra: .cfa -4 + ^ r3: .cfa -16 + ^ r4: .cfa -12 + ^ r5: .cfa -8 + ^
STACK CFI INIT 7588 48 .cfa: sp 0 + .ra: lr
STACK CFI 758c .cfa: sp 8 + .ra: .cfa -4 + ^ r3: .cfa -8 + ^
STACK CFI INIT 75d0 90 .cfa: sp 0 + .ra: lr
STACK CFI 75d8 .cfa: sp 8 + .ra: .cfa -4 + ^ r4: .cfa -8 + ^
STACK CFI INIT 44b0 5c .cfa: sp 0 + .ra: lr
STACK CFI 44b4 .cfa: sp 8 + .ra: .cfa -4 + ^ r4: .cfa -8 + ^
STACK CFI INIT 7660 28 .cfa: sp 0 + .ra: lr
STACK CFI 7668 .cfa: sp 8 + .ra: .cfa -4 + ^ r4: .cfa -8 + ^
STACK CFI INIT 7688 1c .cfa: sp 0 + .ra: lr
STACK CFI 768c .cfa: sp 8 + .ra: .cfa -4 + ^ r4: .cfa -8 + ^
STACK CFI INIT 76a4 64 .cfa: sp 0 + .ra: lr
STACK CFI 76a8 .cfa: sp 16 + .ra: .cfa -4 + ^ r4: .cfa -16 + ^ r5: .cfa -12 + ^ r6: .cfa -8 + ^
STACK CFI 76ac .cfa: sp 32 +
STACK CFI INIT 7708 e0 .cfa: sp 0 + .ra: lr
STACK CFI 770c .cfa: sp 36 + .ra: .cfa -4 + ^ r10: .cfa -12 + ^ r11: .cfa -8 + ^ r4: .cfa -36 + ^ r5: .cfa -32 + ^ r6: .cfa -28 + ^ r7: .cfa -24 + ^ r8: .cfa -20 + ^ r9: .cfa -16 + ^
STACK CFI 7710 .cfa: sp 56 +
STACK CFI INIT 77e8 40 .cfa: sp 0 + .ra: lr
STACK CFI 77ec .cfa: sp 24 + .ra: .cfa -4 + ^ r3: .cfa -24 + ^ r4: .cfa -20 + ^ r5: .cfa -16 + ^ r6: .cfa -12 + ^ r7: .cfa -8 + ^
STACK CFI INIT 7828 5c .cfa: sp 0 + .ra: lr
STACK CFI 7830 .cfa: sp 12 + .ra: .cfa -4 + ^ r4: .cfa -12 + ^ r5: .cfa -8 + ^
STACK CFI 7834 .cfa: sp 32 +
STACK CFI INIT 7884 14 .cfa: sp 0 + .ra: lr
STACK CFI INIT 7898 28 .cfa: sp 0 + .ra: lr
STACK CFI 78a0 .cfa: sp 8 + .ra: .cfa -4 + ^ r4: .cfa -8 + ^
STACK CFI INIT 78c0 1c .cfa: sp 0 + .ra: lr
STACK CFI 78c4 .cfa: sp 8 + .ra: .cfa -4 + ^ r4: .cfa -8 + ^
STACK CFI INIT 78dc 2c .cfa: sp 0 + .ra: lr
STACK CFI 78e0 .cfa: sp 16 + .ra: .cfa -4 + ^ r3: .cfa -16 + ^ r4: .cfa -12 + ^ r5: .cfa -8 + ^
STACK CFI INIT 7908 44 .cfa: sp 0 + .ra: lr
STACK CFI 790c .cfa: sp 24 + .ra: .cfa -4 + ^ r3: .cfa -24 + ^ r4: .cfa -20 + ^ r5: .cfa -16 + ^ r6: .cfa -12 + ^ r7: .cfa -8 + ^
STACK CFI INIT 794c 78 .cfa: sp 0 + .ra: lr
STACK CFI 7950 .cfa: sp 16 + .ra: .cfa -4 + ^ r4: .cfa -16 + ^ r5: .cfa -12 + ^ r6: .cfa -8 + ^
STACK CFI 7954 .cfa: sp 24 +
STACK CFI INIT 79c4 60 .cfa: sp 0 + .ra: lr
STACK CFI 79cc .cfa: sp 8 + .ra: .cfa -4 + ^ r4: .cfa -8 + ^
STACK CFI INIT 7a24 b8 .cfa: sp 0 + .ra: lr
STACK CFI 7a28 .cfa: sp 32 + .ra: .cfa -4 + ^ r3: .cfa -32 + ^ r4: .cfa -28 + ^ r5: .cfa -24 + ^ r6: .cfa -20 + ^ r7: .cfa -16 + ^ r8: .cfa -12 + ^ r9: .cfa -8 + ^
STACK CFI INIT 7adc b0 .cfa: sp 0 + .ra: lr
STACK CFI 7ae0 .cfa: sp 8 + .ra: .cfa -4 + ^ r4: .cfa -8 + ^
STACK CFI INIT 7b8c 18 .cfa: sp 0 + .ra: lr
STACK CFI INIT 7ba4 28 .cfa: sp 0 + .ra: lr
STACK CFI 7bac .cfa: sp 8 + .ra: .cfa -4 + ^ r4: .cfa -8 + ^
STACK CFI INIT 7bcc 18 .cfa: sp 0 + .ra: lr
STACK CFI INIT 7be4 18 .cfa: sp 0 + .ra: lr
STACK CFI INIT 7bfc 10 .cfa: sp 0 + .ra: lr
STACK CFI INIT 7c0c 10 .cfa: sp 0 + .ra: lr
STACK CFI INIT 7c1c 1c .cfa: sp 0 + .ra: lr
STACK CFI 7c20 .cfa: sp 8 + .ra: .cfa -4 + ^ r4: .cfa -8 + ^
STACK CFI INIT 7c38 1c .cfa: sp 0 + .ra: lr
STACK CFI 7c3c .cfa: sp 8 + .ra: .cfa -4 + ^ r4: .cfa -8 + ^
STACK CFI INIT 7c54 1c .cfa: sp 0 + .ra: lr
STACK CFI 7c58 .cfa: sp 8 + .ra: .cfa -4 + ^ r4: .cfa -8 + ^
STACK CFI INIT 7c70 1c .cfa: sp 0 + .ra: lr
STACK CFI 7c74 .cfa: sp 8 + .ra: .cfa -4 + ^ r4: .cfa -8 + ^
STACK CFI INIT 7c9c 144 .cfa: sp 0 + .ra: lr
STACK CFI 7ca0 .cfa: sp 20 + .ra: .cfa -4 + ^ r4: .cfa -20 + ^ r5: .cfa -16 + ^ r6: .cfa -12 + ^ r7: .cfa -8 + ^
STACK CFI 7cac .cfa: sp 32 +
STACK CFI INIT 7de0 b4 .cfa: sp 0 + .ra: lr
STACK CFI 7de4 .cfa: sp 8 + .ra: .cfa -4 + ^ r4: .cfa -8 + ^
STACK CFI INIT 7e94 b4 .cfa: sp 0 + .ra: lr
STACK CFI 7e98 .cfa: sp 8 + .ra: .cfa -4 + ^ r3: .cfa -8 + ^
STACK CFI INIT 7f48 34 .cfa: sp 0 + .ra: lr
STACK CFI 7f4c .cfa: sp 8 + .ra: .cfa -4 + ^ r3: .cfa -8 + ^
STACK CFI INIT 7f7c 18 .cfa: sp 0 + .ra: lr
STACK CFI 7f80 .cfa: sp 8 + .ra: .cfa -4 + ^ r3: .cfa -8 + ^
STACK CFI INIT 7f94 c .cfa: sp 0 + .ra: lr
STACK CFI 7f98 .cfa: sp 8 + .ra: .cfa -4 + ^ r3: .cfa -8 + ^
STACK CFI INIT 7fa0 18 .cfa: sp 0 + .ra: lr
STACK CFI 7fa4 .cfa: sp 8 + .ra: .cfa -4 + ^ r3: .cfa -8 + ^
STACK CFI INIT 7fb8 1c .cfa: sp 0 + .ra: lr
STACK CFI INIT 7fd4 1c .cfa: sp 0 + .ra: lr
STACK CFI INIT 7ff0 10 .cfa: sp 0 + .ra: lr
STACK CFI INIT 8000 10 .cfa: sp 0 + .ra: lr
STACK CFI INIT 8010 28 .cfa: sp 0 + .ra: lr
STACK CFI 8018 .cfa: sp 8 + .ra: .cfa -4 + ^ r4: .cfa -8 + ^
STACK CFI INIT 8038 28 .cfa: sp 0 + .ra: lr
STACK CFI 8040 .cfa: sp 8 + .ra: .cfa -4 + ^ r4: .cfa -8 + ^
STACK CFI INIT 8060 30 .cfa: sp 0 + .ra: lr
STACK CFI 8068 .cfa: sp 8 + .ra: .cfa -4 + ^ r4: .cfa -8 + ^
STACK CFI INIT 8090 30 .cfa: sp 0 + .ra: lr
STACK CFI 8098 .cfa: sp 8 + .ra: .cfa -4 + ^ r4: .cfa -8 + ^
STACK CFI INIT 80c0 3c .cfa: sp 0 + .ra: lr
STACK CFI 80c4 .cfa: sp 8 + .ra: .cfa -4 + ^ r3: .cfa -8 + ^
STACK CFI INIT 80fc 3c .cfa: sp 0 + .ra: lr
STACK CFI 8100 .cfa: sp 8 + .ra: .cfa -4 + ^ r3: .cfa -8 + ^
STACK CFI INIT 8138 e0 .cfa: sp 0 + .ra: lr
STACK CFI 813c .cfa: sp 16 + .ra: .cfa -4 + ^ r3: .cfa -16 + ^ r4: .cfa -12 + ^ r5: .cfa -8 + ^
STACK CFI INIT 8218 a0 .cfa: sp 0 + .ra: lr
STACK CFI 8220 .cfa: sp 8 + .ra: .cfa -4 + ^ r4: .cfa -8 + ^
STACK CFI INIT 82b8 dc .cfa: sp 0 + .ra: lr
STACK CFI 82bc .cfa: sp 8 + .ra: .cfa -4 + ^ r4: .cfa -8 + ^
STACK CFI INIT 8394 a8 .cfa: sp 0 + .ra: lr
STACK CFI 839c .cfa: sp 8 + .ra: .cfa -4 + ^ r4: .cfa -8 + ^
STACK CFI INIT 450c 18 .cfa: sp 0 + .ra: lr
STACK CFI INIT 843c 10 .cfa: sp 0 + .ra: lr
STACK CFI INIT 844c 1c .cfa: sp 0 + .ra: lr
STACK CFI INIT 8468 20 .cfa: sp 0 + .ra: lr
STACK CFI 8474 .cfa: sp 8 + .ra: .cfa -4 + ^ r3: .cfa -8 + ^
STACK CFI INIT 8488 20 .cfa: sp 0 + .ra: lr
STACK CFI 8494 .cfa: sp 8 + .ra: .cfa -4 + ^ r3: .cfa -8 + ^
STACK CFI INIT 84a8 18 .cfa: sp 0 + .ra: lr
STACK CFI INIT 84c0 8 .cfa: sp 0 + .ra: lr
STACK CFI INIT 84c8 8 .cfa: sp 0 + .ra: lr
STACK CFI INIT 84d0 8 .cfa: sp 0 + .ra: lr
STACK CFI INIT 84d8 28 .cfa: sp 0 + .ra: lr
STACK CFI 84e0 .cfa: sp 8 + .ra: .cfa -4 + ^ r4: .cfa -8 + ^
STACK CFI INIT 8500 4c .cfa: sp 0 + .ra: lr
STACK CFI 8508 .cfa: sp 8 + .ra: .cfa -4 + ^ r3: .cfa -8 + ^
STACK CFI INIT 854c 4 .cfa: sp 0 + .ra: lr
STACK CFI INIT 8550 1b4 .cfa: sp 0 + .ra: lr
STACK CFI 8558 .cfa: sp 20 + .ra: .cfa -4 + ^ r4: .cfa -20 + ^ r5: .cfa -16 + ^ r6: .cfa -12 + ^ r7: .cfa -8 + ^
STACK CFI 8564 .cfa: sp 32 +
STACK CFI INIT 8704 1d0 .cfa: sp 0 + .ra: lr
STACK CFI 870c .cfa: sp 12 + r4: .cfa -12 + ^ r5: .cfa -8 + ^ r6: .cfa -4 + ^
STACK CFI INIT 88d4 6c .cfa: sp 0 + .ra: lr
STACK CFI 88e0 .cfa: sp 12 + r4: .cfa -12 + ^ r5: .cfa -8 + ^ r6: .cfa -4 + ^
STACK CFI INIT 8940 13c .cfa: sp 0 + .ra: lr
STACK CFI 8944 .cfa: sp 32 + .ra: .cfa -4 + ^ r3: .cfa -32 + ^ r4: .cfa -28 + ^ r5: .cfa -24 + ^ r6: .cfa -20 + ^ r7: .cfa -16 + ^ r8: .cfa -12 + ^ r9: .cfa -8 + ^
STACK CFI INIT 8a7c 58 .cfa: sp 0 + .ra: lr
STACK CFI INIT 8ad4 f4 .cfa: sp 0 + .ra: lr
STACK CFI 8ad8 .cfa: sp 24 + .ra: .cfa -4 + ^ r4: .cfa -24 + ^ r5: .cfa -20 + ^ r6: .cfa -16 + ^ r7: .cfa -12 + ^ r8: .cfa -8 + ^
STACK CFI INIT 8bc8 244 .cfa: sp 0 + .ra: lr
STACK CFI 8bd0 .cfa: sp 24 + r4: .cfa -24 + ^ r5: .cfa -20 + ^ r6: .cfa -16 + ^ r7: .cfa -12 + ^ r8: .cfa -8 + ^ r9: .cfa -4 + ^
STACK CFI INIT 8e0c 5c .cfa: sp 0 + .ra: lr
STACK CFI 8e14 .cfa: sp 16 + .ra: .cfa -4 + ^ r4: .cfa -16 + ^ r5: .cfa -12 + ^ r6: .cfa -8 + ^
STACK CFI INIT 8e68 7c .cfa: sp 0 + .ra: lr
STACK CFI 8e70 .cfa: sp 8 + r4: .cfa -8 + ^ r5: .cfa -4 + ^
STACK CFI INIT 8ee4 60 .cfa: sp 0 + .ra: lr
STACK CFI 8ef0 .cfa: sp 8 + .ra: .cfa -4 + ^ r4: .cfa -8 + ^
STACK CFI INIT 8f44 54 .cfa: sp 0 + .ra: lr
STACK CFI 8f4c .cfa: sp 8 + .ra: .cfa -4 + ^ r4: .cfa -8 + ^
STACK CFI INIT 8f98 80 .cfa: sp 0 + .ra: lr
STACK CFI 8f9c .cfa: sp 16 + .ra: .cfa -4 + ^ r3: .cfa -16 + ^ r4: .cfa -12 + ^ r5: .cfa -8 + ^
STACK CFI INIT 9018 34 .cfa: sp 0 + .ra: lr
STACK CFI 901c .cfa: sp 8 + .ra: .cfa -4 + ^ r3: .cfa -8 + ^
STACK CFI INIT 904c f8 .cfa: sp 0 + .ra: lr
STACK CFI 9050 .cfa: sp 16 + .ra: .cfa -4 + ^ r4: .cfa -16 + ^ r5: .cfa -12 + ^ r6: .cfa -8 + ^
STACK CFI INIT 9144 9c .cfa: sp 0 + .ra: lr
STACK CFI 914c .cfa: sp 16 + .ra: .cfa -4 + ^ r3: .cfa -16 + ^ r4: .cfa -12 + ^ r5: .cfa -8 + ^
STACK CFI INIT 91e0 88 .cfa: sp 0 + .ra: lr
STACK CFI INIT 9268 19c .cfa: sp 0 + .ra: lr
STACK CFI 926c .cfa: sp 16 + .ra: .cfa -4 + ^ r3: .cfa -16 + ^ r4: .cfa -12 + ^ r5: .cfa -8 + ^
STACK CFI INIT 9404 cc .cfa: sp 0 + .ra: lr
STACK CFI 940c .cfa: sp 24 + .ra: .cfa -4 + ^ r4: .cfa -24 + ^ r5: .cfa -20 + ^ r6: .cfa -16 + ^ r7: .cfa -12 + ^ r8: .cfa -8 + ^
STACK CFI INIT 94d0 158 .cfa: sp 0 + .ra: lr
STACK CFI 94d4 .cfa: sp 24 + .ra: .cfa -4 + ^ r3: .cfa -24 + ^ r4: .cfa -20 + ^ r5: .cfa -16 + ^ r6: .cfa -12 + ^ r7: .cfa -8 + ^
STACK CFI INIT 9628 170 .cfa: sp 0 + .ra: lr
STACK CFI 9630 .cfa: sp 16 + .ra: .cfa -4 + ^ r4: .cfa -16 + ^ r5: .cfa -12 + ^ r6: .cfa -8 + ^
STACK CFI 9638 .cfa: sp 24 +
STACK CFI INIT 9798 4b0 .cfa: sp 0 + .ra: lr
STACK CFI 97a0 .cfa: sp 24 + .ra: .cfa -4 + ^ r4: .cfa -24 + ^ r5: .cfa -20 + ^ r6: .cfa -16 + ^ r7: .cfa -12 + ^ r8: .cfa -8 + ^
STACK CFI 97a8 .cfa: sp 32 +
STACK CFI INIT 9c48 b88 .cfa: sp 0 + .ra: lr
STACK CFI 9c50 .cfa: sp 20 + .ra: .cfa -4 + ^ r4: .cfa -20 + ^ r5: .cfa -16 + ^ r6: .cfa -12 + ^ r7: .cfa -8 + ^
STACK CFI 9c58 .cfa: sp 32 +
STACK CFI INIT a7d0 108 .cfa: sp 0 + .ra: lr
STACK CFI a7d8 .cfa: sp 12 + .ra: .cfa -4 + ^ r4: .cfa -12 + ^ r5: .cfa -8 + ^
STACK CFI a7e0 .cfa: sp 24 +
STACK CFI INIT a8d8 68 .cfa: sp 0 + .ra: lr
STACK CFI a8e0 .cfa: sp 16 + .ra: .cfa -4 + ^ r4: .cfa -16 + ^ r5: .cfa -12 + ^ r6: .cfa -8 + ^
STACK CFI INIT a940 874 .cfa: sp 0 + .ra: lr
STACK CFI a948 .cfa: sp 32 + .ra: .cfa -4 + ^ r10: .cfa -8 + ^ r4: .cfa -32 + ^ r5: .cfa -28 + ^ r6: .cfa -24 + ^ r7: .cfa -20 + ^ r8: .cfa -16 + ^ r9: .cfa -12 + ^
STACK CFI INIT b1b4 194 .cfa: sp 0 + .ra: lr
STACK CFI b1bc .cfa: sp 24 + .ra: .cfa -4 + ^ r4: .cfa -24 + ^ r5: .cfa -20 + ^ r6: .cfa -16 + ^ r7: .cfa -12 + ^ r8: .cfa -8 + ^
STACK CFI INIT b348 468 .cfa: sp 0 + .ra: lr
STACK CFI b350 .cfa: sp 24 + .ra: .cfa -4 + ^ r4: .cfa -24 + ^ r5: .cfa -20 + ^ r6: .cfa -16 + ^ r7: .cfa -12 + ^ r8: .cfa -8 + ^
STACK CFI INIT b7b0 61c .cfa: sp 0 + .ra: lr
STACK CFI b7b8 .cfa: sp 24 + .ra: .cfa -4 + ^ r4: .cfa -24 + ^ r5: .cfa -20 + ^ r6: .cfa -16 + ^ r7: .cfa -12 + ^ r8: .cfa -8 + ^
STACK CFI INIT bdcc ac .cfa: sp 0 + .ra: lr
STACK CFI bdd4 .cfa: sp 16 + .ra: .cfa -4 + ^ r4: .cfa -16 + ^ r5: .cfa -12 + ^ r6: .cfa -8 + ^
STACK CFI bde0 .cfa: sp 24 +
STACK CFI INIT be78 84 .cfa: sp 0 + .ra: lr
STACK CFI be7c .cfa: sp 24 + .ra: .cfa -4 + ^ r4: .cfa -24 + ^ r5: .cfa -20 + ^ r6: .cfa -16 + ^ r7: .cfa -12 + ^ r8: .cfa -8 + ^
STACK CFI INIT befc 3554 .cfa: sp 0 + .ra: lr
STACK CFI bf04 .cfa: sp 36 + .ra: .cfa -4 + ^ r10: .cfa -12 + ^ r11: .cfa -8 + ^ r4: .cfa -36 + ^ r5: .cfa -32 + ^ r6: .cfa -28 + ^ r7: .cfa -24 + ^ r8: .cfa -20 + ^ r9: .cfa -16 + ^
STACK CFI bf0c .cfa: sp 128 +
STACK CFI INIT f450 20 .cfa: sp 0 + .ra: lr
STACK CFI INIT f470 778 .cfa: sp 0 + .ra: lr
STACK CFI f478 .cfa: sp 32 + .ra: .cfa -4 + ^ r10: .cfa -8 + ^ r4: .cfa -32 + ^ r5: .cfa -28 + ^ r6: .cfa -24 + ^ r7: .cfa -20 + ^ r8: .cfa -16 + ^ r9: .cfa -12 + ^
STACK CFI INIT fbe8 398 .cfa: sp 0 + .ra: lr
STACK CFI fbec .cfa: sp 36 + .ra: .cfa -4 + ^ r10: .cfa -12 + ^ r11: .cfa -8 + ^ r4: .cfa -36 + ^ r5: .cfa -32 + ^ r6: .cfa -28 + ^ r7: .cfa -24 + ^ r8: .cfa -20 + ^ r9: .cfa -16 + ^
STACK CFI fbf4 .cfa: sp 72 +
STACK CFI INIT ff80 264 .cfa: sp 0 + .ra: lr
STACK CFI ff84 .cfa: sp 40 + .ra: .cfa -4 + ^ r10: .cfa -12 + ^ r11: .cfa -8 + ^ r3: .cfa -40 + ^ r4: .cfa -36 + ^ r5: .cfa -32 + ^ r6: .cfa -28 + ^ r7: .cfa -24 + ^ r8: .cfa -20 + ^ r9: .cfa -16 + ^
STACK CFI INIT 101e4 2d8 .cfa: sp 0 + .ra: lr
STACK CFI 101e8 .cfa: sp 32 + .ra: .cfa -4 + ^ r3: .cfa -32 + ^ r4: .cfa -28 + ^ r5: .cfa -24 + ^ r6: .cfa -20 + ^ r7: .cfa -16 + ^ r8: .cfa -12 + ^ r9: .cfa -8 + ^
STACK CFI INIT 104bc 238 .cfa: sp 0 + .ra: lr
STACK CFI 104c0 .cfa: sp 24 + .ra: .cfa -4 + ^ r4: .cfa -24 + ^ r5: .cfa -20 + ^ r6: .cfa -16 + ^ r7: .cfa -12 + ^ r8: .cfa -8 + ^
STACK CFI 104cc .cfa: sp 32 +
STACK CFI INIT 106f4 a4 .cfa: sp 0 + .ra: lr
STACK CFI 106fc .cfa: sp 32 + .ra: .cfa -4 + ^ r3: .cfa -32 + ^ r4: .cfa -28 + ^ r5: .cfa -24 + ^ r6: .cfa -20 + ^ r7: .cfa -16 + ^ r8: .cfa -12 + ^ r9: .cfa -8 + ^
STACK CFI INIT 10798 110 .cfa: sp 0 + .ra: lr
STACK CFI 1079c .cfa: sp 24 + .ra: .cfa -4 + ^ r3: .cfa -24 + ^ r4: .cfa -20 + ^ r5: .cfa -16 + ^ r6: .cfa -12 + ^ r7: .cfa -8 + ^
STACK CFI INIT 108a8 31c .cfa: sp 0 + .ra: lr
STACK CFI 108ac .cfa: sp 32 + .ra: .cfa -4 + ^ r11: .cfa -8 + ^ r4: .cfa -32 + ^ r5: .cfa -28 + ^ r6: .cfa -24 + ^ r7: .cfa -20 + ^ r8: .cfa -16 + ^ r9: .cfa -12 + ^
STACK CFI 108b0 .cfa: r11 4 +
STACK CFI INIT 10bc4 14c .cfa: sp 0 + .ra: lr
STACK CFI 10bcc .cfa: sp 24 + .ra: .cfa -4 + ^ r4: .cfa -24 + ^ r5: .cfa -20 + ^ r6: .cfa -16 + ^ r7: .cfa -12 + ^ r8: .cfa -8 + ^
STACK CFI 10bd4 .cfa: sp 40 +
STACK CFI INIT 10d10 2c .cfa: sp 0 + .ra: lr
STACK CFI 10d1c .cfa: sp 8 + .ra: .cfa -4 + ^ r3: .cfa -8 + ^
STACK CFI INIT 10d3c 2c .cfa: sp 0 + .ra: lr
STACK CFI 10d40 .cfa: sp 8 + .ra: .cfa -4 + ^ r3: .cfa -8 + ^
STACK CFI INIT 10d68 18 .cfa: sp 0 + .ra: lr
STACK CFI INIT 10d80 ac .cfa: sp 0 + .ra: lr
STACK CFI 10d84 .cfa: sp 48 + .ra: .cfa -4 + ^ r0: .cfa -48 + ^ r1: .cfa -44 + ^ r10: .cfa -12 + ^ r11: .cfa -8 + ^ r2: .cfa -40 + ^ r4: .cfa -36 + ^ r5: .cfa -32 + ^ r6: .cfa -28 + ^ r7: .cfa -24 + ^ r8: .cfa -20 + ^ r9: .cfa -16 + ^
STACK CFI INIT 10e2c 50 .cfa: sp 0 + .ra: lr
STACK CFI INIT 10e7c 10c .cfa: sp 0 + .ra: lr
STACK CFI 10e84 .cfa: sp 24 + .ra: .cfa -4 + ^ r0: .cfa -24 + ^ r1: .cfa -20 + ^ r2: .cfa -16 + ^ r4: .cfa -12 + ^ r5: .cfa -8 + ^
STACK CFI INIT 10f88 6c .cfa: sp 0 + .ra: lr
STACK CFI 10f90 .cfa: sp 8 + .ra: .cfa -4 + ^ r4: .cfa -8 + ^
STACK CFI INIT 10ff4 14 .cfa: sp 0 + .ra: lr
STACK CFI INIT 11008 8 .cfa: sp 0 + .ra: lr
STACK CFI INIT 11010 4 .cfa: sp 0 + .ra: lr
STACK CFI INIT 11014 64 .cfa: sp 0 + .ra: lr
STACK CFI 11018 .cfa: sp 16 + .ra: .cfa -4 + ^ r4: .cfa -16 + ^ r5: .cfa -12 + ^ r6: .cfa -8 + ^
STACK CFI INIT 11078 124 .cfa: sp 0 + .ra: lr
STACK CFI 1107c .cfa: sp 36 + .ra: .cfa -4 + ^ r10: .cfa -12 + ^ r11: .cfa -8 + ^ r4: .cfa -36 + ^ r5: .cfa -32 + ^ r6: .cfa -28 + ^ r7: .cfa -24 + ^ r8: .cfa -20 + ^ r9: .cfa -16 + ^
STACK CFI 11098 .cfa: sp 1008 +
STACK CFI INIT 1119c 8 .cfa: sp 0 + .ra: lr
STACK CFI INIT 111a4 a4 .cfa: sp 0 + .ra: lr
STACK CFI 111ac .cfa: sp 20 + .ra: .cfa -4 + ^ r4: .cfa -20 + ^ r5: .cfa -16 + ^ r6: .cfa -12 + ^ r7: .cfa -8 + ^
STACK CFI 111c0 .cfa: sp 504 +
STACK CFI INIT 11248 1c .cfa: sp 0 + .ra: lr
STACK CFI INIT 11264 74 .cfa: sp 0 + .ra: lr
STACK CFI 11268 .cfa: sp 16 + .ra: .cfa -4 + ^ r4: .cfa -16 + ^ r5: .cfa -12 + ^ r6: .cfa -8 + ^
STACK CFI INIT 112d8 20 .cfa: sp 0 + .ra: lr
STACK CFI INIT 112f8 4 .cfa: sp 0 + .ra: lr
STACK CFI INIT 112fc 20 .cfa: sp 0 + .ra: lr
STACK CFI 11300 .cfa: sp 8 + .ra: .cfa -4 + ^ r3: .cfa -8 + ^
STACK CFI INIT 1131c 5c .cfa: sp 0 + .ra: lr
STACK CFI INIT 11378 28 .cfa: sp 0 + .ra: lr
STACK CFI 1137c .cfa: sp 24 + .ra: .cfa -4 + ^ r0: .cfa -24 + ^ r1: .cfa -20 + ^ r2: .cfa -16 + ^ r3: .cfa -12 + ^ r4: .cfa -8 + ^
STACK CFI INIT 113a0 5c .cfa: sp 0 + .ra: lr
STACK CFI INIT 113fc 2c .cfa: sp 0 + .ra: lr
STACK CFI 11400 .cfa: sp 24 + .ra: .cfa -4 + ^ r0: .cfa -24 + ^ r1: .cfa -20 + ^ r2: .cfa -16 + ^ r3: .cfa -12 + ^ r4: .cfa -8 + ^
STACK CFI INIT 11428 c4 .cfa: sp 0 + .ra: lr
STACK CFI 11430 .cfa: sp 24 + .ra: .cfa -4 + ^ r4: .cfa -24 + ^ r5: .cfa -20 + ^ r6: .cfa -16 + ^ r7: .cfa -12 + ^ r8: .cfa -8 + ^
STACK CFI 11444 .cfa: sp 592 +
STACK CFI INIT 114ec 3f0 .cfa: sp 0 + .ra: lr
STACK CFI 114f0 .cfa: sp 36 + .ra: .cfa -4 + ^ r10: .cfa -12 + ^ r11: .cfa -8 + ^ r4: .cfa -36 + ^ r5: .cfa -32 + ^ r6: .cfa -28 + ^ r7: .cfa -24 + ^ r8: .cfa -20 + ^ r9: .cfa -16 + ^
STACK CFI 114fc .cfa: sp 72 +
STACK CFI INIT 118dc 8 .cfa: sp 0 + .ra: lr
STACK CFI INIT 118e4 8 .cfa: sp 0 + .ra: lr
STACK CFI INIT 118ec 8 .cfa: sp 0 + .ra: lr
STACK CFI INIT 118f4 34c .cfa: sp 0 + .ra: lr
STACK CFI 118f8 .cfa: sp 28 + .ra: .cfa -4 + ^ r4: .cfa -28 + ^ r5: .cfa -24 + ^ r6: .cfa -20 + ^ r7: .cfa -16 + ^ r8: .cfa -12 + ^ r9: .cfa -8 + ^
STACK CFI 11900 .cfa: sp 296 +
STACK CFI INIT 11de8 60 .cfa: sp 0 + .ra: lr
STACK CFI INIT 11e48 28 .cfa: sp 0 + .ra: lr
STACK CFI 11e4c .cfa: sp 24 + .ra: .cfa -4 + ^ r0: .cfa -24 + ^ r1: .cfa -20 + ^ r2: .cfa -16 + ^ r3: .cfa -12 + ^ r4: .cfa -8 + ^
STACK CFI INIT 11e70 4 .cfa: sp 0 + .ra: lr
STACK CFI INIT 11e74 37c .cfa: sp 0 + .ra: lr
STACK CFI 11e78 .cfa: sp 48 + .ra: .cfa -4 + ^ r0: .cfa -48 + ^ r1: .cfa -44 + ^ r10: .cfa -8 + ^ r2: .cfa -40 + ^ r3: .cfa -36 + ^ r4: .cfa -32 + ^ r5: .cfa -28 + ^ r6: .cfa -24 + ^ r7: .cfa -20 + ^ r8: .cfa -16 + ^ r9: .cfa -12 + ^
STACK CFI INIT 121f0 40 .cfa: sp 0 + .ra: lr
STACK CFI 121f4 .cfa: sp 24 + .ra: .cfa -4 + ^ r0: .cfa -24 + ^ r1: .cfa -20 + ^ r2: .cfa -16 + ^ r3: .cfa -12 + ^ r4: .cfa -8 + ^
STACK CFI INIT 12230 10 .cfa: sp 0 + .ra: lr
STACK CFI 12234 .cfa: sp 8 + .ra: .cfa -4 + ^ r3: .cfa -8 + ^
STACK CFI INIT 12240 1c .cfa: sp 0 + .ra: lr
STACK CFI 12244 .cfa: sp 8 + .ra: .cfa -4 + ^ r3: .cfa -8 + ^
STACK CFI INIT 1225c 8 .cfa: sp 0 + .ra: lr
STACK CFI 12260 .cfa: sp 8 + .ra: .cfa -4 + ^ r3: .cfa -8 + ^
STACK CFI INIT 12264 8 .cfa: sp 0 + .ra: lr
STACK CFI 12268 .cfa: sp 8 + .ra: .cfa -4 + ^ r3: .cfa -8 + ^
