MODULE Linux arm 66EA26907A990AC02BB4E51B44B2A4A10 lib_imagingmath.so
FUNC 2e5c 18 0 selfrel_offset31
FUNC 2e74 ac 0 search_EIT_table
FUNC 2f20 50 0 __gnu_unwind_get_pr_addr
FUNC 2f70 110 0 get_eit_entry
FUNC 3080 6c 0 restore_non_core_regs
FUNC 30ec 14 0 _Unwind_decode_typeinfo_ptr
FUNC 3100 8 0 __gnu_unwind_24bit
FUNC 3108 4 0 _Unwind_DebugHook
FUNC 310c 64 0 unwind_phase2
FUNC 3170 124 0 unwind_phase2_forced
FUNC 3294 8 0 _Unwind_GetCFA
FUNC 329c a4 0 __gnu_Unwind_RaiseException
FUNC 3340 1c 0 __gnu_Unwind_ForcedUnwind
FUNC 335c 74 0 __gnu_Unwind_Resume
FUNC 33d0 20 0 __gnu_Unwind_Resume_or_Rethrow
FUNC 33f0 4 0 _Unwind_Complete
FUNC 33f4 20 0 _Unwind_DeleteException
FUNC 3414 5c 0 _Unwind_VRS_Get
FUNC 3470 28 0 _Unwind_GetGR
FUNC 3498 5c 0 _Unwind_VRS_Set
FUNC 34f4 2c 0 _Unwind_SetGR
FUNC 3520 c4 0 __gnu_Unwind_Backtrace
FUNC 35e4 3f4 0 __gnu_unwind_pr_common
FUNC 39d8 8 0 __aeabi_unwind_cpp_pr0
FUNC 39e0 8 0 __aeabi_unwind_cpp_pr1
FUNC 39e8 8 0 __aeabi_unwind_cpp_pr2
FUNC 39f0 358 0 _Unwind_VRS_Pop
FUNC 3ef0 60 0 next_unwind_byte
FUNC 3f50 28 0 _Unwind_GetGR
FUNC 3f78 4 0 unwind_UCB_from_context
FUNC 3f7c 37c 0 __gnu_unwind_execute
FUNC 42f8 40 0 __gnu_unwind_frame
FUNC 4338 10 0 _Unwind_GetRegionStart
FUNC 4348 1c 0 _Unwind_GetLanguageSpecificData
FUNC 4364 8 0 _Unwind_GetDataRelBase
FUNC 436c 8 0 _Unwind_GetTextRelBase
PUBLIC 1550 0 abs_I
PUBLIC 15a8 0 neg_I
PUBLIC 15f8 0 add_I
PUBLIC 1660 0 sub_I
PUBLIC 16c8 0 mul_I
PUBLIC 1730 0 div_I
PUBLIC 17bc 0 mod_I
PUBLIC 1844 0 diff_I
PUBLIC 18b4 0 invert_I
PUBLIC 1904 0 and_I
PUBLIC 196c 0 or_I
PUBLIC 19d4 0 xor_I
PUBLIC 1a3c 0 lshift_I
PUBLIC 1aa4 0 rshift_I
PUBLIC 1b0c 0 min_I
PUBLIC 1b78 0 max_I
PUBLIC 1be4 0 eq_I
PUBLIC 1c54 0 ne_I
PUBLIC 1cc0 0 lt_I
PUBLIC 1d30 0 le_I
PUBLIC 1da0 0 gt_I
PUBLIC 1e10 0 ge_I
PUBLIC 1e80 0 abs_F
PUBLIC 1ed0 0 neg_F
PUBLIC 1f20 0 add_F
PUBLIC 1f80 0 sub_F
PUBLIC 1fe0 0 mul_F
PUBLIC 2040 0 div_F
PUBLIC 20b8 0 diff_F
PUBLIC 211c 0 min_F
PUBLIC 2184 0 max_F
PUBLIC 21ec 0 eq_F
PUBLIC 2264 0 ne_F
PUBLIC 22dc 0 lt_F
PUBLIC 2354 0 le_F
PUBLIC 23cc 0 gt_F
PUBLIC 2444 0 ge_F
PUBLIC 24bc 0 pow_I
PUBLIC 25c0 0 mod_F
PUBLIC 2664 0 pow_F
PUBLIC 2804 0 init_imagingmath
PUBLIC 2d50 0 __aeabi_idiv
PUBLIC 2e2c 0 __aeabi_idivmod
PUBLIC 2e4c 0 __aeabi_idiv0
PUBLIC 3294 0 _Unwind_GetCFA
PUBLIC 329c 0 __gnu_Unwind_RaiseException
PUBLIC 3340 0 __gnu_Unwind_ForcedUnwind
PUBLIC 335c 0 __gnu_Unwind_Resume
PUBLIC 33d0 0 __gnu_Unwind_Resume_or_Rethrow
PUBLIC 33f0 0 _Unwind_Complete
PUBLIC 33f4 0 _Unwind_DeleteException
PUBLIC 3414 0 _Unwind_VRS_Get
PUBLIC 3498 0 _Unwind_VRS_Set
PUBLIC 3520 0 __gnu_Unwind_Backtrace
PUBLIC 39d8 0 __aeabi_unwind_cpp_pr0
PUBLIC 39e0 0 __aeabi_unwind_cpp_pr1
PUBLIC 39e8 0 __aeabi_unwind_cpp_pr2
PUBLIC 39f0 0 _Unwind_VRS_Pop
PUBLIC 3d48 0 restore_core_regs
PUBLIC 3d5c 0 __gnu_Unwind_Restore_VFP
PUBLIC 3d64 0 __gnu_Unwind_Save_VFP
PUBLIC 3d6c 0 __gnu_Unwind_Restore_VFP_D
PUBLIC 3d74 0 __gnu_Unwind_Save_VFP_D
PUBLIC 3d7c 0 __gnu_Unwind_Restore_VFP_D_16_to_31
PUBLIC 3d84 0 __gnu_Unwind_Save_VFP_D_16_to_31
PUBLIC 3d8c 0 __gnu_Unwind_Restore_WMMXD
PUBLIC 3dd0 0 __gnu_Unwind_Save_WMMXD
PUBLIC 3e14 0 __gnu_Unwind_Restore_WMMXC
PUBLIC 3e28 0 __gnu_Unwind_Save_WMMXC
PUBLIC 3e3c 0 ___Unwind_RaiseException
PUBLIC 3e60 0 ___Unwind_Resume
PUBLIC 3e84 0 ___Unwind_Resume_or_Rethrow
PUBLIC 3ea8 0 ___Unwind_ForcedUnwind
PUBLIC 3ecc 0 ___Unwind_Backtrace
PUBLIC 3f7c 0 __gnu_unwind_execute
PUBLIC 42f8 0 __gnu_unwind_frame
PUBLIC 4338 0 _Unwind_GetRegionStart
PUBLIC 4348 0 _Unwind_GetLanguageSpecificData
PUBLIC 4364 0 _Unwind_GetDataRelBase
PUBLIC 436c 0 _Unwind_GetTextRelBase
STACK CFI INIT 2d50 dc .cfa: sp 0 + .ra: lr
STACK CFI INIT 2e5c 18 .cfa: sp 0 + .ra: lr
STACK CFI INIT 2e74 ac .cfa: sp 0 + .ra: lr
STACK CFI 2e78 .cfa: sp 48 + .ra: .cfa -4 + ^ r0: .cfa -48 + ^ r1: .cfa -44 + ^ r10: .cfa -12 + ^ r11: .cfa -8 + ^ r2: .cfa -40 + ^ r4: .cfa -36 + ^ r5: .cfa -32 + ^ r6: .cfa -28 + ^ r7: .cfa -24 + ^ r8: .cfa -20 + ^ r9: .cfa -16 + ^
STACK CFI INIT 2f20 50 .cfa: sp 0 + .ra: lr
STACK CFI INIT 2f70 110 .cfa: sp 0 + .ra: lr
STACK CFI 2f78 .cfa: sp 24 + .ra: .cfa -4 + ^ r0: .cfa -24 + ^ r1: .cfa -20 + ^ r2: .cfa -16 + ^ r4: .cfa -12 + ^ r5: .cfa -8 + ^
STACK CFI INIT 3080 6c .cfa: sp 0 + .ra: lr
STACK CFI 3088 .cfa: sp 8 + .ra: .cfa -4 + ^ r4: .cfa -8 + ^
STACK CFI INIT 30ec 14 .cfa: sp 0 + .ra: lr
STACK CFI INIT 3100 8 .cfa: sp 0 + .ra: lr
STACK CFI INIT 3108 4 .cfa: sp 0 + .ra: lr
STACK CFI INIT 310c 64 .cfa: sp 0 + .ra: lr
STACK CFI 3110 .cfa: sp 16 + .ra: .cfa -4 + ^ r4: .cfa -16 + ^ r5: .cfa -12 + ^ r6: .cfa -8 + ^
STACK CFI INIT 3170 124 .cfa: sp 0 + .ra: lr
STACK CFI 3174 .cfa: sp 36 + .ra: .cfa -4 + ^ r10: .cfa -12 + ^ r11: .cfa -8 + ^ r4: .cfa -36 + ^ r5: .cfa -32 + ^ r6: .cfa -28 + ^ r7: .cfa -24 + ^ r8: .cfa -20 + ^ r9: .cfa -16 + ^
STACK CFI 3190 .cfa: sp 1008 +
STACK CFI INIT 3294 8 .cfa: sp 0 + .ra: lr
STACK CFI INIT 329c a4 .cfa: sp 0 + .ra: lr
STACK CFI 32a0 .cfa: sp 20 + .ra: .cfa -4 + ^ r4: .cfa -20 + ^ r5: .cfa -16 + ^ r6: .cfa -12 + ^ r7: .cfa -8 + ^
STACK CFI 32bc .cfa: sp 504 +
STACK CFI INIT 3340 1c .cfa: sp 0 + .ra: lr
STACK CFI INIT 335c 74 .cfa: sp 0 + .ra: lr
STACK CFI 3360 .cfa: sp 16 + .ra: .cfa -4 + ^ r4: .cfa -16 + ^ r5: .cfa -12 + ^ r6: .cfa -8 + ^
STACK CFI INIT 33d0 20 .cfa: sp 0 + .ra: lr
STACK CFI INIT 33f0 4 .cfa: sp 0 + .ra: lr
STACK CFI INIT 33f4 20 .cfa: sp 0 + .ra: lr
STACK CFI 33f8 .cfa: sp 8 + .ra: .cfa -4 + ^ r3: .cfa -8 + ^
STACK CFI INIT 3414 5c .cfa: sp 0 + .ra: lr
STACK CFI INIT 3470 28 .cfa: sp 0 + .ra: lr
STACK CFI 3474 .cfa: sp 24 + .ra: .cfa -4 + ^ r0: .cfa -24 + ^ r1: .cfa -20 + ^ r2: .cfa -16 + ^ r3: .cfa -12 + ^ r4: .cfa -8 + ^
STACK CFI INIT 3498 5c .cfa: sp 0 + .ra: lr
STACK CFI INIT 34f4 2c .cfa: sp 0 + .ra: lr
STACK CFI 34f8 .cfa: sp 24 + .ra: .cfa -4 + ^ r0: .cfa -24 + ^ r1: .cfa -20 + ^ r2: .cfa -16 + ^ r3: .cfa -12 + ^ r4: .cfa -8 + ^
STACK CFI INIT 3520 c4 .cfa: sp 0 + .ra: lr
STACK CFI 3524 .cfa: sp 24 + .ra: .cfa -4 + ^ r4: .cfa -24 + ^ r5: .cfa -20 + ^ r6: .cfa -16 + ^ r7: .cfa -12 + ^ r8: .cfa -8 + ^
STACK CFI 3540 .cfa: sp 592 +
STACK CFI INIT 35e4 3f4 .cfa: sp 0 + .ra: lr
STACK CFI 35e8 .cfa: sp 36 + .ra: .cfa -4 + ^ r10: .cfa -12 + ^ r11: .cfa -8 + ^ r4: .cfa -36 + ^ r5: .cfa -32 + ^ r6: .cfa -28 + ^ r7: .cfa -24 + ^ r8: .cfa -20 + ^ r9: .cfa -16 + ^
STACK CFI 35f4 .cfa: sp 72 +
STACK CFI INIT 39d8 8 .cfa: sp 0 + .ra: lr
STACK CFI INIT 39e0 8 .cfa: sp 0 + .ra: lr
STACK CFI INIT 39e8 8 .cfa: sp 0 + .ra: lr
STACK CFI INIT 39f0 358 .cfa: sp 0 + .ra: lr
STACK CFI 39f4 .cfa: sp 28 + .ra: .cfa -4 + ^ r4: .cfa -28 + ^ r5: .cfa -24 + ^ r6: .cfa -20 + ^ r7: .cfa -16 + ^ r8: .cfa -12 + ^ r9: .cfa -8 + ^
STACK CFI 39fc .cfa: sp 296 +
STACK CFI INIT 3ef0 60 .cfa: sp 0 + .ra: lr
STACK CFI INIT 3f50 28 .cfa: sp 0 + .ra: lr
STACK CFI 3f54 .cfa: sp 24 + .ra: .cfa -4 + ^ r0: .cfa -24 + ^ r1: .cfa -20 + ^ r2: .cfa -16 + ^ r3: .cfa -12 + ^ r4: .cfa -8 + ^
STACK CFI INIT 3f78 4 .cfa: sp 0 + .ra: lr
STACK CFI INIT 3f7c 37c .cfa: sp 0 + .ra: lr
STACK CFI 3f80 .cfa: sp 48 + .ra: .cfa -4 + ^ r0: .cfa -48 + ^ r1: .cfa -44 + ^ r10: .cfa -8 + ^ r2: .cfa -40 + ^ r3: .cfa -36 + ^ r4: .cfa -32 + ^ r5: .cfa -28 + ^ r6: .cfa -24 + ^ r7: .cfa -20 + ^ r8: .cfa -16 + ^ r9: .cfa -12 + ^
STACK CFI INIT 42f8 40 .cfa: sp 0 + .ra: lr
STACK CFI 42fc .cfa: sp 24 + .ra: .cfa -4 + ^ r0: .cfa -24 + ^ r1: .cfa -20 + ^ r2: .cfa -16 + ^ r3: .cfa -12 + ^ r4: .cfa -8 + ^
STACK CFI INIT 4338 10 .cfa: sp 0 + .ra: lr
STACK CFI 433c .cfa: sp 8 + .ra: .cfa -4 + ^ r3: .cfa -8 + ^
STACK CFI INIT 4348 1c .cfa: sp 0 + .ra: lr
STACK CFI 434c .cfa: sp 8 + .ra: .cfa -4 + ^ r3: .cfa -8 + ^
STACK CFI INIT 4364 8 .cfa: sp 0 + .ra: lr
STACK CFI 4368 .cfa: sp 8 + .ra: .cfa -4 + ^ r3: .cfa -8 + ^
STACK CFI INIT 436c 8 .cfa: sp 0 + .ra: lr
STACK CFI 4370 .cfa: sp 8 + .ra: .cfa -4 + ^ r3: .cfa -8 + ^
