MODULE Linux arm 4B4DA4F87742125F7AA555D32E1523ED0 librtmp.so
FUNC 13d66c 3c 0 __gnu_ldivmod_helper
FUNC 13d6a8 3c 0 __gnu_uldivmod_helper
FUNC 13d6e4 18 0 selfrel_offset31
FUNC 13d6fc ac 0 search_EIT_table
FUNC 13d7a8 50 0 __gnu_unwind_get_pr_addr
FUNC 13d7f8 110 0 get_eit_entry
FUNC 13d908 6c 0 restore_non_core_regs
FUNC 13d974 14 0 _Unwind_decode_typeinfo_ptr
FUNC 13d988 8 0 __gnu_unwind_24bit
FUNC 13d990 4 0 _Unwind_DebugHook
FUNC 13d994 64 0 unwind_phase2
FUNC 13d9f8 124 0 unwind_phase2_forced
FUNC 13db1c 8 0 _Unwind_GetCFA
FUNC 13db24 a4 0 __gnu_Unwind_RaiseException
FUNC 13dbc8 1c 0 __gnu_Unwind_ForcedUnwind
FUNC 13dbe4 74 0 __gnu_Unwind_Resume
FUNC 13dc58 20 0 __gnu_Unwind_Resume_or_Rethrow
FUNC 13dc78 4 0 _Unwind_Complete
FUNC 13dc7c 20 0 _Unwind_DeleteException
FUNC 13dc9c 5c 0 _Unwind_VRS_Get
FUNC 13dcf8 28 0 _Unwind_GetGR
FUNC 13dd20 5c 0 _Unwind_VRS_Set
FUNC 13dd7c 2c 0 _Unwind_SetGR
FUNC 13dda8 c4 0 __gnu_Unwind_Backtrace
FUNC 13de6c 3f4 0 __gnu_unwind_pr_common
FUNC 13e260 8 0 __aeabi_unwind_cpp_pr0
FUNC 13e268 8 0 __aeabi_unwind_cpp_pr1
FUNC 13e270 8 0 __aeabi_unwind_cpp_pr2
FUNC 13e278 358 0 _Unwind_VRS_Pop
FUNC 13e778 60 0 next_unwind_byte
FUNC 13e7d8 28 0 _Unwind_GetGR
FUNC 13e800 4 0 unwind_UCB_from_context
FUNC 13e804 37c 0 __gnu_unwind_execute
FUNC 13eb80 40 0 __gnu_unwind_frame
FUNC 13ebc0 10 0 _Unwind_GetRegionStart
FUNC 13ebd0 1c 0 _Unwind_GetLanguageSpecificData
FUNC 13ebec 8 0 _Unwind_GetDataRelBase
FUNC 13ebf4 8 0 _Unwind_GetTextRelBase
FUNC 13ebfc 498 0 __divdi3
FUNC 13f094 404 0 __udivdi3
PUBLIC 3c6b8 0 RTMP_GetTime
PUBLIC 3c710 0 RTMP_UserInterrupt
PUBLIC 3c728 0 RTMPPacket_Reset
PUBLIC 3c750 0 RTMPPacket_Alloc
PUBLIC 3c780 0 RTMPPacket_Free
PUBLIC 3c7a8 0 RTMPPacket_Dump
PUBLIC 3c7fc 0 RTMP_LibVersion
PUBLIC 3c808 0 RTMP_TLS_Init
PUBLIC 3c850 0 RTMP_TLS_AllocServerContext
PUBLIC 3c8d4 0 RTMP_TLS_FreeServerContext
PUBLIC 3c8d8 0 RTMP_Alloc
PUBLIC 3c8e4 0 RTMP_Free
PUBLIC 3c8e8 0 RTMP_Init
PUBLIC 3c98c 0 RTMP_EnableWrite
PUBLIC 3c9a0 0 RTMP_GetDuration
PUBLIC 3c9a8 0 RTMP_IsConnected
PUBLIC 3c9b8 0 RTMP_Socket
PUBLIC 3c9c0 0 RTMP_IsTimedout
PUBLIC 3c9cc 0 RTMP_SetBufferMS
PUBLIC 3c9d4 0 RTMP_SetupStream
PUBLIC 3cf60 0 RTMP_SetOpt
PUBLIC 3d3d0 0 RTMP_SetupURL
PUBLIC 3d78c 0 RTMP_TLS_Accept
PUBLIC 3d7f4 0 RTMP_DropRequest
PUBLIC 3d80c 0 RTMP_FindFirstMatchingProperty
PUBLIC 3d8f8 0 RTMP_FindPrefixProperty
PUBLIC 3db4c 0 RTMPSockBuf_Fill
PUBLIC 3de68 0 RTMPSockBuf_Send
PUBLIC 3df5c 0 RTMPSockBuf_Close
PUBLIC 3e2a8 0 RTMP_Close
PUBLIC 3e434 0 RTMP_SendChunk
PUBLIC 3e528 0 RTMP_SendPacket
PUBLIC 3f140 0 RTMP_DeleteStream
PUBLIC 3f314 0 RTMP_SendCreateStream
PUBLIC 3f3bc 0 RTMP_SendPause
PUBLIC 3f4bc 0 RTMP_ToggleStream
PUBLIC 3f538 0 RTMP_Pause
PUBLIC 3f568 0 RTMP_SendSeek
PUBLIC 3f63c 0 RTMP_SendServerBW
PUBLIC 3f6a4 0 RTMP_SendClientBW
PUBLIC 3f718 0 RTMP_SendCtrl
PUBLIC 3f8ac 0 RTMP_UpdateBufferMS
PUBLIC 40708 0 RTMP_ReadPacket
PUBLIC 418e0 0 RTMP_Serve
PUBLIC 418e4 0 RTMP_Connect0
PUBLIC 41ba4 0 RTMP_Connect1
PUBLIC 41d74 0 RTMP_Connect
PUBLIC 44584 0 RTMP_ClientPacket
PUBLIC 44e94 0 RTMP_ConnectStream
PUBLIC 44f94 0 RTMP_ReconnectStream
PUBLIC 44fbc 0 RTMP_GetNextMediaPacket
PUBLIC 458a0 0 RTMP_Read
PUBLIC 45b60 0 RTMP_Write
PUBLIC 45edc 0 RTMP_LogSetOutput
PUBLIC 45ef0 0 RTMP_LogSetLevel
PUBLIC 45f04 0 RTMP_LogSetCallback
PUBLIC 45f18 0 RTMP_LogGetLevel
PUBLIC 45f2c 0 RTMP_Log
PUBLIC 45f6c 0 RTMP_LogHex
PUBLIC 46064 0 RTMP_LogHexString
PUBLIC 461f0 0 RTMP_LogPrintf
PUBLIC 46310 0 RTMP_LogStatus
PUBLIC 463e0 0 AMF_DecodeInt16
PUBLIC 463f0 0 AMF_DecodeInt24
PUBLIC 4640c 0 AMF_DecodeInt32
PUBLIC 46430 0 AMF_DecodeString
PUBLIC 46454 0 AMF_DecodeLongString
PUBLIC 4647c 0 AMF_DecodeNumber
PUBLIC 464d4 0 AMF_DecodeBoolean
PUBLIC 464e4 0 AMF_EncodeInt16
PUBLIC 46504 0 AMF_EncodeInt24
PUBLIC 4652c 0 AMF_EncodeInt32
PUBLIC 46564 0 AMF_EncodeString
PUBLIC 46604 0 AMF_EncodeNumber
PUBLIC 46684 0 AMF_EncodeBoolean
PUBLIC 466b4 0 AMF_EncodeNamedString
PUBLIC 46718 0 AMF_EncodeNamedNumber
PUBLIC 46780 0 AMF_EncodeNamedBoolean
PUBLIC 467e4 0 AMFProp_GetName
PUBLIC 467f4 0 AMFProp_SetName
PUBLIC 46804 0 AMFProp_GetType
PUBLIC 4680c 0 AMFProp_GetNumber
PUBLIC 46814 0 AMFProp_GetBoolean
PUBLIC 4682c 0 AMFProp_GetString
PUBLIC 46840 0 AMFProp_GetObject
PUBLIC 46854 0 AMFProp_IsValid
PUBLIC 46864 0 AMF3ReadInteger
PUBLIC 468c4 0 AMF3ReadString
PUBLIC 4697c 0 AMF_EncodeArray
PUBLIC 46a20 0 AMFProp_Encode
PUBLIC 46ba4 0 AMF_Encode
PUBLIC 46c54 0 AMF_EncodeEcmaArray
PUBLIC 46d0c 0 AMF_AddProp
PUBLIC 46d98 0 AMF_CountProp
PUBLIC 46da0 0 AMF_GetProp
PUBLIC 46e5c 0 AMF_Dump
PUBLIC 46ebc 0 AMFProp_Dump
PUBLIC 4713c 0 AMF_Reset
PUBLIC 47188 0 AMFProp_Reset
PUBLIC 471cc 0 AMF3CD_AddProp
PUBLIC 47220 0 AMF3CD_GetProp
PUBLIC 4724c 0 AMF3_Decode
PUBLIC 475a8 0 AMF3Prop_Decode
PUBLIC 477f4 0 AMFProp_Decode
PUBLIC 47bd8 0 AMF_DecodeArray
PUBLIC 47c70 0 AMF_Decode
PUBLIC 47e84 0 HTTP_get
PUBLIC 484c4 0 RTMP_HashSWF
PUBLIC 490a0 0 RTMP_ParsePlaypath
PUBLIC 49304 0 RTMP_ParseURL
PUBLIC 497d8 0 SSLv23_method
PUBLIC 49844 0 SSLv23_server_method
PUBLIC 49854 0 ssl23_get_client_hello
PUBLIC 4a130 0 ssl23_accept
PUBLIC 4a3a8 0 SSLv23_client_method
PUBLIC 4a3b8 0 ssl_fill_hello_random
PUBLIC 4a434 0 ssl23_connect
PUBLIC 4b26c 0 ssl23_default_timeout
PUBLIC 4b274 0 ssl23_num_ciphers
PUBLIC 4b28c 0 ssl23_get_cipher
PUBLIC 4b2b8 0 ssl23_get_cipher_by_char
PUBLIC 4b2d8 0 ssl23_put_cipher_by_char
PUBLIC 4b33c 0 ssl23_read
PUBLIC 4b3ec 0 ssl23_peek
PUBLIC 4b49c 0 ssl23_write
PUBLIC 4b54c 0 ssl23_write_bytes
PUBLIC 4b5b4 0 ssl23_read_bytes
PUBLIC 4b61c 0 TLSv1_2_method
PUBLIC 4b62c 0 TLSv1_1_method
PUBLIC 4b640 0 TLSv1_method
PUBLIC 4b698 0 TLSv1_2_server_method
PUBLIC 4b6a8 0 TLSv1_1_server_method
PUBLIC 4b6bc 0 TLSv1_server_method
PUBLIC 4b714 0 TLSv1_2_client_method
PUBLIC 4b724 0 TLSv1_1_client_method
PUBLIC 4b738 0 TLSv1_client_method
PUBLIC 4ba14 0 tls1_default_timeout
PUBLIC 4ba20 0 tls1_new
PUBLIC 4ba4c 0 tls1_free
PUBLIC 4ba70 0 tls1_clear
PUBLIC 4ba8c 0 tls1_ec_curve_id2nid
PUBLIC 4bab4 0 tls1_ec_nid2curve_id
PUBLIC 4bccc 0 tls12_get_req_sig_algs
PUBLIC 4bcf8 0 ssl_add_clienthello_tlsext
PUBLIC 4c7cc 0 ssl_add_serverhello_tlsext
PUBLIC 4ccb0 0 ssl_parse_serverhello_tlsext
PUBLIC 4d248 0 ssl_prepare_clienthello_tlsext
PUBLIC 4d3d0 0 ssl_prepare_serverhello_tlsext
PUBLIC 4d4b0 0 ssl_check_clienthello_tlsext_early
PUBLIC 4d590 0 ssl_check_clienthello_tlsext_late
PUBLIC 4d648 0 ssl_check_serverhello_tlsext
PUBLIC 4d850 0 tls1_process_ticket
PUBLIC 4d9d4 0 tls12_get_sigid
PUBLIC 4da20 0 tls12_get_sigandhash
PUBLIC 4daf4 0 tls12_get_hash
PUBLIC 4db34 0 tls1_process_sigalgs
PUBLIC 4dc68 0 ssl_parse_clienthello_tlsext
PUBLIC 4e740 0 tls1_process_heartbeat
PUBLIC 4e8b8 0 tls1_heartbeat
PUBLIC 4f0e4 0 tls1_change_cipher_state
PUBLIC 4f824 0 tls1_setup_key_block
PUBLIC 4fa6c 0 tls1_enc
PUBLIC 4ffb4 0 tls1_cert_verify_mac
PUBLIC 500a8 0 tls1_final_finish_mac
PUBLIC 50494 0 tls1_mac
PUBLIC 507d8 0 tls1_generate_master_secret
PUBLIC 50a88 0 tls1_export_keying_material
PUBLIC 50d14 0 tls1_alert_code
PUBLIC 50ec4 0 SSL_CTX_set_tlsext_use_srtp
PUBLIC 50ed4 0 SSL_set_tlsext_use_srtp
PUBLIC 50ee4 0 SSL_get_srtp_profiles
PUBLIC 50f10 0 SSL_get_selected_srtp_profile
PUBLIC 50f18 0 ssl_add_clienthello_use_srtp_ext
PUBLIC 51050 0 ssl_parse_clienthello_use_srtp_ext
PUBLIC 511d8 0 ssl_add_serverhello_use_srtp_ext
PUBLIC 512ac 0 ssl_parse_serverhello_use_srtp_ext
PUBLIC 5149c 0 ssl_undefined_function
PUBLIC 5150c 0 SSL_CTX_set_ssl_version
PUBLIC 515a8 0 SSL_CTX_set_session_id_context
PUBLIC 51608 0 SSL_set_session_id_context
PUBLIC 51664 0 SSL_CTX_set_generate_session_id
PUBLIC 516b8 0 SSL_set_generate_session_id
PUBLIC 5170c 0 SSL_has_matching_session_id
PUBLIC 517d8 0 SSL_CTX_set_purpose
PUBLIC 517e0 0 SSL_set_purpose
PUBLIC 517e8 0 SSL_CTX_set_trust
PUBLIC 517f0 0 SSL_set_trust
PUBLIC 517f8 0 SSL_CTX_set1_param
PUBLIC 51800 0 SSL_set1_param
PUBLIC 51808 0 SSL_set_bio
PUBLIC 51884 0 SSL_get_rbio
PUBLIC 5188c 0 SSL_get_wbio
PUBLIC 51894 0 SSL_get_rfd
PUBLIC 518d4 0 SSL_get_fd
PUBLIC 518d8 0 SSL_get_wfd
PUBLIC 51918 0 SSL_set_fd
PUBLIC 51998 0 SSL_set_wfd
PUBLIC 51a88 0 SSL_set_rfd
PUBLIC 51b5c 0 SSL_get_finished
PUBLIC 51b98 0 SSL_get_peer_finished
PUBLIC 51bd4 0 SSL_get_verify_mode
PUBLIC 51bdc 0 SSL_get_verify_depth
PUBLIC 51be4 0 SSL_get_verify_callback
PUBLIC 51bec 0 SSL_CTX_get_verify_mode
PUBLIC 51bf4 0 SSL_CTX_get_verify_depth
PUBLIC 51bfc 0 SSL_CTX_get_verify_callback
PUBLIC 51c04 0 SSL_set_verify
PUBLIC 51c14 0 SSL_set_verify_depth
PUBLIC 51c1c 0 SSL_set_read_ahead
PUBLIC 51c24 0 SSL_get_read_ahead
PUBLIC 51c2c 0 SSL_pending
PUBLIC 51c40 0 SSL_get_peer_certificate
PUBLIC 51ca4 0 SSL_get_peer_cert_chain
PUBLIC 51cc8 0 SSL_copy_session_id
PUBLIC 51d84 0 SSL_CTX_check_private_key
PUBLIC 51e24 0 SSL_check_private_key
PUBLIC 51f1c 0 SSL_get_default_timeout
PUBLIC 51f30 0 SSL_read
PUBLIC 51fa8 0 SSL_peek
PUBLIC 52018 0 SSL_write
PUBLIC 520b0 0 SSL_renegotiate
PUBLIC 520dc 0 SSL_renegotiate_abbreviated
PUBLIC 52108 0 SSL_renegotiate_pending
PUBLIC 52118 0 SSL_callback_ctrl
PUBLIC 52144 0 SSL_CTX_sessions
PUBLIC 5214c 0 SSL_CTX_ctrl
PUBLIC 523ac 0 SSL_CTX_callback_ctrl
PUBLIC 523d8 0 ssl_cipher_id_cmp
PUBLIC 523fc 0 ssl_cipher_ptr_id_cmp
PUBLIC 52424 0 SSL_get_ciphers
PUBLIC 52450 0 ssl_get_ciphers_by_id
PUBLIC 5247c 0 SSL_get_cipher_list
PUBLIC 524c8 0 SSL_CTX_set_cipher_list
PUBLIC 52548 0 SSL_set_cipher_list
PUBLIC 525c8 0 SSL_get_shared_ciphers
PUBLIC 526a0 0 ssl_cipher_list_to_bytes
PUBLIC 527f0 0 SSL_get_servername
PUBLIC 52820 0 SSL_get_servername_type
PUBLIC 5285c 0 SSL_select_next_proto
PUBLIC 52944 0 SSL_get0_next_proto_negotiated
PUBLIC 5295c 0 SSL_CTX_set_next_protos_advertised_cb
PUBLIC 52968 0 SSL_CTX_set_next_proto_select_cb
PUBLIC 52974 0 SSL_export_keying_material
PUBLIC 529c8 0 SSL_CTX_free
PUBLIC 52b88 0 SSL_CTX_new
PUBLIC 5303c 0 SSL_CTX_set_default_passwd_cb
PUBLIC 53044 0 SSL_CTX_set_default_passwd_cb_userdata
PUBLIC 5304c 0 SSL_CTX_set_cert_verify_callback
PUBLIC 53058 0 SSL_CTX_set_verify
PUBLIC 53064 0 SSL_CTX_set_verify_depth
PUBLIC 5306c 0 ssl_set_cert_masks
PUBLIC 534d0 0 ssl_check_srvr_ecc_cert_and_alg
PUBLIC 536f4 0 ssl_get_server_send_pkey
PUBLIC 537ec 0 ssl_get_server_send_cert
PUBLIC 53800 0 ssl_get_sign_pkey
PUBLIC 538c0 0 ssl_update_cache
PUBLIC 539e8 0 SSL_get_ssl_method
PUBLIC 539f0 0 SSL_set_ssl_method
PUBLIC 53a88 0 ssl_undefined_void_function
PUBLIC 53ac4 0 ssl_undefined_const_function
PUBLIC 53b00 0 ssl_bad_method
PUBLIC 53b38 0 SSL_get_version
PUBLIC 53bd4 0 ssl_clear_cipher_ctx
PUBLIC 53c50 0 SSL_get_certificate
PUBLIC 53c64 0 SSL_get_privatekey
PUBLIC 53c78 0 SSL_get_current_cipher
PUBLIC 53c88 0 SSL_get_current_compression
PUBLIC 53c98 0 SSL_get_current_expansion
PUBLIC 53ca8 0 ssl_init_wbio_buffer
PUBLIC 53dc0 0 ssl_free_wbio_buffer
PUBLIC 53e08 0 SSL_CTX_set_quiet_shutdown
PUBLIC 53e10 0 SSL_CTX_get_quiet_shutdown
PUBLIC 53e18 0 SSL_set_quiet_shutdown
PUBLIC 53e20 0 SSL_get_quiet_shutdown
PUBLIC 53e28 0 SSL_set_shutdown
PUBLIC 53e30 0 SSL_get_shutdown
PUBLIC 53e38 0 SSL_version
PUBLIC 53e40 0 SSL_ctrl
PUBLIC 54078 0 ssl_bytes_to_cipher_list
PUBLIC 54338 0 SSL_get_SSL_CTX
PUBLIC 54340 0 SSL_set_SSL_CTX
PUBLIC 5440c 0 SSL_CTX_set_default_verify_paths
PUBLIC 54414 0 SSL_CTX_load_verify_locations
PUBLIC 5441c 0 SSL_set_info_callback
PUBLIC 54424 0 SSL_get_info_callback
PUBLIC 5442c 0 SSL_state
PUBLIC 54434 0 SSL_shutdown
PUBLIC 544ac 0 SSL_do_handshake
PUBLIC 54540 0 SSL_set_state
PUBLIC 54548 0 SSL_set_verify_result
PUBLIC 54550 0 SSL_get_verify_result
PUBLIC 54558 0 SSL_get_ex_new_index
PUBLIC 5458c 0 SSL_set_ex_data
PUBLIC 54594 0 SSL_get_ex_data
PUBLIC 5459c 0 SSL_CTX_get_ex_new_index
PUBLIC 545d0 0 SSL_CTX_set_ex_data
PUBLIC 545d8 0 SSL_CTX_get_ex_data
PUBLIC 545e0 0 ssl_ok
PUBLIC 545e8 0 SSL_CTX_get_cert_store
PUBLIC 545f0 0 SSL_CTX_set_cert_store
PUBLIC 54614 0 SSL_want
PUBLIC 5461c 0 SSL_get_error
PUBLIC 5479c 0 SSL_CTX_set_tmp_rsa_callback
PUBLIC 547a8 0 SSL_set_tmp_rsa_callback
PUBLIC 547b4 0 SSL_CTX_set_tmp_dh_callback
PUBLIC 547c0 0 SSL_set_tmp_dh_callback
PUBLIC 547cc 0 SSL_CTX_set_tmp_ecdh_callback
PUBLIC 547d8 0 SSL_set_tmp_ecdh_callback
PUBLIC 547e4 0 SSL_CTX_use_psk_identity_hint
PUBLIC 5487c 0 SSL_use_psk_identity_hint
PUBLIC 54944 0 SSL_get_psk_identity_hint
PUBLIC 5495c 0 SSL_get_psk_identity
PUBLIC 54974 0 SSL_set_psk_client_callback
PUBLIC 5497c 0 SSL_CTX_set_psk_client_callback
PUBLIC 54984 0 SSL_set_psk_server_callback
PUBLIC 5498c 0 SSL_CTX_set_psk_server_callback
PUBLIC 54994 0 SSL_CTX_set_msg_callback
PUBLIC 549a0 0 SSL_set_msg_callback
PUBLIC 549ac 0 ssl_clear_hash_ctx
PUBLIC 549d0 0 SSL_clear
PUBLIC 54b68 0 SSL_new
PUBLIC 54e4c 0 SSL_free
PUBLIC 55098 0 SSL_dup
PUBLIC 5538c 0 SSL_set_accept_state
PUBLIC 553d0 0 SSL_accept
PUBLIC 55400 0 SSL_set_connect_state
PUBLIC 55440 0 SSL_connect
PUBLIC 55470 0 ssl_replace_hash
PUBLIC 554ac 0 SSL_set_debug
PUBLIC 554b4 0 SSL_cache_hit
PUBLIC 554bc 0 OBJ_bsearch_ssl_cipher_id
PUBLIC 554e4 0 SSL_load_error_strings
PUBLIC 55500 0 SSL_get_ex_data_X509_STORE_CTX_idx
PUBLIC 555e4 0 ssl_cert_new
PUBLIC 55678 0 ssl_cert_dup
PUBLIC 559d8 0 ssl_cert_free
PUBLIC 55a98 0 ssl_cert_inst
PUBLIC 55b34 0 ssl_sess_cert_new
PUBLIC 55bac 0 ssl_sess_cert_free
PUBLIC 55c78 0 ssl_set_peer_cert_type
PUBLIC 55c84 0 ssl_verify_cert_chain
PUBLIC 55dc8 0 SSL_dup_CA_list
PUBLIC 55e40 0 SSL_set_client_CA_list
PUBLIC 55e70 0 SSL_CTX_set_client_CA_list
PUBLIC 55ea0 0 SSL_CTX_get_client_CA_list
PUBLIC 55ea8 0 SSL_get_client_CA_list
PUBLIC 55ef4 0 SSL_add_client_CA
PUBLIC 55f70 0 SSL_CTX_add_client_CA
PUBLIC 55fec 0 SSL_load_client_CA_file
PUBLIC 56198 0 SSL_add_file_cert_subjects_to_stack
PUBLIC 562c8 0 SSL_add_dir_cert_subjects_to_stack
PUBLIC 564e4 0 SSL_get_session
PUBLIC 564ec 0 SSL_get1_session
PUBLIC 56548 0 SSL_SESSION_get_ex_new_index
PUBLIC 5657c 0 SSL_SESSION_set_ex_data
PUBLIC 56584 0 SSL_SESSION_get_ex_data
PUBLIC 5658c 0 SSL_SESSION_new
PUBLIC 56650 0 SSL_SESSION_get_id
PUBLIC 56664 0 SSL_SESSION_get_compress_id
PUBLIC 5666c 0 SSL_SESSION_free
PUBLIC 567b0 0 ssl_get_new_session
PUBLIC 56c3c 0 SSL_CTX_remove_session
PUBLIC 56e4c 0 SSL_CTX_add_session
PUBLIC 57138 0 ssl_get_prev_session
PUBLIC 574f0 0 SSL_set_session
PUBLIC 5761c 0 SSL_SESSION_set_timeout
PUBLIC 5762c 0 SSL_SESSION_get_timeout
PUBLIC 57638 0 SSL_SESSION_get_time
PUBLIC 57644 0 SSL_SESSION_set_time
PUBLIC 57654 0 SSL_SESSION_get0_peer
PUBLIC 5765c 0 SSL_SESSION_set1_id_context
PUBLIC 576bc 0 SSL_CTX_set_timeout
PUBLIC 576d0 0 SSL_CTX_get_timeout
PUBLIC 576dc 0 SSL_set_session_secret_cb
PUBLIC 576f0 0 SSL_set_session_ticket_ext_cb
PUBLIC 57704 0 SSL_set_session_ticket_ext
PUBLIC 577d8 0 SSL_CTX_flush_sessions
PUBLIC 5786c 0 ssl_clear_bad_session
PUBLIC 578c4 0 SSL_CTX_sess_set_new_cb
PUBLIC 578cc 0 SSL_CTX_sess_get_new_cb
PUBLIC 578d4 0 SSL_CTX_sess_set_remove_cb
PUBLIC 578dc 0 SSL_CTX_sess_get_remove_cb
PUBLIC 578e4 0 SSL_CTX_sess_set_get_cb
PUBLIC 578ec 0 SSL_CTX_sess_get_get_cb
PUBLIC 578f4 0 SSL_CTX_set_info_callback
PUBLIC 578fc 0 SSL_CTX_get_info_callback
PUBLIC 57904 0 SSL_CTX_set_client_cert_cb
PUBLIC 5790c 0 SSL_CTX_get_client_cert_cb
PUBLIC 57914 0 SSL_CTX_set_client_cert_engine
PUBLIC 579c8 0 SSL_CTX_set_cookie_generate_cb
PUBLIC 579d0 0 SSL_CTX_set_cookie_verify_cb
PUBLIC 579d8 0 PEM_read_bio_SSL_SESSION
PUBLIC 57a14 0 PEM_read_SSL_SESSION
PUBLIC 57a50 0 PEM_write_bio_SSL_SESSION
PUBLIC 57aa0 0 PEM_write_SSL_SESSION
PUBLIC 58608 0 ssl_load_ciphers
PUBLIC 58908 0 ssl_cipher_get_evp
PUBLIC 58c6c 0 ssl_get_handshake_digest
PUBLIC 58ccc 0 ssl_create_cipher_list
PUBLIC 59b74 0 SSL_CIPHER_description
PUBLIC 5a2e4 0 SSL_CIPHER_get_version
PUBLIC 5a340 0 SSL_CIPHER_get_name
PUBLIC 5a360 0 SSL_CIPHER_get_bits
PUBLIC 5a37c 0 SSL_CIPHER_get_id
PUBLIC 5a384 0 ssl3_comp_find
PUBLIC 5a3dc 0 SSL_COMP_get_compression_methods
PUBLIC 5a54c 0 SSL_COMP_add_compression_method
PUBLIC 5a6c4 0 SSL_COMP_get_name
PUBLIC 5a810 0 SSL_use_certificate
PUBLIC 5aa14 0 SSL_use_certificate_file
PUBLIC 5ab78 0 SSL_use_certificate_ASN1
PUBLIC 5abf4 0 SSL_use_RSAPrivateKey
PUBLIC 5acf0 0 SSL_use_RSAPrivateKey_file
PUBLIC 5ae60 0 SSL_use_RSAPrivateKey_ASN1
PUBLIC 5aee0 0 SSL_use_PrivateKey
PUBLIC 5b0a0 0 SSL_use_PrivateKey_file
PUBLIC 5b21c 0 SSL_use_PrivateKey_ASN1
PUBLIC 5b29c 0 SSL_CTX_use_certificate
PUBLIC 5b4a4 0 SSL_CTX_use_certificate_file
PUBLIC 5b610 0 SSL_CTX_use_certificate_ASN1
PUBLIC 5b694 0 SSL_CTX_use_RSAPrivateKey
PUBLIC 5b798 0 SSL_CTX_use_RSAPrivateKey_file
PUBLIC 5b90c 0 SSL_CTX_use_RSAPrivateKey_ASN1
PUBLIC 5b98c 0 SSL_CTX_use_PrivateKey
PUBLIC 5bb4c 0 SSL_CTX_use_PrivateKey_file
PUBLIC 5bcbc 0 SSL_CTX_use_PrivateKey_ASN1
PUBLIC 5bd3c 0 SSL_CTX_use_certificate_chain_file
PUBLIC 5bef8 0 i2d_SSL_SESSION
PUBLIC 5c82c 0 d2i_SSL_SESSION
PUBLIC 5dd88 0 SSL_library_init
PUBLIC 5df34 0 ERR_load_SSL_strings
PUBLIC 5df70 0 SSL_CTX_SRP_CTX_free
PUBLIC 5e01c 0 SSL_SRP_CTX_free
PUBLIC 5e0c8 0 SSL_SRP_CTX_init
PUBLIC 5e2f8 0 SSL_CTX_SRP_CTX_init
PUBLIC 5e350 0 SSL_srp_server_param_with_username
PUBLIC 5e428 0 SSL_set_srp_server_param_pw
PUBLIC 5e4d8 0 SSL_set_srp_server_param
PUBLIC 5e640 0 SRP_generate_server_master_secret
PUBLIC 5e748 0 SRP_generate_client_master_secret
PUBLIC 5e8d4 0 srp_verify_server_param
PUBLIC 5e994 0 SRP_Calc_A_param
PUBLIC 5e9f4 0 SSL_get_srp_g
PUBLIC 5ea0c 0 SSL_get_srp_N
PUBLIC 5ea24 0 SSL_get_srp_username
PUBLIC 5ea3c 0 SSL_get_srp_userinfo
PUBLIC 5ea54 0 SSL_CTX_set_srp_username
PUBLIC 5ea64 0 SSL_CTX_set_srp_password
PUBLIC 5ea74 0 SSL_CTX_set_srp_strength
PUBLIC 5ea84 0 SSL_CTX_set_srp_verify_param_callback
PUBLIC 5ea90 0 SSL_CTX_set_srp_cb_arg
PUBLIC 5eaa0 0 SSL_CTX_set_srp_username_callback
PUBLIC 5eaac 0 SSL_CTX_set_srp_client_pwd_callback
PUBLIC 5eab8 0 ssl_add_clienthello_renegotiate_ext
PUBLIC 5eb4c 0 ssl_parse_clienthello_renegotiate_ext
PUBLIC 5ec84 0 ssl_add_serverhello_renegotiate_ext
PUBLIC 5ed4c 0 ssl_parse_serverhello_renegotiate_ext
PUBLIC 5ef70 0 SSLv2_method
PUBLIC 5ef94 0 ssl2_accept
PUBLIC 60a60 0 SSLv2_server_method
PUBLIC 60a84 0 SSLv2_client_method
PUBLIC 60aa8 0 ssl2_set_certificate
PUBLIC 60cb8 0 ssl2_connect
PUBLIC 6247c 0 ssl2_default_timeout
PUBLIC 62484 0 ssl2_num_ciphers
PUBLIC 6248c 0 ssl2_get_cipher
PUBLIC 624b8 0 ssl2_pending
PUBLIC 624d8 0 ssl2_free
PUBLIC 62528 0 ssl2_clear
PUBLIC 62574 0 ssl2_new
PUBLIC 6263c 0 ssl2_ctrl
PUBLIC 62670 0 ssl2_callback_ctrl
PUBLIC 62678 0 ssl2_ctx_ctrl
PUBLIC 62680 0 ssl2_ctx_callback_ctrl
PUBLIC 62688 0 ssl2_get_cipher_by_char
PUBLIC 626e0 0 ssl2_put_cipher_by_char
PUBLIC 62734 0 ssl2_generate_key_material
PUBLIC 62920 0 ssl2_write_error
PUBLIC 629e8 0 ssl2_return_error
PUBLIC 62a04 0 ssl2_shutdown
PUBLIC 62a14 0 ssl2_enc_init
PUBLIC 62ca0 0 ssl2_enc
PUBLIC 62ce0 0 ssl2_mac
PUBLIC 63588 0 ssl2_read
PUBLIC 63590 0 ssl2_peek
PUBLIC 63598 0 ssl2_write
PUBLIC 639a4 0 ssl2_part_read
PUBLIC 63a60 0 ssl2_do_write
PUBLIC 63b00 0 SSLv3_method
PUBLIC 63b24 0 SSLv3_server_method
PUBLIC 63b48 0 ssl3_send_hello_request
PUBLIC 63b98 0 ssl3_check_client_hello
PUBLIC 63c90 0 ssl3_get_client_hello
PUBLIC 647e4 0 ssl3_send_server_hello
PUBLIC 649c8 0 ssl3_send_server_done
PUBLIC 64a24 0 ssl3_send_server_key_exchange
PUBLIC 658dc 0 ssl3_send_certificate_request
PUBLIC 65c0c 0 ssl3_get_client_key_exchange
PUBLIC 66b44 0 ssl3_get_cert_verify
PUBLIC 6727c 0 ssl3_get_client_certificate
PUBLIC 677cc 0 ssl3_send_server_certificate
PUBLIC 6787c 0 ssl3_send_newsession_ticket
PUBLIC 67c58 0 ssl3_send_cert_status
PUBLIC 67d40 0 ssl3_get_next_proto
PUBLIC 67ec8 0 ssl3_accept
PUBLIC 68cc8 0 SSLv3_client_method
PUBLIC 68cec 0 ssl3_client_hello
PUBLIC 68ff4 0 ssl3_get_server_hello
PUBLIC 697e0 0 ssl3_get_server_certificate
PUBLIC 69d80 0 ssl3_get_key_exchange
PUBLIC 6b32c 0 ssl3_get_certificate_request
PUBLIC 6b8a0 0 ssl3_get_new_session_ticket
PUBLIC 6babc 0 ssl3_get_cert_status
PUBLIC 6bcd8 0 ssl3_get_server_done
PUBLIC 6bd74 0 ssl3_send_client_key_exchange
PUBLIC 6cbb8 0 ssl3_send_client_verify
PUBLIC 6d0a0 0 ssl3_check_cert_and_algorithm
PUBLIC 6d444 0 ssl3_send_next_proto
PUBLIC 6d504 0 ssl3_check_finished
PUBLIC 6d588 0 ssl_do_client_cert_cb
PUBLIC 6d60c 0 ssl3_send_client_certificate
PUBLIC 6d7e8 0 ssl3_connect
PUBLIC 6e268 0 ssl3_default_timeout
PUBLIC 6e274 0 ssl3_num_ciphers
PUBLIC 6e27c 0 ssl3_get_cipher
PUBLIC 6e2a8 0 ssl3_pending
PUBLIC 6e2d4 0 ssl3_new
PUBLIC 6e38c 0 ssl3_free
PUBLIC 6e480 0 ssl3_clear
PUBLIC 6e5d8 0 ssl3_ctrl
PUBLIC 6ee58 0 ssl3_callback_ctrl
PUBLIC 6ef28 0 ssl3_ctx_ctrl
PUBLIC 6f598 0 ssl3_ctx_callback_ctrl
PUBLIC 6f768 0 ssl3_get_cipher_by_char
PUBLIC 6f7b8 0 ssl3_put_cipher_by_char
PUBLIC 6f7f4 0 ssl3_choose_cipher
PUBLIC 6fdb0 0 ssl3_get_req_cert_type
PUBLIC 6fee0 0 ssl3_shutdown
PUBLIC 6ffe0 0 ssl3_renegotiate
PUBLIC 70018 0 ssl3_renegotiate_check
PUBLIC 70090 0 ssl3_write
PUBLIC 70190 0 ssl3_peek
PUBLIC 7025c 0 ssl3_read
PUBLIC 7032c 0 ssl_get_algorithm2
PUBLIC 7036c 0 ssl3_change_cipher_state
PUBLIC 708d8 0 ssl3_cleanup_key_block
PUBLIC 70920 0 ssl3_setup_key_block
PUBLIC 70d10 0 ssl3_enc
PUBLIC 70ea4 0 ssl3_free_digest_list
PUBLIC 70efc 0 ssl3_init_finished_mac
PUBLIC 70f5c 0 ssl3_finish_mac
PUBLIC 70fc4 0 ssl3_digest_cached_records
PUBLIC 71324 0 ssl3_cert_verify_mac
PUBLIC 71344 0 ssl3_final_finish_mac
PUBLIC 713b4 0 ssl3_record_sequence_update
PUBLIC 71468 0 n_ssl3_mac
PUBLIC 7170c 0 ssl3_generate_master_secret
PUBLIC 71840 0 ssl3_alert_code
PUBLIC 71864 0 ssl3_read_n
PUBLIC 71b80 0 ssl3_do_uncompress
PUBLIC 71bc8 0 ssl3_do_compress
PUBLIC 71c10 0 ssl3_write_pending
PUBLIC 72214 0 ssl3_write_bytes
PUBLIC 727c0 0 ssl3_do_change_cipher_spec
PUBLIC 72908 0 ssl3_send_alert
PUBLIC 729b4 0 ssl3_read_bytes
PUBLIC 73b00 0 ssl3_dispatch_alert
PUBLIC 73ed8 0 ssl3_do_write
PUBLIC 73fb0 0 ssl3_send_finished
PUBLIC 7410c 0 ssl3_get_finished
PUBLIC 742d4 0 ssl3_send_change_cipher_spec
PUBLIC 74308 0 ssl3_output_cert_chain
PUBLIC 74688 0 ssl3_get_message
PUBLIC 74acc 0 ssl_cert_type
PUBLIC 74b6c 0 ssl_verify_alarm_type
PUBLIC 74b94 0 ssl3_setup_read_buffer
PUBLIC 74d30 0 ssl3_setup_write_buffer
PUBLIC 74eb0 0 ssl3_setup_buffers
PUBLIC 74ed8 0 ssl3_release_write_buffer
PUBLIC 74fc0 0 ssl3_release_read_buffer
PUBLIC 75390 0 ssl3_cbc_remove_padding
PUBLIC 7541c 0 tls1_cbc_remove_padding
PUBLIC 755f8 0 ssl3_cbc_copy_mac
PUBLIC 757bc 0 ssl3_cbc_record_digest_supported
PUBLIC 757f8 0 ssl3_cbc_digest_record
PUBLIC 769c8 0 dtls1_read_failed
PUBLIC 76a64 0 dtls1_get_queue_priority
PUBLIC 76a6c 0 dtls1_buffer_message
PUBLIC 76ccc 0 dtls1_clear_record_buffer
PUBLIC 76d58 0 dtls1_set_message_header
PUBLIC 76dd0 0 dtls1_output_cert_chain
PUBLIC 7709c 0 dtls1_min_mtu
PUBLIC 770a4 0 dtls1_do_write
PUBLIC 77618 0 dtls1_send_finished
PUBLIC 77778 0 dtls1_send_change_cipher_spec
PUBLIC 77850 0 dtls1_retransmit_message
PUBLIC 77a78 0 dtls1_retransmit_buffered_messages
PUBLIC 77b44 0 dtls1_get_message_header
PUBLIC 77bd0 0 dtls1_get_message
PUBLIC 7846c 0 dtls1_get_ccs_header
PUBLIC 78494 0 dtls1_shutdown
PUBLIC 78498 0 dtls1_process_heartbeat
PUBLIC 7862c 0 dtls1_heartbeat
PUBLIC 7890c 0 dtls1_default_timeout
PUBLIC 78918 0 dtls1_new
PUBLIC 78a44 0 dtls1_free
PUBLIC 78aa8 0 dtls1_clear
PUBLIC 78b58 0 dtls1_get_cipher
PUBLIC 78b78 0 dtls1_start_timer
PUBLIC 78be8 0 dtls1_get_timeout
PUBLIC 78ce4 0 dtls1_is_timer_expired
PUBLIC 78d24 0 dtls1_double_timeout
PUBLIC 78d48 0 dtls1_stop_timer
PUBLIC 78df0 0 dtls1_check_timeout_num
PUBLIC 78e78 0 dtls1_handle_timeout
PUBLIC 78ef8 0 dtls1_listen
PUBLIC 78f50 0 dtls1_ctrl
PUBLIC 79628 0 dtls1_get_record
PUBLIC 79b6c 0 do_dtls1_write
PUBLIC 79e94 0 dtls1_write_bytes
PUBLIC 79f04 0 dtls1_write_app_data_bytes
PUBLIC 79fd4 0 dtls1_dispatch_alert
PUBLIC 7a0cc 0 dtls1_reset_seq_numbers
PUBLIC 7a1b4 0 dtls1_read_bytes
PUBLIC 7aeb0 0 dtls1_enc
PUBLIC 7b160 0 CRYPTO_get_new_lockid
PUBLIC 7b244 0 CRYPTO_num_locks
PUBLIC 7b24c 0 CRYPTO_get_dynlock_create_callback
PUBLIC 7b260 0 CRYPTO_get_dynlock_lock_callback
PUBLIC 7b274 0 CRYPTO_get_dynlock_destroy_callback
PUBLIC 7b288 0 CRYPTO_set_dynlock_create_callback
PUBLIC 7b29c 0 CRYPTO_set_dynlock_lock_callback
PUBLIC 7b2b0 0 CRYPTO_set_dynlock_destroy_callback
PUBLIC 7b2c4 0 CRYPTO_get_locking_callback
PUBLIC 7b2d8 0 CRYPTO_get_add_lock_callback
PUBLIC 7b2ec 0 CRYPTO_set_locking_callback
PUBLIC 7b30c 0 CRYPTO_set_add_lock_callback
PUBLIC 7b320 0 CRYPTO_THREADID_set_numeric
PUBLIC 7b354 0 CRYPTO_THREADID_set_pointer
PUBLIC 7b37c 0 CRYPTO_THREADID_set_callback
PUBLIC 7b3a0 0 CRYPTO_THREADID_get_callback
PUBLIC 7b3b4 0 CRYPTO_THREADID_current
PUBLIC 7b410 0 CRYPTO_THREADID_cmp
PUBLIC 7b418 0 CRYPTO_THREADID_cpy
PUBLIC 7b420 0 CRYPTO_THREADID_hash
PUBLIC 7b428 0 CRYPTO_get_id_callback
PUBLIC 7b43c 0 CRYPTO_set_id_callback
PUBLIC 7b450 0 CRYPTO_thread_id
PUBLIC 7b47c 0 CRYPTO_get_lock_name
PUBLIC 7b4f4 0 OPENSSL_ia32cap_loc
PUBLIC 7b4fc 0 OPENSSL_cpuid_setup
PUBLIC 7b500 0 OPENSSL_showfatal
PUBLIC 7b540 0 OPENSSL_isservice
PUBLIC 7b548 0 OpenSSLDie
PUBLIC 7b570 0 CRYPTO_lock
PUBLIC 7b628 0 CRYPTO_get_new_dynlockid
PUBLIC 7b854 0 CRYPTO_destroy_dynlockid
PUBLIC 7b96c 0 CRYPTO_get_dynlock_value
PUBLIC 7ba24 0 CRYPTO_add_lock
PUBLIC 7bab0 0 OPENSSL_stderr
PUBLIC 7bac4 0 CRYPTO_memcmp
PUBLIC 7bc18 0 CRYPTO_set_mem_functions
PUBLIC 7bcb8 0 CRYPTO_set_mem_ex_functions
PUBLIC 7bd44 0 CRYPTO_set_locked_mem_functions
PUBLIC 7bda8 0 CRYPTO_set_locked_mem_ex_functions
PUBLIC 7be08 0 CRYPTO_set_mem_debug_functions
PUBLIC 7be60 0 CRYPTO_get_mem_functions
PUBLIC 7bf0c 0 CRYPTO_get_mem_ex_functions
PUBLIC 7bf88 0 CRYPTO_get_locked_mem_functions
PUBLIC 7bfec 0 CRYPTO_get_locked_mem_ex_functions
PUBLIC 7c038 0 CRYPTO_get_mem_debug_functions
PUBLIC 7c0c0 0 CRYPTO_malloc_locked
PUBLIC 7c1a8 0 CRYPTO_free_locked
PUBLIC 7c210 0 CRYPTO_malloc
PUBLIC 7c2f8 0 CRYPTO_strdup
PUBLIC 7c328 0 CRYPTO_realloc
PUBLIC 7c40c 0 CRYPTO_realloc_clean
PUBLIC 7c528 0 CRYPTO_free
PUBLIC 7c590 0 CRYPTO_remalloc
PUBLIC 7c5c4 0 CRYPTO_set_mem_debug_options
PUBLIC 7c5e8 0 CRYPTO_get_mem_debug_options
PUBLIC 7c990 0 CRYPTO_mem_ctrl
PUBLIC 7cb70 0 CRYPTO_is_mem_check_on
PUBLIC 7cc1c 0 CRYPTO_dbg_set_options
PUBLIC 7cc30 0 CRYPTO_dbg_get_options
PUBLIC 7cc40 0 CRYPTO_push_info_
PUBLIC 7cd30 0 CRYPTO_pop_info
PUBLIC 7ce10 0 CRYPTO_remove_all_info
PUBLIC 7cf00 0 CRYPTO_dbg_malloc
PUBLIC 7d0f8 0 CRYPTO_dbg_free
PUBLIC 7d230 0 CRYPTO_dbg_realloc
PUBLIC 7d2dc 0 CRYPTO_mem_leaks
PUBLIC 7d438 0 CRYPTO_mem_leaks_fp
PUBLIC 7d4a4 0 CRYPTO_mem_leaks_cb
PUBLIC 7d9d4 0 CRYPTO_get_ex_data_implementation
PUBLIC 7da5c 0 CRYPTO_set_ex_data_implementation
PUBLIC 7dac4 0 CRYPTO_ex_data_new_class
PUBLIC 7db58 0 CRYPTO_cleanup_all_ex_data
PUBLIC 7dbec 0 CRYPTO_get_ex_new_index
PUBLIC 7dcb8 0 CRYPTO_new_ex_data
PUBLIC 7dd64 0 CRYPTO_dup_ex_data
PUBLIC 7de10 0 CRYPTO_free_ex_data
PUBLIC 7debc 0 CRYPTO_set_ex_data
PUBLIC 7dfa8 0 CRYPTO_get_ex_data
PUBLIC 7e4c0 0 OPENSSL_DIR_read
PUBLIC 7e5d8 0 OPENSSL_DIR_end
PUBLIC 7e638 0 OPENSSL_init
PUBLIC 7e658 0 OPENSSL_cleanse
PUBLIC 7e7dc 0 OBJ_NAME_init
PUBLIC 7e840 0 OBJ_NAME_new_index
PUBLIC 7e9cc 0 OBJ_NAME_get
PUBLIC 7ea94 0 OBJ_NAME_add
PUBLIC 7eb80 0 OBJ_NAME_remove
PUBLIC 7ec54 0 OBJ_NAME_do_all
PUBLIC 7ec8c 0 OBJ_NAME_do_all_sorted
PUBLIC 7ed50 0 OBJ_NAME_cleanup
PUBLIC 7f030 0 check_defer
PUBLIC 7f058 0 OBJ_cleanup
PUBLIC 7f0e0 0 OBJ_new_nid
PUBLIC 7f100 0 OBJ_add_object
PUBLIC 7f2f8 0 OBJ_nid2obj
PUBLIC 7f3fc 0 OBJ_nid2sn
PUBLIC 7f504 0 OBJ_nid2ln
PUBLIC 7f610 0 OBJ_bsearch_ex_
PUBLIC 7f70c 0 OBJ_bsearch_
PUBLIC 7f730 0 OBJ_obj2nid
PUBLIC 7f800 0 OBJ_obj2txt
PUBLIC 7fb9c 0 OBJ_ln2nid
PUBLIC 7fc5c 0 OBJ_sn2nid
PUBLIC 7fd18 0 OBJ_txt2obj
PUBLIC 7fe08 0 OBJ_txt2nid
PUBLIC 7fe30 0 OBJ_create
PUBLIC 7ff14 0 OBJ_create_objects
PUBLIC 80078 0 OBJ_dup
PUBLIC 80268 0 OBJ_cmp
PUBLIC 80300 0 OBJ_find_sigid_algs
PUBLIC 803b0 0 OBJ_find_sigid_by_algs
PUBLIC 80468 0 OBJ_add_sigid
PUBLIC 80574 0 OBJ_sigid_free
PUBLIC 805d0 0 MD5_Init
PUBLIC 80610 0 md5_block_data_order
PUBLIC 8124c 0 MD5_Update
PUBLIC 81360 0 MD5_Transform
PUBLIC 81368 0 MD5_Final
PUBLIC 82db4 0 SHA1_Update
PUBLIC 82ec8 0 SHA1_Transform
PUBLIC 82ed0 0 SHA1_Final
PUBLIC 8303c 0 SHA1_Init
PUBLIC 843c0 0 SHA224_Init
PUBLIC 84444 0 SHA256_Init
PUBLIC 844c8 0 SHA256_Update
PUBLIC 845dc 0 SHA224_Update
PUBLIC 845e0 0 SHA256_Transform
PUBLIC 845e8 0 SHA256_Final
PUBLIC 84a04 0 SHA224
PUBLIC 84a68 0 SHA256
PUBLIC 84ad0 0 SHA224_Final
PUBLIC 8ad28 0 SHA384_Init
PUBLIC 8adf8 0 SHA512_Init
PUBLIC 8aec8 0 SHA512_Final
PUBLIC 8b37c 0 SHA384_Final
PUBLIC 8b380 0 SHA512_Update
PUBLIC 8b4dc 0 SHA384_Update
PUBLIC 8b4e0 0 SHA512_Transform
PUBLIC 8b524 0 SHA384
PUBLIC 8b588 0 SHA512
PUBLIC 8b5f0 0 HMAC_Init_ex
PUBLIC 8b824 0 HMAC_Update
PUBLIC 8b82c 0 HMAC_Final
PUBLIC 8b8b4 0 HMAC_CTX_init
PUBLIC 8b8d8 0 HMAC_Init
PUBLIC 8b924 0 HMAC_CTX_copy
PUBLIC 8b99c 0 HMAC_CTX_cleanup
PUBLIC 8b9d0 0 HMAC
PUBLIC 8ba78 0 HMAC_CTX_set_flags
PUBLIC 8baa8 0 RC4
PUBLIC 8c0ac 0 RC4_set_key
PUBLIC 8c0b0 0 BN_exp
PUBLIC 8c240 0 BN_mod_exp_recp
PUBLIC 8c62c 0 BN_mod_exp_mont_consttime
PUBLIC 8cdd8 0 BN_mod_exp_mont
PUBLIC 8d2c8 0 BN_mod_exp_mont_word
PUBLIC 8d76c 0 BN_mod_exp
PUBLIC 8d818 0 BN_mod_exp_simple
PUBLIC 8dd1c 0 BN_set_params
PUBLIC 8de08 0 BN_get_params
PUBLIC 8de7c 0 BN_value_one
PUBLIC 8de8c 0 BN_num_bits_word
PUBLIC 8df00 0 BN_num_bits
PUBLIC 8df2c 0 BN_clear_free
PUBLIC 8df8c 0 BN_free
PUBLIC 8dfdc 0 BN_init
PUBLIC 8dfe8 0 BN_new
PUBLIC 8e064 0 bn_expand2
PUBLIC 8e0b4 0 BN_copy
PUBLIC 8e1a0 0 BN_dup
PUBLIC 8e1e8 0 bn_dup_expand
PUBLIC 8e254 0 BN_swap
PUBLIC 8e2c8 0 BN_clear
PUBLIC 8e2fc 0 BN_get_word
PUBLIC 8e328 0 BN_set_word
PUBLIC 8e378 0 BN_bin2bn
PUBLIC 8e484 0 BN_bn2bin
PUBLIC 8e4f8 0 BN_ucmp
PUBLIC 8e580 0 BN_cmp
PUBLIC 8e670 0 BN_set_bit
PUBLIC 8e710 0 BN_clear_bit
PUBLIC 8e78c 0 BN_is_bit_set
PUBLIC 8e7c4 0 BN_mask_bits
PUBLIC 8e850 0 BN_set_negative
PUBLIC 8e86c 0 bn_cmp_words
PUBLIC 8e904 0 bn_cmp_part_words
PUBLIC 8e978 0 BN_consttime_swap
PUBLIC 8ec1c 0 BN_CTX_init
PUBLIC 8ec88 0 BN_CTX_new
PUBLIC 8ed10 0 BN_CTX_free
PUBLIC 8ed90 0 BN_CTX_start
PUBLIC 8ee98 0 BN_CTX_end
PUBLIC 8ef18 0 BN_CTX_get
PUBLIC 8f084 0 bn_sub_part_words
PUBLIC 8f22c 0 bn_add_part_words
PUBLIC 8f4e8 0 bn_mul_normal
PUBLIC 8f5d4 0 bn_mul_recursive
PUBLIC 8fa54 0 bn_mul_high
PUBLIC 8fed0 0 bn_mul_part_recursive
PUBLIC 903fc 0 BN_mul
PUBLIC 90710 0 bn_mul_low_normal
PUBLIC 907d0 0 bn_mul_low_recursive
PUBLIC 908e4 0 BN_nnmod
PUBLIC 90964 0 BN_mod_add
PUBLIC 90998 0 BN_mod_add_quick
PUBLIC 909e0 0 BN_mod_sub
PUBLIC 90a14 0 BN_mod_sub_quick
PUBLIC 90a54 0 BN_mod_mul
PUBLIC 90ae8 0 BN_mod_sqr
PUBLIC 90b2c 0 BN_mod_lshift1
PUBLIC 90b60 0 BN_mod_lshift1_quick
PUBLIC 90ba8 0 BN_mod_lshift_quick
PUBLIC 90cb0 0 BN_mod_lshift
PUBLIC 90d40 0 BN_bn2hex
PUBLIC 90f08 0 BN_bn2dec
PUBLIC 9115c 0 BN_hex2bn
PUBLIC 91328 0 BN_dec2bn
PUBLIC 914c8 0 BN_asc2bn
PUBLIC 91550 0 BN_print
PUBLIC 91858 0 BN_print_fp
PUBLIC 918ac 0 BN_options
PUBLIC 9190c 0 BN_lshift1
PUBLIC 919e0 0 BN_rshift1
PUBLIC 91aa8 0 BN_lshift
PUBLIC 91bf4 0 BN_rshift
PUBLIC 91d28 0 BN_mod_word
PUBLIC 91d98 0 BN_div_word
PUBLIC 91e64 0 BN_sub_word
PUBLIC 91f54 0 BN_add_word
PUBLIC 9204c 0 BN_mul_word
PUBLIC 920cc 0 bn_sqr_normal
PUBLIC 921a4 0 bn_sqr_recursive
PUBLIC 92350 0 BN_sqr
PUBLIC 92520 0 bn_mul_add_words
PUBLIC 92650 0 bn_mul_words
PUBLIC 9270c 0 bn_sqr_words
PUBLIC 9279c 0 bn_div_words
PUBLIC 927c4 0 bn_add_words
PUBLIC 92904 0 bn_sub_words
PUBLIC 92a18 0 bn_mul_comba8
PUBLIC 93278 0 bn_mul_comba4
PUBLIC 93498 0 bn_sqr_comba8
PUBLIC 93d54 0 bn_sqr_comba4
PUBLIC 93f88 0 bn_mul_mont
PUBLIC 93f90 0 BN_RECP_CTX_init
PUBLIC 93fb4 0 BN_RECP_CTX_new
PUBLIC 93fec 0 BN_RECP_CTX_free
PUBLIC 9401c 0 BN_RECP_CTX_set
PUBLIC 94064 0 BN_reciprocal
PUBLIC 940e0 0 BN_div_recp
PUBLIC 94344 0 BN_mod_mul_reciprocal
PUBLIC 946b4 0 BN_mod_mul_montgomery
PUBLIC 94744 0 BN_from_montgomery
PUBLIC 947ac 0 BN_MONT_CTX_init
PUBLIC 947e0 0 BN_MONT_CTX_new
PUBLIC 9481c 0 BN_MONT_CTX_free
PUBLIC 94858 0 BN_MONT_CTX_set
PUBLIC 94a28 0 BN_MONT_CTX_copy
PUBLIC 94aa4 0 BN_MONT_CTX_set_locked
PUBLIC 94b90 0 EC_GROUP_new
PUBLIC 94cb0 0 EC_GROUP_method_of
PUBLIC 94cb8 0 EC_METHOD_get_field_type
PUBLIC 94cc0 0 EC_GROUP_get0_generator
PUBLIC 94cc8 0 EC_GROUP_get_order
PUBLIC 94cf4 0 EC_GROUP_get_cofactor
PUBLIC 94d20 0 EC_GROUP_set_curve_name
PUBLIC 94d28 0 EC_GROUP_get_curve_name
PUBLIC 94d30 0 EC_GROUP_set_asn1_flag
PUBLIC 94d38 0 EC_GROUP_get_asn1_flag
PUBLIC 94d40 0 EC_GROUP_set_point_conversion_form
PUBLIC 94d48 0 EC_GROUP_get_point_conversion_form
PUBLIC 94d50 0 EC_GROUP_set_seed
PUBLIC 94dd4 0 EC_GROUP_get0_seed
PUBLIC 94ddc 0 EC_GROUP_get_seed_len
PUBLIC 94de4 0 EC_GROUP_set_curve_GFp
PUBLIC 94e44 0 EC_GROUP_get_curve_GFp
PUBLIC 94ea4 0 EC_GROUP_set_curve_GF2m
PUBLIC 94f04 0 EC_GROUP_get_curve_GF2m
PUBLIC 94f60 0 EC_GROUP_get_degree
PUBLIC 94fb8 0 EC_GROUP_check_discriminant
PUBLIC 95010 0 EC_EX_DATA_set_data
PUBLIC 950fc 0 EC_EX_DATA_get_data
PUBLIC 95144 0 EC_EX_DATA_free_data
PUBLIC 951b4 0 EC_EX_DATA_clear_free_data
PUBLIC 95224 0 EC_EX_DATA_free_all_data
PUBLIC 9526c 0 EC_EX_DATA_clear_free_all_data
PUBLIC 952b4 0 EC_POINT_new
PUBLIC 953ac 0 EC_POINT_free
PUBLIC 953d8 0 EC_GROUP_free
PUBLIC 9543c 0 EC_POINT_clear_free
PUBLIC 95484 0 EC_GROUP_clear_free
PUBLIC 95510 0 EC_POINT_copy
PUBLIC 955b0 0 EC_GROUP_copy
PUBLIC 957d0 0 EC_GROUP_dup
PUBLIC 95818 0 EC_GROUP_set_generator
PUBLIC 958f0 0 EC_POINT_dup
PUBLIC 95938 0 EC_POINT_method_of
PUBLIC 95940 0 EC_POINT_set_to_infinity
PUBLIC 959d4 0 EC_POINT_set_Jprojective_coordinates_GFp
PUBLIC 95a78 0 EC_POINT_get_Jprojective_coordinates_GFp
PUBLIC 95b18 0 EC_POINT_set_affine_coordinates_GFp
PUBLIC 95bb0 0 EC_POINT_set_affine_coordinates_GF2m
PUBLIC 95c4c 0 EC_POINT_get_affine_coordinates_GFp
PUBLIC 95ce8 0 EC_POINT_get_affine_coordinates_GF2m
PUBLIC 95d80 0 EC_POINT_add
PUBLIC 95e2c 0 EC_POINT_dbl
PUBLIC 95ec4 0 EC_POINT_invert
PUBLIC 95f54 0 EC_POINT_is_at_infinity
PUBLIC 95fe4 0 EC_POINT_is_on_curve
PUBLIC 96074 0 EC_POINT_cmp
PUBLIC 96110 0 EC_GROUP_cmp
PUBLIC 9639c 0 EC_POINT_make_affine
PUBLIC 9642c 0 EC_POINTs_make_affine
PUBLIC 964f4 0 EC_POINTs_mul
PUBLIC 9653c 0 EC_POINT_mul
PUBLIC 96588 0 EC_GROUP_precompute_mult
PUBLIC 965c0 0 EC_GROUP_have_precompute_mult
PUBLIC 96a70 0 ec_wNAF_mul
PUBLIC 978a4 0 ec_wNAF_precompute_mult
PUBLIC 97f00 0 ec_wNAF_have_precompute_mult
PUBLIC 97f3c 0 EC_GROUP_new_by_curve_name
PUBLIC 9847c 0 EC_get_builtin_curves
PUBLIC 984e4 0 EC_KEY_new
PUBLIC 9856c 0 EC_KEY_free
PUBLIC 98604 0 EC_KEY_new_by_curve_name
PUBLIC 9864c 0 EC_KEY_copy
PUBLIC 987f4 0 EC_KEY_dup
PUBLIC 98830 0 EC_KEY_up_ref
PUBLIC 98870 0 EC_KEY_generate_key
PUBLIC 989ec 0 EC_KEY_check_key
PUBLIC 98ccc 0 EC_KEY_get0_group
PUBLIC 98cd4 0 EC_KEY_set_group
PUBLIC 98d08 0 EC_KEY_get0_private_key
PUBLIC 98d10 0 EC_KEY_set_private_key
PUBLIC 98d44 0 EC_KEY_get0_public_key
PUBLIC 98d4c 0 EC_KEY_set_public_key
PUBLIC 98d84 0 EC_KEY_set_public_key_affine_coordinates
PUBLIC 98f88 0 EC_KEY_get_enc_flags
PUBLIC 98f90 0 EC_KEY_set_enc_flags
PUBLIC 98f98 0 EC_KEY_get_conv_form
PUBLIC 98fa0 0 EC_KEY_set_conv_form
PUBLIC 98fb8 0 EC_KEY_get_key_method_data
PUBLIC 99028 0 EC_KEY_insert_key_method_data
PUBLIC 990c8 0 EC_KEY_set_asn1_flag
PUBLIC 990d8 0 EC_KEY_precompute_mult
PUBLIC 990e8 0 EC_KEY_get_flags
PUBLIC 990f0 0 EC_KEY_set_flags
PUBLIC 99100 0 EC_KEY_clear_flags
PUBLIC 99110 0 EC_POINT_set_compressed_coordinates_GFp
PUBLIC 991f4 0 EC_POINT_set_compressed_coordinates_GF2m
PUBLIC 992d8 0 EC_POINT_point2oct
PUBLIC 993c0 0 EC_POINT_oct2point
PUBLIC 994a4 0 RSA_set_default_method
PUBLIC 994b8 0 RSA_get_default_method
PUBLIC 994e0 0 RSA_get_method
PUBLIC 994e8 0 RSA_set_method
PUBLIC 99540 0 RSA_new_method
PUBLIC 99730 0 RSA_new
PUBLIC 99738 0 RSA_free
PUBLIC 99874 0 RSA_up_ref
PUBLIC 998b8 0 RSA_get_ex_new_index
PUBLIC 998ec 0 RSA_set_ex_data
PUBLIC 998f4 0 RSA_get_ex_data
PUBLIC 998fc 0 RSA_memory_lock
PUBLIC 99a64 0 RSA_sign
PUBLIC 99ccc 0 int_rsa_verify
PUBLIC 9a228 0 RSA_verify
PUBLIC 9a2f8 0 d2i_RSA_PSS_PARAMS
PUBLIC 9a308 0 i2d_RSA_PSS_PARAMS
PUBLIC 9a318 0 RSA_PSS_PARAMS_new
PUBLIC 9a328 0 RSA_PSS_PARAMS_free
PUBLIC 9a338 0 d2i_RSAPrivateKey
PUBLIC 9a348 0 i2d_RSAPrivateKey
PUBLIC 9a358 0 d2i_RSAPublicKey
PUBLIC 9a368 0 i2d_RSAPublicKey
PUBLIC 9a378 0 RSAPublicKey_dup
PUBLIC 9a38c 0 RSAPrivateKey_dup
PUBLIC 9a3a0 0 RSA_size
PUBLIC 9a3c0 0 RSA_public_encrypt
PUBLIC 9a3e4 0 RSA_private_encrypt
PUBLIC 9a408 0 RSA_private_decrypt
PUBLIC 9a42c 0 RSA_public_decrypt
PUBLIC 9a450 0 RSA_flags
PUBLIC 9a460 0 RSA_blinding_off
PUBLIC 9a494 0 RSA_setup_blinding
PUBLIC 9a740 0 RSA_blinding_on
PUBLIC 9a850 0 d2i_DSA_SIG
PUBLIC 9a860 0 i2d_DSA_SIG
PUBLIC 9a870 0 d2i_DSAPrivateKey
PUBLIC 9a880 0 i2d_DSAPrivateKey
PUBLIC 9a890 0 d2i_DSAparams
PUBLIC 9a8a0 0 i2d_DSAparams
PUBLIC 9a8b0 0 d2i_DSAPublicKey
PUBLIC 9a8c0 0 i2d_DSAPublicKey
PUBLIC 9a8d0 0 DSAparams_dup
PUBLIC 9a8e4 0 DSA_sign
PUBLIC 9a958 0 DSA_verify
PUBLIC 9a9cc 0 DSA_do_verify
PUBLIC 9a9e0 0 DSA_do_sign
PUBLIC 9a9f4 0 DSA_sign_setup
PUBLIC 9aa08 0 DSA_SIG_new
PUBLIC 9aa38 0 DSA_SIG_free
PUBLIC 9aa70 0 ECDSA_do_sign_ex
PUBLIC 9aac4 0 ECDSA_do_sign
PUBLIC 9aae4 0 ECDSA_sign_ex
PUBLIC 9ab68 0 ECDSA_sign
PUBLIC 9ab98 0 ECDSA_sign_setup
PUBLIC 9abd8 0 ECDSA_do_verify
PUBLIC 9ac1c 0 ECDSA_verify
PUBLIC 9ace0 0 d2i_DHparams
PUBLIC 9acf0 0 i2d_DHparams
PUBLIC 9ad00 0 DHparams_dup
PUBLIC 9b1b4 0 DH_generate_key
PUBLIC 9b1c8 0 DH_compute_key
PUBLIC 9b1dc 0 DH_OpenSSL
PUBLIC 9b1ec 0 DH_set_default_method
PUBLIC 9b200 0 DH_get_default_method
PUBLIC 9b228 0 DH_set_method
PUBLIC 9b280 0 DH_new_method
PUBLIC 9b448 0 DH_new
PUBLIC 9b450 0 DH_free
PUBLIC 9b55c 0 DH_up_ref
PUBLIC 9b59c 0 DH_get_ex_new_index
PUBLIC 9b5d0 0 DH_set_ex_data
PUBLIC 9b5d8 0 DH_get_ex_data
PUBLIC 9b5e0 0 DH_size
PUBLIC 9b600 0 DH_check
PUBLIC 9b75c 0 DH_check_pub_key
PUBLIC 9b7f0 0 ECDH_compute_key
PUBLIC 9b844 0 engine_unlocked_init
PUBLIC 9b894 0 engine_unlocked_finish
PUBLIC 9b970 0 ENGINE_init
PUBLIC 9b9fc 0 ENGINE_finish
PUBLIC 9bab4 0 ENGINE_set_load_privkey_function
PUBLIC 9bac0 0 ENGINE_set_load_pubkey_function
PUBLIC 9bacc 0 ENGINE_set_load_ssl_client_cert_function
PUBLIC 9bad8 0 ENGINE_get_load_privkey_function
PUBLIC 9bae0 0 ENGINE_get_load_pubkey_function
PUBLIC 9bae8 0 ENGINE_get_ssl_client_cert_function
PUBLIC 9baf0 0 ENGINE_load_private_key
PUBLIC 9bc20 0 ENGINE_load_public_key
PUBLIC 9bd50 0 ENGINE_load_ssl_client_cert
PUBLIC 9be90 0 ENGINE_unregister_RSA
PUBLIC 9bea4 0 ENGINE_register_RSA
PUBLIC 9befc 0 ENGINE_register_all_RSA
PUBLIC 9bf28 0 ENGINE_set_default_RSA
PUBLIC 9bf80 0 ENGINE_get_default_RSA
PUBLIC 9bf94 0 ENGINE_get_RSA
PUBLIC 9bf9c 0 ENGINE_set_RSA
PUBLIC 9bfb8 0 ENGINE_unregister_DH
PUBLIC 9bfcc 0 ENGINE_register_DH
PUBLIC 9c024 0 ENGINE_register_all_DH
PUBLIC 9c050 0 ENGINE_set_default_DH
PUBLIC 9c0a8 0 ENGINE_get_default_DH
PUBLIC 9c0bc 0 ENGINE_get_DH
PUBLIC 9c0c4 0 ENGINE_set_DH
PUBLIC 9c0d0 0 BUF_MEM_new
PUBLIC 9c138 0 BUF_MEM_free
PUBLIC 9c170 0 BUF_MEM_grow
PUBLIC 9c2b0 0 BUF_MEM_grow_clean
PUBLIC 9c418 0 BUF_reverse
PUBLIC 9c478 0 BUF_memdup
PUBLIC 9c4ec 0 BUF_strlcpy
PUBLIC 9c570 0 BUF_strndup
PUBLIC 9c5ec 0 BUF_strdup
PUBLIC 9c60c 0 BUF_strlcat
PUBLIC 9c664 0 BIO_set
PUBLIC 9c6fc 0 BIO_new
PUBLIC 9c77c 0 BIO_free
PUBLIC 9c83c 0 BIO_vfree
PUBLIC 9c840 0 BIO_clear_flags
PUBLIC 9c850 0 BIO_test_flags
PUBLIC 9c85c 0 BIO_set_flags
PUBLIC 9c86c 0 BIO_get_callback
PUBLIC 9c874 0 BIO_set_callback
PUBLIC 9c87c 0 BIO_set_callback_arg
PUBLIC 9c884 0 BIO_get_callback_arg
PUBLIC 9c88c 0 BIO_method_name
PUBLIC 9c898 0 BIO_method_type
PUBLIC 9c8a4 0 BIO_read
PUBLIC 9c9c0 0 BIO_write
PUBLIC 9cae4 0 BIO_puts
PUBLIC 9cbf4 0 BIO_gets
PUBLIC 9cd08 0 BIO_indent
PUBLIC 9cd60 0 BIO_ctrl
PUBLIC 9ce48 0 BIO_int_ctrl
PUBLIC 9ce68 0 BIO_ptr_ctrl
PUBLIC 9ce94 0 BIO_callback_ctrl
PUBLIC 9cf80 0 BIO_ctrl_pending
PUBLIC 9cf90 0 BIO_ctrl_wpending
PUBLIC 9cfa0 0 BIO_push
PUBLIC 9cff0 0 BIO_pop
PUBLIC 9d048 0 BIO_get_retry_BIO
PUBLIC 9d0a0 0 BIO_get_retry_reason
PUBLIC 9d0a8 0 BIO_find_type
PUBLIC 9d108 0 BIO_next
PUBLIC 9d114 0 BIO_free_all
PUBLIC 9d148 0 BIO_dup_chain
PUBLIC 9d228 0 BIO_copy_next_retry
PUBLIC 9d258 0 BIO_get_ex_new_index
PUBLIC 9d28c 0 BIO_set_ex_data
PUBLIC 9d294 0 BIO_get_ex_data
PUBLIC 9d29c 0 BIO_number_read
PUBLIC 9d2a8 0 BIO_number_written
PUBLIC 9d83c 0 BIO_s_mem
PUBLIC 9d84c 0 BIO_new_mem_buf
PUBLIC 9de18 0 BIO_s_file
PUBLIC 9de28 0 BIO_new_file
PUBLIC 9df4c 0 BIO_new_fp
PUBLIC 9e108 0 BIO_s_socket
PUBLIC 9e118 0 BIO_new_socket
PUBLIC 9e14c 0 BIO_sock_non_fatal_error
PUBLIC 9e190 0 BIO_sock_should_retry
PUBLIC 9ec98 0 BIO_f_buffer
PUBLIC 9fa6c 0 BIO_vprintf
PUBLIC a14e8 0 BIO_printf
PUBLIC a1518 0 BIO_vsnprintf
PUBLIC a25e4 0 BIO_snprintf
PUBLIC a2614 0 sk_set_cmp_func
PUBLIC a2630 0 sk_new
PUBLIC a26d0 0 sk_new_null
PUBLIC a26d8 0 sk_insert
PUBLIC a27b4 0 sk_delete
PUBLIC a2840 0 sk_delete_ptr
PUBLIC a289c 0 sk_push
PUBLIC a28a4 0 sk_unshift
PUBLIC a28ac 0 sk_shift
PUBLIC a28d0 0 sk_pop
PUBLIC a28f4 0 sk_zero
PUBLIC a2928 0 sk_free
PUBLIC a2950 0 sk_dup
PUBLIC a29e0 0 sk_pop_free
PUBLIC a2a30 0 sk_num
PUBLIC a2a40 0 sk_value
PUBLIC a2a7c 0 sk_set
PUBLIC a2abc 0 sk_sort
PUBLIC a2af4 0 sk_find
PUBLIC a2ba8 0 sk_find_ex
PUBLIC a2c5c 0 sk_is_sorted
PUBLIC a2c6c 0 lh_strhash
PUBLIC a2ccc 0 lh_new
PUBLIC a2e5c 0 lh_free
PUBLIC a2ec4 0 lh_insert
PUBLIC a3138 0 lh_delete
PUBLIC a3350 0 lh_retrieve
PUBLIC a3438 0 lh_doall
PUBLIC a3490 0 lh_doall_arg
PUBLIC a34f0 0 lh_num_items
PUBLIC a34fc 0 RAND_set_rand_method
PUBLIC a3540 0 RAND_get_rand_method
PUBLIC a35a4 0 RAND_set_rand_engine
PUBLIC a3604 0 RAND_cleanup
PUBLIC a3630 0 RAND_seed
PUBLIC a3664 0 RAND_add
PUBLIC a36a8 0 RAND_bytes
PUBLIC a36e4 0 RAND_pseudo_bytes
PUBLIC a3720 0 RAND_status
PUBLIC a4194 0 ERR_get_implementation
PUBLIC a4224 0 ERR_set_implementation
PUBLIC a4294 0 ERR_load_ERR_strings
PUBLIC a458c 0 ERR_load_strings
PUBLIC a4614 0 ERR_unload_strings
PUBLIC a4698 0 ERR_free_strings
PUBLIC a4734 0 ERR_get_string_table
PUBLIC a47d4 0 ERR_get_err_state_table
PUBLIC a4874 0 ERR_release_err_state_table
PUBLIC a4918 0 ERR_lib_error_string
PUBLIC a49d8 0 ERR_func_error_string
PUBLIC a4a9c 0 ERR_reason_error_string
PUBLIC a4b98 0 ERR_error_string_n
PUBLIC a4d94 0 ERR_error_string
PUBLIC a4dcc 0 ERR_remove_thread_state
PUBLIC a4e8c 0 ERR_remove_state
PUBLIC a4e94 0 ERR_get_state
PUBLIC a50b8 0 ERR_put_error
PUBLIC a5188 0 ERR_clear_error
PUBLIC a51f8 0 ERR_get_error_line_data
PUBLIC a5314 0 ERR_get_error_line
PUBLIC a53e0 0 ERR_peek_last_error
PUBLIC a5404 0 ERR_peek_error
PUBLIC a5440 0 ERR_get_error
PUBLIC a54c0 0 ERR_peek_last_error_line
PUBLIC a5530 0 ERR_peek_error_line
PUBLIC a55b8 0 ERR_peek_last_error_line_data
PUBLIC a5680 0 ERR_peek_error_line_data
PUBLIC a5760 0 ERR_get_next_error_library
PUBLIC a57fc 0 ERR_set_error_data
PUBLIC a5844 0 ERR_add_error_vdata
PUBLIC a5918 0 ERR_add_error_data
PUBLIC a5948 0 ERR_set_mark
PUBLIC a5978 0 ERR_pop_to_mark
PUBLIC a5a34 0 ERR_load_crypto_strings
PUBLIC a5aac 0 EVP_MD_CTX_init
PUBLIC a5ab8 0 EVP_MD_CTX_create
PUBLIC a5ae8 0 EVP_DigestInit_ex
PUBLIC a5d48 0 EVP_DigestInit
PUBLIC a5d6c 0 EVP_DigestUpdate
PUBLIC a5d7c 0 EVP_DigestFinal_ex
PUBLIC a5e28 0 EVP_MD_CTX_cleanup
PUBLIC a5ef8 0 EVP_DigestFinal
PUBLIC a5f18 0 EVP_MD_CTX_copy_ex
PUBLIC a60e8 0 EVP_MD_CTX_copy
PUBLIC a6108 0 EVP_Digest
PUBLIC a61a0 0 EVP_MD_CTX_destroy
PUBLIC a61bc 0 EVP_CIPHER_CTX_init
PUBLIC a61c8 0 EVP_CIPHER_CTX_new
PUBLIC a61f8 0 EVP_EncryptUpdate
PUBLIC a63d4 0 EVP_EncryptFinal_ex
PUBLIC a650c 0 EVP_EncryptFinal
PUBLIC a6510 0 EVP_DecryptUpdate
PUBLIC a6688 0 EVP_CipherUpdate
PUBLIC a66b0 0 EVP_DecryptFinal_ex
PUBLIC a698c 0 EVP_CipherFinal_ex
PUBLIC a69a0 0 EVP_DecryptFinal
PUBLIC a69a4 0 EVP_CipherFinal
PUBLIC a69b8 0 EVP_CIPHER_CTX_cleanup
PUBLIC a6a38 0 EVP_CIPHER_CTX_free
PUBLIC a6a54 0 EVP_CIPHER_CTX_set_padding
PUBLIC a6a70 0 EVP_CIPHER_CTX_ctrl
PUBLIC a6b34 0 EVP_CipherInit_ex
PUBLIC a6f30 0 EVP_CipherInit
PUBLIC a6f78 0 EVP_EncryptInit
PUBLIC a6f94 0 EVP_DecryptInit
PUBLIC a6fb0 0 EVP_EncryptInit_ex
PUBLIC a6fd4 0 EVP_DecryptInit_ex
PUBLIC a6ff8 0 EVP_CIPHER_CTX_set_key_length
PUBLIC a7088 0 EVP_CIPHER_CTX_rand_key
PUBLIC a70d0 0 EVP_CIPHER_CTX_copy
PUBLIC a7724 0 EVP_des_cbc
PUBLIC a7734 0 EVP_des_cfb64
PUBLIC a7748 0 EVP_des_ofb
PUBLIC a775c 0 EVP_des_ecb
PUBLIC a7770 0 EVP_des_cfb1
PUBLIC a7784 0 EVP_des_cfb8
PUBLIC a7a80 0 EVP_idea_cbc
PUBLIC a7a90 0 EVP_idea_cfb64
PUBLIC a7aa4 0 EVP_idea_ofb
PUBLIC a7ab8 0 EVP_idea_ecb
PUBLIC a8050 0 EVP_des_ede_cbc
PUBLIC a8060 0 EVP_des_ede_cfb64
PUBLIC a8074 0 EVP_des_ede_ofb
PUBLIC a8088 0 EVP_des_ede_ecb
PUBLIC a809c 0 EVP_des_ede3_cbc
PUBLIC a80b0 0 EVP_des_ede3_cfb64
PUBLIC a80c4 0 EVP_des_ede3_ofb
PUBLIC a80d8 0 EVP_des_ede3_ecb
PUBLIC a80ec 0 EVP_des_ede3_cfb1
PUBLIC a8100 0 EVP_des_ede3_cfb8
PUBLIC a8114 0 EVP_des_ede
PUBLIC a8128 0 EVP_des_ede3
PUBLIC a8c50 0 EVP_camellia_128_cbc
PUBLIC a8c60 0 EVP_camellia_128_cfb128
PUBLIC a8c74 0 EVP_camellia_128_ofb
PUBLIC a8c88 0 EVP_camellia_128_ecb
PUBLIC a8c9c 0 EVP_camellia_192_cbc
PUBLIC a8cb0 0 EVP_camellia_192_cfb128
PUBLIC a8cc4 0 EVP_camellia_192_ofb
PUBLIC a8cd8 0 EVP_camellia_192_ecb
PUBLIC a8cec 0 EVP_camellia_256_cbc
PUBLIC a8d00 0 EVP_camellia_256_cfb128
PUBLIC a8d14 0 EVP_camellia_256_ofb
PUBLIC a8d28 0 EVP_camellia_256_ecb
PUBLIC a8d3c 0 EVP_camellia_128_cfb1
PUBLIC a8d50 0 EVP_camellia_192_cfb1
PUBLIC a8d64 0 EVP_camellia_256_cfb1
PUBLIC a8d78 0 EVP_camellia_128_cfb8
PUBLIC a8d8c 0 EVP_camellia_192_cfb8
PUBLIC a8da0 0 EVP_camellia_256_cfb8
PUBLIC a8dfc 0 EVP_rc4
PUBLIC a8e0c 0 EVP_rc4_40
PUBLIC aa138 0 EVP_aes_128_cbc
PUBLIC aa148 0 EVP_aes_128_ecb
PUBLIC aa15c 0 EVP_aes_128_ofb
PUBLIC aa170 0 EVP_aes_128_cfb128
PUBLIC aa184 0 EVP_aes_128_cfb1
PUBLIC aa198 0 EVP_aes_128_cfb8
PUBLIC aa1ac 0 EVP_aes_128_ctr
PUBLIC aa1c0 0 EVP_aes_192_cbc
PUBLIC aa1d4 0 EVP_aes_192_ecb
PUBLIC aa1e8 0 EVP_aes_192_ofb
PUBLIC aa1fc 0 EVP_aes_192_cfb128
PUBLIC aa210 0 EVP_aes_192_cfb1
PUBLIC aa224 0 EVP_aes_192_cfb8
PUBLIC aa238 0 EVP_aes_192_ctr
PUBLIC aa24c 0 EVP_aes_256_cbc
PUBLIC aa260 0 EVP_aes_256_ecb
PUBLIC aa274 0 EVP_aes_256_ofb
PUBLIC aa288 0 EVP_aes_256_cfb128
PUBLIC aa29c 0 EVP_aes_256_cfb1
PUBLIC aa2b0 0 EVP_aes_256_cfb8
PUBLIC aa2c4 0 EVP_aes_256_ctr
PUBLIC aa2d8 0 EVP_aes_128_gcm
PUBLIC aa2f0 0 EVP_aes_192_gcm
PUBLIC aa308 0 EVP_aes_256_gcm
PUBLIC aa320 0 EVP_aes_128_xts
PUBLIC aa334 0 EVP_aes_256_xts
PUBLIC aa34c 0 EVP_aes_128_ccm
PUBLIC aa364 0 EVP_aes_192_ccm
PUBLIC aa37c 0 EVP_aes_256_ccm
PUBLIC aa3f0 0 EVP_add_cipher
PUBLIC aa444 0 EVP_add_digest
PUBLIC aa4f4 0 EVP_get_cipherbyname
PUBLIC aa4fc 0 EVP_get_digestbyname
PUBLIC aa504 0 EVP_cleanup
PUBLIC aa558 0 EVP_CIPHER_do_all
PUBLIC aa58c 0 EVP_CIPHER_do_all_sorted
PUBLIC aa5c0 0 EVP_MD_do_all
PUBLIC aa5f4 0 EVP_MD_do_all_sorted
PUBLIC aa8a0 0 EVP_seed_cbc
PUBLIC aa8b0 0 EVP_seed_cfb128
PUBLIC aa8c4 0 EVP_seed_ofb
PUBLIC aa8d8 0 EVP_seed_ecb
PUBLIC aadc0 0 EVP_rc2_cbc
PUBLIC aadd0 0 EVP_rc2_cfb64
PUBLIC aade4 0 EVP_rc2_ofb
PUBLIC aadf8 0 EVP_rc2_ecb
PUBLIC aae0c 0 EVP_rc2_64_cbc
PUBLIC aae20 0 EVP_rc2_40_cbc
PUBLIC aae54 0 EVP_md5
PUBLIC aaed4 0 EVP_sha1
PUBLIC aaee4 0 EVP_sha224
PUBLIC aaef8 0 EVP_sha256
PUBLIC aaf0c 0 EVP_sha384
PUBLIC aaf20 0 EVP_sha512
PUBLIC aaf54 0 EVP_dss1
PUBLIC aaf84 0 EVP_ecdsa
PUBLIC aaf94 0 EVP_SignFinal
PUBLIC ab18c 0 EVP_VerifyFinal
PUBLIC ab370 0 EVP_PKEY_bits
PUBLIC ab3a4 0 EVP_PKEY_size
PUBLIC ab3d8 0 EVP_PKEY_save_parameters
PUBLIC ab414 0 EVP_PKEY_missing_parameters
PUBLIC ab440 0 EVP_PKEY_copy_parameters
PUBLIC ab4f8 0 EVP_PKEY_cmp_parameters
PUBLIC ab53c 0 EVP_PKEY_cmp
PUBLIC ab5ac 0 EVP_PKEY_new
PUBLIC ab62c 0 EVP_PKEY_set_type
PUBLIC ab744 0 EVP_PKEY_set_type_str
PUBLIC ab880 0 EVP_PKEY_assign
PUBLIC ab8a8 0 EVP_PKEY_get0
PUBLIC ab8b0 0 EVP_PKEY_set1_RSA
PUBLIC ab8dc 0 EVP_PKEY_get1_RSA
PUBLIC ab938 0 EVP_PKEY_set1_DSA
PUBLIC ab964 0 EVP_PKEY_get1_DSA
PUBLIC ab9c0 0 EVP_PKEY_set1_EC_KEY
PUBLIC ab9ec 0 EVP_PKEY_get1_EC_KEY
PUBLIC aba4c 0 EVP_PKEY_set1_DH
PUBLIC aba78 0 EVP_PKEY_get1_DH
PUBLIC abad4 0 EVP_PKEY_type
PUBLIC abb10 0 EVP_PKEY_id
PUBLIC abb18 0 EVP_PKEY_base_id
PUBLIC abb20 0 EVP_PKEY_free
PUBLIC abbd4 0 EVP_PKEY_print_public
PUBLIC abc48 0 EVP_PKEY_print_private
PUBLIC abcbc 0 EVP_PKEY_print_params
PUBLIC abd30 0 EVP_PKEY_get_default_digest_nid
PUBLIC acef4 0 BIO_f_base64
PUBLIC acf04 0 ERR_load_EVP_strings
PUBLIC acf68 0 EVP_enc_null
PUBLIC acf78 0 OpenSSL_add_all_digests
PUBLIC ad104 0 EVP_CIPHER_block_size
PUBLIC ad10c 0 EVP_CIPHER_CTX_block_size
PUBLIC ad118 0 EVP_Cipher
PUBLIC ad12c 0 EVP_CIPHER_CTX_cipher
PUBLIC ad134 0 EVP_CIPHER_flags
PUBLIC ad13c 0 EVP_CIPHER_CTX_flags
PUBLIC ad148 0 EVP_CIPHER_CTX_get_app_data
PUBLIC ad150 0 EVP_CIPHER_CTX_set_app_data
PUBLIC ad158 0 EVP_CIPHER_iv_length
PUBLIC ad160 0 EVP_CIPHER_CTX_iv_length
PUBLIC ad16c 0 EVP_CIPHER_get_asn1_iv
PUBLIC ad1f8 0 EVP_CIPHER_asn1_to_param
PUBLIC ad230 0 EVP_CIPHER_set_asn1_iv
PUBLIC ad290 0 EVP_CIPHER_param_to_asn1
PUBLIC ad2c8 0 EVP_CIPHER_key_length
PUBLIC ad2d0 0 EVP_CIPHER_CTX_key_length
PUBLIC ad2d8 0 EVP_CIPHER_nid
PUBLIC ad2e0 0 EVP_CIPHER_type
PUBLIC ad430 0 EVP_CIPHER_CTX_nid
PUBLIC ad43c 0 EVP_MD_block_size
PUBLIC ad444 0 EVP_MD_type
PUBLIC ad44c 0 EVP_MD_pkey_type
PUBLIC ad454 0 EVP_MD_size
PUBLIC ad4a0 0 EVP_MD_flags
PUBLIC ad4a8 0 EVP_MD_CTX_md
PUBLIC ad4b4 0 EVP_MD_CTX_set_flags
PUBLIC ad4c4 0 EVP_MD_CTX_clear_flags
PUBLIC ad4d4 0 EVP_MD_CTX_test_flags
PUBLIC ad4e0 0 EVP_CIPHER_CTX_set_flags
PUBLIC ad4f0 0 EVP_CIPHER_CTX_clear_flags
PUBLIC ad500 0 EVP_CIPHER_CTX_test_flags
PUBLIC ad554 0 EVP_PBE_alg_add_type
PUBLIC ad624 0 EVP_PBE_alg_add
PUBLIC ad684 0 EVP_PBE_find
PUBLIC ad758 0 EVP_PBE_CipherInit
PUBLIC ad950 0 EVP_PBE_cleanup
PUBLIC ad980 0 PKCS5_PBE_add
PUBLIC ad984 0 PKCS5_PBE_keyivgen
PUBLIC adc90 0 PKCS5_PBKDF2_HMAC
PUBLIC ae18c 0 PKCS5_PBKDF2_HMAC_SHA1
PUBLIC ae1e0 0 PKCS5_v2_PBKDF2_keyivgen
PUBLIC ae508 0 PKCS5_v2_PBE_keyivgen
PUBLIC ae72c 0 EVP_PKEY_meth_find
PUBLIC ae7b4 0 EVP_PKEY_meth_new
PUBLIC ae864 0 EVP_PKEY_meth_get0_info
PUBLIC ae880 0 EVP_PKEY_meth_copy
PUBLIC ae950 0 EVP_PKEY_meth_free
PUBLIC ae968 0 EVP_PKEY_meth_add0
PUBLIC ae9e4 0 EVP_PKEY_CTX_free
PUBLIC aea48 0 EVP_PKEY_CTX_new
PUBLIC aebf4 0 EVP_PKEY_CTX_dup
PUBLIC aed4c 0 EVP_PKEY_CTX_new_id
PUBLIC aeebc 0 EVP_PKEY_CTX_ctrl
PUBLIC af004 0 EVP_PKEY_CTX_ctrl_str
PUBLIC af114 0 EVP_PKEY_CTX_get_operation
PUBLIC af11c 0 EVP_PKEY_CTX_set0_keygen_info
PUBLIC af128 0 EVP_PKEY_CTX_set_data
PUBLIC af130 0 EVP_PKEY_CTX_get_data
PUBLIC af138 0 EVP_PKEY_CTX_get0_pkey
PUBLIC af140 0 EVP_PKEY_CTX_get0_peerkey
PUBLIC af148 0 EVP_PKEY_CTX_set_app_data
PUBLIC af150 0 EVP_PKEY_CTX_get_app_data
PUBLIC af158 0 EVP_PKEY_meth_set_init
PUBLIC af160 0 EVP_PKEY_meth_set_copy
PUBLIC af168 0 EVP_PKEY_meth_set_cleanup
PUBLIC af170 0 EVP_PKEY_meth_set_paramgen
PUBLIC af17c 0 EVP_PKEY_meth_set_keygen
PUBLIC af188 0 EVP_PKEY_meth_set_sign
PUBLIC af194 0 EVP_PKEY_meth_set_verify
PUBLIC af1a0 0 EVP_PKEY_meth_set_verify_recover
PUBLIC af1ac 0 EVP_PKEY_meth_set_signctx
PUBLIC af1b8 0 EVP_PKEY_meth_set_verifyctx
PUBLIC af1c4 0 EVP_PKEY_meth_set_encrypt
PUBLIC af1d0 0 EVP_PKEY_meth_set_decrypt
PUBLIC af1dc 0 EVP_PKEY_meth_set_derive
PUBLIC af1e8 0 EVP_PKEY_meth_set_ctrl
PUBLIC af1f4 0 EVP_PKEY_sign_init
PUBLIC af278 0 EVP_PKEY_sign
PUBLIC af398 0 EVP_PKEY_verify_init
PUBLIC af41c 0 EVP_PKEY_verify
PUBLIC af4bc 0 EVP_PKEY_verify_recover_init
PUBLIC af540 0 EVP_PKEY_verify_recover
PUBLIC af660 0 EVP_PKEY_encrypt_init
PUBLIC af6e4 0 EVP_PKEY_encrypt
PUBLIC af804 0 EVP_PKEY_decrypt_init
PUBLIC af888 0 EVP_PKEY_decrypt
PUBLIC af9b0 0 EVP_PKEY_derive_init
PUBLIC afa38 0 EVP_PKEY_derive_set_peer
PUBLIC afc6c 0 EVP_PKEY_derive
PUBLIC afdb0 0 EVP_PKEY_paramgen_init
PUBLIC afe34 0 EVP_PKEY_paramgen
PUBLIC aff30 0 EVP_PKEY_keygen_init
PUBLIC affb4 0 EVP_PKEY_keygen
PUBLIC b00ac 0 EVP_PKEY_CTX_set_cb
PUBLIC b00b4 0 EVP_PKEY_CTX_get_cb
PUBLIC b00bc 0 evp_pkey_set_cb_translate
PUBLIC b00dc 0 EVP_PKEY_CTX_get_keygen_info
PUBLIC b0114 0 EVP_PKEY_new_mac_key
PUBLIC b0190 0 EVP_DigestSignInit
PUBLIC b02c4 0 EVP_DigestVerifyInit
PUBLIC b03f8 0 EVP_DigestSignFinal
PUBLIC b0544 0 EVP_DigestVerifyFinal
PUBLIC b0638 0 EVP_aes_128_cbc_hmac_sha1
PUBLIC b0640 0 EVP_aes_256_cbc_hmac_sha1
PUBLIC b0648 0 i2d_ASN1_OBJECT
PUBLIC b06e0 0 a2d_ASN1_OBJECT
PUBLIC b0b88 0 i2t_ASN1_OBJECT
PUBLIC b0b90 0 i2a_ASN1_OBJECT
PUBLIC b0c94 0 ASN1_OBJECT_new
PUBLIC b0d14 0 ASN1_OBJECT_free
PUBLIC b0d98 0 c2i_ASN1_OBJECT
PUBLIC b0f98 0 d2i_ASN1_OBJECT
PUBLIC b1040 0 ASN1_OBJECT_create
PUBLIC b1078 0 ASN1_INTEGER_dup
PUBLIC b107c 0 ASN1_INTEGER_cmp
PUBLIC b10b8 0 i2c_ASN1_INTEGER
PUBLIC b1264 0 c2i_ASN1_INTEGER
PUBLIC b1488 0 d2i_ASN1_UINTEGER
PUBLIC b1608 0 ASN1_INTEGER_set
PUBLIC b17b4 0 ASN1_INTEGER_get
PUBLIC b1858 0 BN_to_ASN1_INTEGER
PUBLIC b19a0 0 ASN1_INTEGER_to_BN
PUBLIC b1a24 0 ASN1_TYPE_get
PUBLIC b1a40 0 ASN1_TYPE_set
PUBLIC b1aa4 0 ASN1_TYPE_set1
PUBLIC b1afc 0 ASN1_TYPE_cmp
PUBLIC b1b50 0 ASN1_dup
PUBLIC b1bf8 0 ASN1_item_dup
PUBLIC b1c8c 0 d2i_X509_ALGOR
PUBLIC b1c9c 0 i2d_X509_ALGOR
PUBLIC b1cac 0 X509_ALGOR_new
PUBLIC b1cbc 0 X509_ALGOR_free
PUBLIC b1ccc 0 d2i_X509_ALGORS
PUBLIC b1cdc 0 i2d_X509_ALGORS
PUBLIC b1cec 0 X509_ALGOR_dup
PUBLIC b1d00 0 X509_ALGOR_set0
PUBLIC b1da4 0 X509_ALGOR_get0
PUBLIC b1de4 0 X509_ALGOR_set_md
PUBLIC b1e20 0 d2i_X509_SIG
PUBLIC b1e30 0 i2d_X509_SIG
PUBLIC b1e40 0 X509_SIG_new
PUBLIC b1e50 0 X509_SIG_free
PUBLIC b1e60 0 d2i_X509_ATTRIBUTE
PUBLIC b1e70 0 i2d_X509_ATTRIBUTE
PUBLIC b1e80 0 X509_ATTRIBUTE_new
PUBLIC b1e90 0 X509_ATTRIBUTE_free
PUBLIC b1ea0 0 X509_ATTRIBUTE_dup
PUBLIC b1eb4 0 X509_ATTRIBUTE_create
PUBLIC b2318 0 X509_NAME_ENTRY_free
PUBLIC b2498 0 d2i_X509_NAME_ENTRY
PUBLIC b24a8 0 i2d_X509_NAME_ENTRY
PUBLIC b24b8 0 X509_NAME_ENTRY_new
PUBLIC b2ab4 0 X509_NAME_ENTRY_dup
PUBLIC b2ac8 0 d2i_X509_NAME
PUBLIC b2ad8 0 i2d_X509_NAME
PUBLIC b2ae8 0 X509_NAME_new
PUBLIC b2af8 0 X509_NAME_free
PUBLIC b2d64 0 X509_NAME_dup
PUBLIC b2d78 0 X509_NAME_set
PUBLIC b2ec8 0 d2i_X509_CINF
PUBLIC b2ed8 0 i2d_X509_CINF
PUBLIC b2ee8 0 X509_CINF_new
PUBLIC b2ef8 0 X509_CINF_free
PUBLIC b2f08 0 d2i_X509
PUBLIC b2f18 0 i2d_X509
PUBLIC b2f28 0 X509_new
PUBLIC b2f38 0 X509_free
PUBLIC b2f48 0 X509_dup
PUBLIC b2f5c 0 X509_get_ex_new_index
PUBLIC b2f90 0 X509_set_ex_data
PUBLIC b2f98 0 X509_get_ex_data
PUBLIC b2fa0 0 d2i_X509_AUX
PUBLIC b2ffc 0 i2d_X509_AUX
PUBLIC b3030 0 d2i_X509_CERT_AUX
PUBLIC b3040 0 i2d_X509_CERT_AUX
PUBLIC b3050 0 X509_CERT_AUX_new
PUBLIC b3060 0 X509_CERT_AUX_free
PUBLIC b3070 0 X509_alias_set1
PUBLIC b3138 0 X509_keyid_set1
PUBLIC b3200 0 X509_alias_get0
PUBLIC b322c 0 X509_keyid_get0
PUBLIC b3258 0 X509_add1_trust_object
PUBLIC b32cc 0 X509_add1_reject_object
PUBLIC b3340 0 X509_trust_clear
PUBLIC b3380 0 X509_reject_clear
PUBLIC b33c0 0 d2i_X509_CERT_PAIR
PUBLIC b33d0 0 i2d_X509_CERT_PAIR
PUBLIC b33e0 0 X509_CERT_PAIR_new
PUBLIC b33f0 0 X509_CERT_PAIR_free
PUBLIC b3400 0 d2i_PrivateKey
PUBLIC b3590 0 d2i_AutoPrivateKey
PUBLIC b377c 0 ASN1_primitive_new
PUBLIC b38c0 0 ASN1_template_new
PUBLIC b3c10 0 ASN1_item_ex_new
PUBLIC b3eb4 0 ASN1_item_new
PUBLIC b3ee4 0 ASN1_primitive_free
PUBLIC b3fec 0 ASN1_template_free
PUBLIC b44ac 0 ASN1_item_free
PUBLIC b46c8 0 ASN1_item_ex_free
PUBLIC b490c 0 asn1_ex_i2c
PUBLIC b4c34 0 ASN1_item_ex_i2d
PUBLIC b51cc 0 ASN1_item_ndef_i2d
PUBLIC b5768 0 ASN1_template_i2d
PUBLIC b5788 0 ASN1_item_i2d
PUBLIC b5f78 0 ASN1_tag2bit
PUBLIC b5f9c 0 asn1_ex_c2i
PUBLIC b69cc 0 ASN1_item_ex_d2i
PUBLIC b7444 0 ASN1_item_d2i
PUBLIC b7bf0 0 ASN1_template_d2i
PUBLIC b7f18 0 asn1_get_choice_selector
PUBLIC b7f28 0 asn1_set_choice_selector
PUBLIC b7f3c 0 asn1_do_lock
PUBLIC b7fc4 0 asn1_enc_init
PUBLIC b800c 0 asn1_enc_free
PUBLIC b8070 0 asn1_enc_save
PUBLIC b8114 0 asn1_enc_restore
PUBLIC b81cc 0 asn1_get_field_ptr
PUBLIC b81e4 0 asn1_do_adb
PUBLIC b82d8 0 d2i_ASN1_INTEGER
PUBLIC b82e8 0 i2d_ASN1_INTEGER
PUBLIC b82f8 0 ASN1_INTEGER_new
PUBLIC b8308 0 ASN1_INTEGER_free
PUBLIC b8318 0 d2i_ASN1_ENUMERATED
PUBLIC b8328 0 i2d_ASN1_ENUMERATED
PUBLIC b8338 0 ASN1_ENUMERATED_new
PUBLIC b8348 0 ASN1_ENUMERATED_free
PUBLIC b8358 0 d2i_ASN1_BIT_STRING
PUBLIC b8368 0 i2d_ASN1_BIT_STRING
PUBLIC b8378 0 ASN1_BIT_STRING_new
PUBLIC b8388 0 ASN1_BIT_STRING_free
PUBLIC b8398 0 d2i_ASN1_OCTET_STRING
PUBLIC b83a8 0 i2d_ASN1_OCTET_STRING
PUBLIC b83b8 0 ASN1_OCTET_STRING_new
PUBLIC b83c8 0 ASN1_OCTET_STRING_free
PUBLIC b83d8 0 d2i_ASN1_NULL
PUBLIC b83e8 0 i2d_ASN1_NULL
PUBLIC b83f8 0 ASN1_NULL_new
PUBLIC b8408 0 ASN1_NULL_free
PUBLIC b8418 0 d2i_ASN1_UTF8STRING
PUBLIC b8428 0 i2d_ASN1_UTF8STRING
PUBLIC b8438 0 ASN1_UTF8STRING_new
PUBLIC b8448 0 ASN1_UTF8STRING_free
PUBLIC b8458 0 d2i_ASN1_PRINTABLESTRING
PUBLIC b8468 0 i2d_ASN1_PRINTABLESTRING
PUBLIC b8478 0 ASN1_PRINTABLESTRING_new
PUBLIC b8488 0 ASN1_PRINTABLESTRING_free
PUBLIC b8498 0 d2i_ASN1_T61STRING
PUBLIC b84a8 0 i2d_ASN1_T61STRING
PUBLIC b84b8 0 ASN1_T61STRING_new
PUBLIC b84c8 0 ASN1_T61STRING_free
PUBLIC b84d8 0 d2i_ASN1_IA5STRING
PUBLIC b84e8 0 i2d_ASN1_IA5STRING
PUBLIC b84f8 0 ASN1_IA5STRING_new
PUBLIC b8508 0 ASN1_IA5STRING_free
PUBLIC b8518 0 d2i_ASN1_GENERALSTRING
PUBLIC b8528 0 i2d_ASN1_GENERALSTRING
PUBLIC b8538 0 ASN1_GENERALSTRING_new
PUBLIC b8548 0 ASN1_GENERALSTRING_free
PUBLIC b8558 0 d2i_ASN1_UTCTIME
PUBLIC b8568 0 i2d_ASN1_UTCTIME
PUBLIC b8578 0 ASN1_UTCTIME_new
PUBLIC b8588 0 ASN1_UTCTIME_free
PUBLIC b8598 0 d2i_ASN1_GENERALIZEDTIME
PUBLIC b85a8 0 i2d_ASN1_GENERALIZEDTIME
PUBLIC b85b8 0 ASN1_GENERALIZEDTIME_new
PUBLIC b85c8 0 ASN1_GENERALIZEDTIME_free
PUBLIC b85d8 0 d2i_ASN1_VISIBLESTRING
PUBLIC b85e8 0 i2d_ASN1_VISIBLESTRING
PUBLIC b85f8 0 ASN1_VISIBLESTRING_new
PUBLIC b8608 0 ASN1_VISIBLESTRING_free
PUBLIC b8618 0 d2i_ASN1_UNIVERSALSTRING
PUBLIC b8628 0 i2d_ASN1_UNIVERSALSTRING
PUBLIC b8638 0 ASN1_UNIVERSALSTRING_new
PUBLIC b8648 0 ASN1_UNIVERSALSTRING_free
PUBLIC b8658 0 d2i_ASN1_BMPSTRING
PUBLIC b8668 0 i2d_ASN1_BMPSTRING
PUBLIC b8678 0 ASN1_BMPSTRING_new
PUBLIC b8688 0 ASN1_BMPSTRING_free
PUBLIC b8698 0 d2i_ASN1_TYPE
PUBLIC b86a8 0 i2d_ASN1_TYPE
PUBLIC b86b8 0 ASN1_TYPE_new
PUBLIC b86c8 0 ASN1_TYPE_free
PUBLIC b86d8 0 d2i_ASN1_PRINTABLE
PUBLIC b86e8 0 i2d_ASN1_PRINTABLE
PUBLIC b86f8 0 ASN1_PRINTABLE_new
PUBLIC b8708 0 ASN1_PRINTABLE_free
PUBLIC b8718 0 d2i_DISPLAYTEXT
PUBLIC b8728 0 i2d_DISPLAYTEXT
PUBLIC b8738 0 DISPLAYTEXT_new
PUBLIC b8748 0 DISPLAYTEXT_free
PUBLIC b8758 0 d2i_DIRECTORYSTRING
PUBLIC b8768 0 i2d_DIRECTORYSTRING
PUBLIC b8778 0 DIRECTORYSTRING_new
PUBLIC b8788 0 DIRECTORYSTRING_free
PUBLIC b8798 0 d2i_ASN1_SEQUENCE_ANY
PUBLIC b87a8 0 i2d_ASN1_SEQUENCE_ANY
PUBLIC b87b8 0 d2i_ASN1_SET_ANY
PUBLIC b87c8 0 i2d_ASN1_SET_ANY
PUBLIC b8808 0 EVP_PKEY_asn1_get_count
PUBLIC b8834 0 EVP_PKEY_asn1_get0
PUBLIC b8878 0 EVP_PKEY_asn1_find
PUBLIC b8964 0 EVP_PKEY_asn1_find_str
PUBLIC b8a4c 0 EVP_PKEY_asn1_add0
PUBLIC b8ad0 0 EVP_PKEY_asn1_get0_info
PUBLIC b8b44 0 EVP_PKEY_get0_asn1
PUBLIC b8b4c 0 EVP_PKEY_asn1_copy
PUBLIC b8bfc 0 EVP_PKEY_asn1_free
PUBLIC b8c40 0 EVP_PKEY_asn1_new
PUBLIC b8d58 0 EVP_PKEY_asn1_add_alias
PUBLIC b8dac 0 EVP_PKEY_asn1_set_public
PUBLIC b8ddc 0 EVP_PKEY_asn1_set_private
PUBLIC b8dec 0 EVP_PKEY_asn1_set_param
PUBLIC b8e1c 0 EVP_PKEY_asn1_set_free
PUBLIC b8e24 0 EVP_PKEY_asn1_set_ctrl
PUBLIC b8e2c 0 d2i_X509_EXTENSION
PUBLIC b8e3c 0 i2d_X509_EXTENSION
PUBLIC b8e4c 0 X509_EXTENSION_new
PUBLIC b8e5c 0 X509_EXTENSION_free
PUBLIC b8e6c 0 d2i_X509_EXTENSIONS
PUBLIC b8e7c 0 i2d_X509_EXTENSIONS
PUBLIC b8e8c 0 X509_EXTENSION_dup
PUBLIC b8ea0 0 ASN1_check_infinite_end
PUBLIC b8eec 0 ASN1_const_check_infinite_end
PUBLIC b8f38 0 ASN1_get_object
PUBLIC b9120 0 ASN1_put_object
PUBLIC b9248 0 ASN1_put_eoc
PUBLIC b926c 0 ASN1_object_size
PUBLIC b92c4 0 asn1_Finish
PUBLIC b9338 0 asn1_const_Finish
PUBLIC b93ac 0 asn1_GetSequence
PUBLIC b9478 0 ASN1_STRING_set
PUBLIC b9590 0 ASN1_STRING_copy
PUBLIC b95d4 0 ASN1_STRING_set0
PUBLIC b9600 0 ASN1_STRING_type_new
PUBLIC b9670 0 ASN1_STRING_new
PUBLIC b9678 0 ASN1_STRING_free
PUBLIC b96b8 0 ASN1_STRING_dup
PUBLIC b96fc 0 ASN1_STRING_cmp
PUBLIC b9738 0 asn1_add_error
PUBLIC b97b4 0 ASN1_STRING_length
PUBLIC b97bc 0 ASN1_STRING_length_set
PUBLIC b97c4 0 ASN1_STRING_type
PUBLIC b97cc 0 ASN1_STRING_data
PUBLIC b97d4 0 ERR_load_ASN1_strings
PUBLIC b980c 0 ASN1_TYPE_set_octetstring
PUBLIC b9870 0 ASN1_TYPE_get_octetstring
PUBLIC b98e0 0 ASN1_TYPE_set_int_octetstring
PUBLIC b9a04 0 ASN1_TYPE_get_int_octetstring
PUBLIC b9be4 0 d2i_PBEPARAM
PUBLIC b9bf4 0 i2d_PBEPARAM
PUBLIC b9c04 0 PBEPARAM_new
PUBLIC b9c14 0 PBEPARAM_free
PUBLIC b9c24 0 PKCS5_pbe_set0_algor
PUBLIC b9dd8 0 PKCS5_pbe_set
PUBLIC b9e5c 0 d2i_PBE2PARAM
PUBLIC b9e6c 0 i2d_PBE2PARAM
PUBLIC b9e7c 0 PBE2PARAM_new
PUBLIC b9e8c 0 PBE2PARAM_free
PUBLIC b9e9c 0 d2i_PBKDF2PARAM
PUBLIC b9eac 0 i2d_PBKDF2PARAM
PUBLIC b9ebc 0 PBKDF2PARAM_new
PUBLIC b9ecc 0 PBKDF2PARAM_free
PUBLIC b9edc 0 PKCS5_pbkdf2_set
PUBLIC ba0ac 0 PKCS5_pbe2_set_iv
PUBLIC ba348 0 PKCS5_pbe2_set
PUBLIC ba3a4 0 d2i_PKCS8_PRIV_KEY_INFO
PUBLIC ba3b4 0 i2d_PKCS8_PRIV_KEY_INFO
PUBLIC ba3c4 0 PKCS8_PRIV_KEY_INFO_new
PUBLIC ba3d4 0 PKCS8_PRIV_KEY_INFO_free
PUBLIC ba3e4 0 PKCS8_pkey_set0
PUBLIC ba4a8 0 PKCS8_pkey_get0
PUBLIC ba53c 0 PEM_def_callback
PUBLIC ba63c 0 PEM_proc_type
PUBLIC ba6d4 0 PEM_dek_info
PUBLIC ba7a4 0 PEM_ASN1_read
PUBLIC ba844 0 PEM_do_header
PUBLIC baa78 0 PEM_get_EVP_CIPHER_INFO
PUBLIC bad40 0 PEM_write_bio
PUBLIC bb000 0 PEM_ASN1_write_bio
PUBLIC bb470 0 PEM_ASN1_write
PUBLIC bb530 0 PEM_write
PUBLIC bb5cc 0 PEM_read_bio
PUBLIC bbdc4 0 PEM_read
PUBLIC bbe60 0 pem_check_suffix
PUBLIC bbec0 0 PEM_bytes_read_bio
PUBLIC bc2fc 0 PEM_read_bio_X509_REQ
PUBLIC bc338 0 PEM_read_X509_REQ
PUBLIC bc374 0 PEM_write_bio_X509_REQ
PUBLIC bc3c4 0 PEM_write_X509_REQ
PUBLIC bc414 0 PEM_write_bio_X509_REQ_NEW
PUBLIC bc464 0 PEM_write_X509_REQ_NEW
PUBLIC bc4b4 0 PEM_read_bio_X509_CRL
PUBLIC bc4f0 0 PEM_read_X509_CRL
PUBLIC bc52c 0 PEM_write_bio_X509_CRL
PUBLIC bc57c 0 PEM_write_X509_CRL
PUBLIC bc5cc 0 PEM_read_bio_PKCS7
PUBLIC bc608 0 PEM_read_PKCS7
PUBLIC bc644 0 PEM_write_bio_PKCS7
PUBLIC bc694 0 PEM_write_PKCS7
PUBLIC bc6e4 0 PEM_read_bio_NETSCAPE_CERT_SEQUENCE
PUBLIC bc720 0 PEM_read_NETSCAPE_CERT_SEQUENCE
PUBLIC bc75c 0 PEM_write_bio_NETSCAPE_CERT_SEQUENCE
PUBLIC bc7ac 0 PEM_write_NETSCAPE_CERT_SEQUENCE
PUBLIC bc7fc 0 PEM_read_bio_RSAPrivateKey
PUBLIC bc858 0 PEM_read_RSAPrivateKey
PUBLIC bc8b4 0 PEM_write_bio_RSAPrivateKey
PUBLIC bc908 0 PEM_write_RSAPrivateKey
PUBLIC bc95c 0 PEM_read_bio_RSAPublicKey
PUBLIC bc998 0 PEM_read_RSAPublicKey
PUBLIC bc9d4 0 PEM_write_bio_RSAPublicKey
PUBLIC bca24 0 PEM_write_RSAPublicKey
PUBLIC bca74 0 PEM_read_bio_RSA_PUBKEY
PUBLIC bcab0 0 PEM_read_RSA_PUBKEY
PUBLIC bcaec 0 PEM_write_bio_RSA_PUBKEY
PUBLIC bcb3c 0 PEM_write_RSA_PUBKEY
PUBLIC bcb8c 0 PEM_read_bio_DSAPrivateKey
PUBLIC bcbe8 0 PEM_write_bio_DSAPrivateKey
PUBLIC bcc3c 0 PEM_write_DSAPrivateKey
PUBLIC bcc90 0 PEM_read_bio_DSA_PUBKEY
PUBLIC bcccc 0 PEM_read_DSA_PUBKEY
PUBLIC bcd08 0 PEM_write_bio_DSA_PUBKEY
PUBLIC bcd58 0 PEM_write_DSA_PUBKEY
PUBLIC bcda8 0 PEM_read_DSAPrivateKey
PUBLIC bce04 0 PEM_read_bio_DSAparams
PUBLIC bce40 0 PEM_read_DSAparams
PUBLIC bce7c 0 PEM_write_bio_DSAparams
PUBLIC bcecc 0 PEM_write_DSAparams
PUBLIC bcf1c 0 PEM_read_bio_ECPrivateKey
PUBLIC bcf78 0 PEM_read_bio_ECPKParameters
PUBLIC bcfb4 0 PEM_read_ECPKParameters
PUBLIC bcff0 0 PEM_write_bio_ECPKParameters
PUBLIC bd040 0 PEM_write_ECPKParameters
PUBLIC bd090 0 PEM_write_bio_ECPrivateKey
PUBLIC bd0e4 0 PEM_write_ECPrivateKey
PUBLIC bd138 0 PEM_read_bio_EC_PUBKEY
PUBLIC bd174 0 PEM_read_EC_PUBKEY
PUBLIC bd1b0 0 PEM_write_bio_EC_PUBKEY
PUBLIC bd200 0 PEM_write_EC_PUBKEY
PUBLIC bd250 0 PEM_read_ECPrivateKey
PUBLIC bd2ac 0 PEM_read_bio_DHparams
PUBLIC bd2e8 0 PEM_read_DHparams
PUBLIC bd324 0 PEM_write_bio_DHparams
PUBLIC bd374 0 PEM_write_DHparams
PUBLIC bd3c4 0 PEM_read_bio_PUBKEY
PUBLIC bd400 0 PEM_read_PUBKEY
PUBLIC bd43c 0 PEM_write_bio_PUBKEY
PUBLIC bd48c 0 PEM_write_PUBKEY
PUBLIC bd4dc 0 ERR_load_PEM_strings
PUBLIC bd514 0 PEM_read_bio_X509
PUBLIC bd550 0 PEM_read_X509
PUBLIC bd58c 0 PEM_write_bio_X509
PUBLIC bd5dc 0 PEM_write_X509
PUBLIC bd62c 0 PEM_read_bio_X509_AUX
PUBLIC bd668 0 PEM_read_X509_AUX
PUBLIC bd6a4 0 PEM_write_bio_X509_AUX
PUBLIC bd6f4 0 PEM_write_X509_AUX
PUBLIC bd744 0 PEM_read_bio_X509_CERT_PAIR
PUBLIC bd780 0 PEM_read_X509_CERT_PAIR
PUBLIC bd7bc 0 PEM_write_bio_X509_CERT_PAIR
PUBLIC bd80c 0 PEM_write_X509_CERT_PAIR
PUBLIC bd85c 0 PEM_ASN1_read_bio
PUBLIC bd908 0 PEM_read_bio_PrivateKey
PUBLIC bdb44 0 PEM_write_bio_PrivateKey
PUBLIC bdc08 0 PEM_read_bio_Parameters
PUBLIC bdd28 0 PEM_write_bio_Parameters
PUBLIC bddb8 0 PEM_read_PrivateKey
PUBLIC bde48 0 PEM_write_PrivateKey
PUBLIC bdedc 0 X509_STORE_set_default_paths
PUBLIC bdf60 0 X509_STORE_load_locations
PUBLIC be018 0 X509_issuer_and_serial_hash
PUBLIC be100 0 X509_CRL_match
PUBLIC be110 0 X509_get_issuer_name
PUBLIC be11c 0 X509_get_subject_name
PUBLIC be128 0 X509_get_serialNumber
PUBLIC be134 0 X509_cmp
PUBLIC be170 0 X509_NAME_cmp
PUBLIC be210 0 X509_issuer_and_serial_cmp
PUBLIC be240 0 X509_issuer_name_cmp
PUBLIC be254 0 X509_subject_name_cmp
PUBLIC be268 0 X509_CRL_cmp
PUBLIC be27c 0 X509_NAME_hash
PUBLIC be2e8 0 X509_issuer_name_hash
PUBLIC be2f4 0 X509_subject_name_hash
PUBLIC be300 0 X509_NAME_hash_old
PUBLIC be3b8 0 X509_issuer_name_hash_old
PUBLIC be3c4 0 X509_subject_name_hash_old
PUBLIC be3d0 0 X509_find_by_issuer_and_serial
PUBLIC be448 0 X509_find_by_subject
PUBLIC be4a4 0 X509_get_pubkey
PUBLIC be4c8 0 X509_get0_pubkey_bitstr
PUBLIC be4dc 0 X509_check_private_key
PUBLIC be5cc 0 X509_NAME_oneline
PUBLIC bedcc 0 X509_time_adj_ex
PUBLIC bee68 0 X509_time_adj
PUBLIC bee78 0 X509_cmp_time
PUBLIC bf0a0 0 X509_cmp_current_time
PUBLIC bfe30 0 X509_gmtime_adj
PUBLIC bfe38 0 X509_get_pubkey_parameters
PUBLIC bff74 0 X509_verify_cert
PUBLIC c0950 0 X509_STORE_CTX_get_ex_new_index
PUBLIC c0984 0 X509_STORE_CTX_set_ex_data
PUBLIC c098c 0 X509_STORE_CTX_get_ex_data
PUBLIC c0994 0 X509_STORE_CTX_get_error
PUBLIC c099c 0 X509_STORE_CTX_set_error
PUBLIC c09a4 0 X509_STORE_CTX_get_error_depth
PUBLIC c09ac 0 X509_STORE_CTX_get_current_cert
PUBLIC c09b4 0 X509_STORE_CTX_get_chain
PUBLIC c09bc 0 X509_STORE_CTX_get1_chain
PUBLIC c0a40 0 X509_STORE_CTX_get0_current_issuer
PUBLIC c0a48 0 X509_STORE_CTX_get0_current_crl
PUBLIC c0a50 0 X509_STORE_CTX_get0_parent_ctx
PUBLIC c0a58 0 X509_STORE_CTX_set_cert
PUBLIC c0a60 0 X509_STORE_CTX_set_chain
PUBLIC c0a68 0 X509_STORE_CTX_set0_crls
PUBLIC c0a70 0 X509_STORE_CTX_purpose_inherit
PUBLIC c0bdc 0 X509_STORE_CTX_set_purpose
PUBLIC c0bec 0 X509_STORE_CTX_set_trust
PUBLIC c0bfc 0 X509_STORE_CTX_new
PUBLIC c0c68 0 X509_STORE_CTX_init
PUBLIC c0fe4 0 X509_STORE_CTX_trusted_stack
PUBLIC c0ffc 0 X509_STORE_CTX_cleanup
PUBLIC c10b0 0 X509_STORE_CTX_free
PUBLIC c10c8 0 X509_STORE_CTX_set_depth
PUBLIC c10d0 0 X509_STORE_CTX_set_flags
PUBLIC c10d8 0 X509_STORE_CTX_set_time
PUBLIC c10e4 0 X509_STORE_CTX_set_verify_cb
PUBLIC c10ec 0 X509_STORE_CTX_get0_policy_tree
PUBLIC c10f4 0 X509_STORE_CTX_get_explicit_policy
PUBLIC c10fc 0 X509_STORE_CTX_set_default
PUBLIC c1120 0 X509_STORE_CTX_get0_param
PUBLIC c1128 0 X509_STORE_CTX_set0_param
PUBLIC c14d0 0 ERR_load_X509_strings
PUBLIC c1508 0 X509v3_get_ext_count
PUBLIC c1514 0 X509v3_get_ext_by_OBJ
PUBLIC c157c 0 X509v3_get_ext_by_NID
PUBLIC c15b0 0 X509v3_get_ext_by_critical
PUBLIC c1640 0 X509v3_get_ext
PUBLIC c167c 0 X509v3_delete_ext
PUBLIC c16b8 0 X509v3_add_ext
PUBLIC c1800 0 X509_EXTENSION_set_object
PUBLIC c183c 0 X509_EXTENSION_set_critical
PUBLIC c185c 0 X509_EXTENSION_set_data
PUBLIC c1888 0 X509_EXTENSION_create_by_OBJ
PUBLIC c1974 0 X509_EXTENSION_create_by_NID
PUBLIC c19fc 0 X509_EXTENSION_get_object
PUBLIC c1a08 0 X509_EXTENSION_get_data
PUBLIC c1a14 0 X509_EXTENSION_get_critical
PUBLIC c1a30 0 X509_CRL_get_ext_count
PUBLIC c1a3c 0 X509_CRL_get_ext_by_NID
PUBLIC c1a48 0 X509_CRL_get_ext_by_OBJ
PUBLIC c1a54 0 X509_CRL_get_ext_by_critical
PUBLIC c1a60 0 X509_CRL_get_ext
PUBLIC c1a6c 0 X509_CRL_delete_ext
PUBLIC c1a78 0 X509_CRL_get_ext_d2i
PUBLIC c1a84 0 X509_CRL_add1_ext_i2d
PUBLIC c1a90 0 X509_CRL_add_ext
PUBLIC c1aac 0 X509_get_ext_count
PUBLIC c1ab8 0 X509_get_ext_by_NID
PUBLIC c1ac4 0 X509_get_ext_by_OBJ
PUBLIC c1ad0 0 X509_get_ext_by_critical
PUBLIC c1adc 0 X509_get_ext
PUBLIC c1ae8 0 X509_delete_ext
PUBLIC c1af4 0 X509_add_ext
PUBLIC c1b10 0 X509_get_ext_d2i
PUBLIC c1b1c 0 X509_add1_ext_i2d
PUBLIC c1b28 0 X509_REVOKED_get_ext_count
PUBLIC c1b30 0 X509_REVOKED_get_ext_by_NID
PUBLIC c1b38 0 X509_REVOKED_get_ext_by_OBJ
PUBLIC c1b40 0 X509_REVOKED_get_ext_by_critical
PUBLIC c1b48 0 X509_REVOKED_get_ext
PUBLIC c1b50 0 X509_REVOKED_delete_ext
PUBLIC c1b58 0 X509_REVOKED_add_ext
PUBLIC c1b70 0 X509_REVOKED_get_ext_d2i
PUBLIC c1b78 0 X509_REVOKED_add1_ext_i2d
PUBLIC c1b80 0 X509_certificate_type
PUBLIC c1ec8 0 X509_LOOKUP_new
PUBLIC c1f3c 0 X509_LOOKUP_free
PUBLIC c1f70 0 X509_LOOKUP_init
PUBLIC c1fa4 0 X509_LOOKUP_shutdown
PUBLIC c1fd8 0 X509_LOOKUP_ctrl
PUBLIC c2018 0 X509_LOOKUP_by_subject
PUBLIC c205c 0 X509_LOOKUP_by_issuer_serial
PUBLIC c209c 0 X509_LOOKUP_by_fingerprint
PUBLIC c20dc 0 X509_LOOKUP_by_alias
PUBLIC c211c 0 X509_STORE_new
PUBLIC c21e8 0 X509_STORE_free
PUBLIC c2274 0 X509_STORE_add_lookup
PUBLIC c22fc 0 X509_OBJECT_up_ref_count
PUBLIC c2378 0 X509_OBJECT_free_contents
PUBLIC c239c 0 X509_OBJECT_idx_by_subject
PUBLIC c23a4 0 X509_OBJECT_retrieve_by_subject
PUBLIC c23d0 0 X509_STORE_get_by_subject
PUBLIC c24e8 0 X509_STORE_get1_certs
PUBLIC c26c8 0 X509_STORE_get1_crls
PUBLIC c28a8 0 X509_OBJECT_retrieve_match
PUBLIC c299c 0 X509_STORE_add_cert
PUBLIC c2ab4 0 X509_STORE_add_crl
PUBLIC c2bc4 0 X509_STORE_CTX_get1_issuer
PUBLIC c2d8c 0 X509_STORE_set_flags
PUBLIC c2d94 0 X509_STORE_set_depth
PUBLIC c2da8 0 X509_STORE_set_purpose
PUBLIC c2db0 0 X509_STORE_set_trust
PUBLIC c2db8 0 X509_STORE_set1_param
PUBLIC c2dc0 0 X509_STORE_set_verify_cb
PUBLIC c2dc8 0 X509_verify
PUBLIC c2e00 0 X509_REQ_verify
PUBLIC c2e38 0 NETSCAPE_SPKI_verify
PUBLIC c2e70 0 X509_sign
PUBLIC c2ebc 0 X509_sign_ctx
PUBLIC c2f00 0 X509_REQ_sign
PUBLIC c2f40 0 X509_REQ_sign_ctx
PUBLIC c2f80 0 X509_CRL_sign
PUBLIC c2fcc 0 X509_CRL_sign_ctx
PUBLIC c3010 0 NETSCAPE_SPKI_sign
PUBLIC c3050 0 d2i_X509_fp
PUBLIC c3068 0 i2d_X509_fp
PUBLIC c3080 0 d2i_X509_bio
PUBLIC c3098 0 i2d_X509_bio
PUBLIC c30b0 0 d2i_X509_CRL_fp
PUBLIC c30c8 0 i2d_X509_CRL_fp
PUBLIC c30e0 0 d2i_X509_CRL_bio
PUBLIC c30f8 0 i2d_X509_CRL_bio
PUBLIC c3110 0 d2i_PKCS7_fp
PUBLIC c3128 0 i2d_PKCS7_fp
PUBLIC c3140 0 d2i_PKCS7_bio
PUBLIC c3158 0 i2d_PKCS7_bio
PUBLIC c3170 0 d2i_X509_REQ_fp
PUBLIC c3188 0 i2d_X509_REQ_fp
PUBLIC c31a0 0 d2i_X509_REQ_bio
PUBLIC c31b8 0 i2d_X509_REQ_bio
PUBLIC c31d0 0 d2i_RSAPrivateKey_fp
PUBLIC c31e8 0 i2d_RSAPrivateKey_fp
PUBLIC c3200 0 d2i_RSAPublicKey_fp
PUBLIC c3218 0 d2i_RSA_PUBKEY_fp
PUBLIC c3244 0 i2d_RSAPublicKey_fp
PUBLIC c325c 0 i2d_RSA_PUBKEY_fp
PUBLIC c3274 0 d2i_RSAPrivateKey_bio
PUBLIC c328c 0 i2d_RSAPrivateKey_bio
PUBLIC c32a4 0 d2i_RSAPublicKey_bio
PUBLIC c32bc 0 d2i_RSA_PUBKEY_bio
PUBLIC c32e8 0 i2d_RSAPublicKey_bio
PUBLIC c3300 0 i2d_RSA_PUBKEY_bio
PUBLIC c3318 0 d2i_DSAPrivateKey_fp
PUBLIC c3344 0 i2d_DSAPrivateKey_fp
PUBLIC c335c 0 d2i_DSA_PUBKEY_fp
PUBLIC c3388 0 i2d_DSA_PUBKEY_fp
PUBLIC c33a0 0 d2i_DSAPrivateKey_bio
PUBLIC c33cc 0 i2d_DSAPrivateKey_bio
PUBLIC c33e4 0 d2i_DSA_PUBKEY_bio
PUBLIC c3410 0 i2d_DSA_PUBKEY_bio
PUBLIC c3428 0 d2i_EC_PUBKEY_fp
PUBLIC c3454 0 i2d_EC_PUBKEY_fp
PUBLIC c346c 0 d2i_ECPrivateKey_fp
PUBLIC c3498 0 i2d_ECPrivateKey_fp
PUBLIC c34b0 0 d2i_EC_PUBKEY_bio
PUBLIC c34dc 0 i2d_EC_PUBKEY_bio
PUBLIC c34f4 0 d2i_ECPrivateKey_bio
PUBLIC c3520 0 i2d_ECPrivateKey_bio
PUBLIC c3538 0 X509_pubkey_digest
PUBLIC c3580 0 X509_digest
PUBLIC c35b4 0 X509_CRL_digest
PUBLIC c35e8 0 X509_REQ_digest
PUBLIC c361c 0 X509_NAME_digest
PUBLIC c3650 0 PKCS7_ISSUER_AND_SERIAL_digest
PUBLIC c3684 0 d2i_PKCS8_fp
PUBLIC c36b0 0 i2d_PKCS8_fp
PUBLIC c36c8 0 d2i_PKCS8_bio
PUBLIC c36f4 0 i2d_PKCS8_bio
PUBLIC c370c 0 d2i_PKCS8_PRIV_KEY_INFO_fp
PUBLIC c3738 0 i2d_PKCS8_PRIV_KEY_INFO_fp
PUBLIC c3750 0 i2d_PKCS8PrivateKeyInfo_fp
PUBLIC c3790 0 i2d_PrivateKey_fp
PUBLIC c37a8 0 d2i_PrivateKey_fp
PUBLIC c37d4 0 i2d_PUBKEY_fp
PUBLIC c37ec 0 d2i_PUBKEY_fp
PUBLIC c3818 0 d2i_PKCS8_PRIV_KEY_INFO_bio
PUBLIC c3844 0 i2d_PKCS8_PRIV_KEY_INFO_bio
PUBLIC c385c 0 i2d_PKCS8PrivateKeyInfo_bio
PUBLIC c389c 0 i2d_PrivateKey_bio
PUBLIC c38b4 0 d2i_PrivateKey_bio
PUBLIC c38e0 0 i2d_PUBKEY_bio
PUBLIC c38f8 0 d2i_PUBKEY_bio
PUBLIC c3bf8 0 X509_TRUST_set_default
PUBLIC c3c14 0 X509_TRUST_get_count
PUBLIC c3c40 0 X509_TRUST_get0
PUBLIC c3c8c 0 X509_TRUST_get_by_id
PUBLIC c3ce4 0 X509_check_trust
PUBLIC c3d50 0 X509_TRUST_set
PUBLIC c3dac 0 X509_TRUST_add
PUBLIC c3f70 0 X509_TRUST_cleanup
PUBLIC c3ff4 0 X509_TRUST_get_flags
PUBLIC c3ffc 0 X509_TRUST_get0_name
PUBLIC c4004 0 X509_TRUST_get_trust
PUBLIC c400c 0 X509_LOOKUP_file
PUBLIC c401c 0 X509_load_cert_file
PUBLIC c41d8 0 X509_load_crl_file
PUBLIC c4394 0 X509_load_cert_crl_file
PUBLIC c4f20 0 X509_LOOKUP_hash_dir
PUBLIC c4f50 0 X509_VERIFY_PARAM_free
PUBLIC c4fa8 0 X509_VERIFY_PARAM_new
PUBLIC c5024 0 X509_VERIFY_PARAM_set1_name
PUBLIC c5058 0 X509_VERIFY_PARAM_set_flags
PUBLIC c5074 0 X509_VERIFY_PARAM_clear_flags
PUBLIC c508c 0 X509_VERIFY_PARAM_get_flags
PUBLIC c5094 0 X509_VERIFY_PARAM_set_purpose
PUBLIC c509c 0 X509_VERIFY_PARAM_set_trust
PUBLIC c50a4 0 X509_VERIFY_PARAM_set_depth
PUBLIC c50ac 0 X509_VERIFY_PARAM_set_time
PUBLIC c50c0 0 X509_VERIFY_PARAM_add0_policy
PUBLIC c5108 0 X509_VERIFY_PARAM_set1_policies
PUBLIC c51d0 0 X509_VERIFY_PARAM_inherit
PUBLIC c5348 0 X509_VERIFY_PARAM_set1
PUBLIC c5368 0 X509_VERIFY_PARAM_get_depth
PUBLIC c5370 0 X509_VERIFY_PARAM_add0_table
PUBLIC c53f8 0 X509_VERIFY_PARAM_lookup
PUBLIC c5478 0 X509_VERIFY_PARAM_table_cleanup
PUBLIC c54f8 0 X509V3_EXT_add
PUBLIC c55b4 0 X509V3_EXT_get_nid
PUBLIC c5658 0 X509V3_EXT_get
PUBLIC c5674 0 X509V3_EXT_add_list
PUBLIC c56ac 0 X509V3_EXT_add_alias
PUBLIC c5780 0 X509V3_EXT_cleanup
PUBLIC c57b0 0 X509V3_add_standard_extensions
PUBLIC c57b8 0 X509V3_EXT_d2i
PUBLIC c581c 0 X509V3_get_d2i
PUBLIC c5938 0 X509V3_add1_i2d
PUBLIC c5ac4 0 ERR_load_X509V3_strings
PUBLIC c5afc 0 d2i_GENERAL_NAME
PUBLIC c5b0c 0 i2d_GENERAL_NAME
PUBLIC c5b1c 0 d2i_OTHERNAME
PUBLIC c5b2c 0 i2d_OTHERNAME
PUBLIC c5b3c 0 OTHERNAME_new
PUBLIC c5b4c 0 OTHERNAME_free
PUBLIC c5b5c 0 d2i_EDIPARTYNAME
PUBLIC c5b6c 0 i2d_EDIPARTYNAME
PUBLIC c5b7c 0 EDIPARTYNAME_new
PUBLIC c5b8c 0 EDIPARTYNAME_free
PUBLIC c5b9c 0 GENERAL_NAME_new
PUBLIC c5bac 0 GENERAL_NAME_free
PUBLIC c5bbc 0 d2i_GENERAL_NAMES
PUBLIC c5bcc 0 i2d_GENERAL_NAMES
PUBLIC c5bdc 0 GENERAL_NAMES_new
PUBLIC c5bec 0 GENERAL_NAMES_free
PUBLIC c5bfc 0 GENERAL_NAME_dup
PUBLIC c5c1c 0 OTHERNAME_cmp
PUBLIC c5c60 0 GENERAL_NAME_cmp
PUBLIC c5cfc 0 GENERAL_NAME_set0_value
PUBLIC c5d38 0 GENERAL_NAME_get0_value
PUBLIC c5d88 0 GENERAL_NAME_set0_othername
PUBLIC c5dc8 0 GENERAL_NAME_get0_otherName
PUBLIC c5e10 0 i2v_GENERAL_NAME
PUBLIC c60f8 0 i2v_GENERAL_NAMES
PUBLIC c615c 0 GENERAL_NAME_print
PUBLIC c637c 0 a2i_GENERAL_NAME
PUBLIC c6778 0 v2i_GENERAL_NAME_ex
PUBLIC c691c 0 v2i_GENERAL_NAME
PUBLIC c6f80 0 v2i_GENERAL_NAMES
PUBLIC c7044 0 i2s_ASN1_OCTET_STRING
PUBLIC c7050 0 s2i_ASN1_OCTET_STRING
PUBLIC c7750 0 d2i_PKEY_USAGE_PERIOD
PUBLIC c7760 0 i2d_PKEY_USAGE_PERIOD
PUBLIC c7770 0 PKEY_USAGE_PERIOD_new
PUBLIC c7780 0 PKEY_USAGE_PERIOD_free
PUBLIC c7798 0 i2s_ASN1_ENUMERATED_TABLE
PUBLIC c78d8 0 d2i_SXNETID
PUBLIC c78e8 0 i2d_SXNETID
PUBLIC c78f8 0 SXNETID_new
PUBLIC c7908 0 SXNETID_free
PUBLIC c7918 0 d2i_SXNET
PUBLIC c7928 0 i2d_SXNET
PUBLIC c7938 0 SXNET_new
PUBLIC c7948 0 SXNET_free
PUBLIC c7958 0 SXNET_get_id_INTEGER
PUBLIC c79b4 0 SXNET_add_id_INTEGER
PUBLIC c7b90 0 SXNET_add_id_asc
PUBLIC c7c64 0 SXNET_add_id_ulong
PUBLIC c7cf0 0 SXNET_get_id_asc
PUBLIC c7d5c 0 SXNET_get_id_ulong
PUBLIC c812c 0 POLICYINFO_free
PUBLIC c813c 0 d2i_CERTIFICATEPOLICIES
PUBLIC c814c 0 i2d_CERTIFICATEPOLICIES
PUBLIC c815c 0 CERTIFICATEPOLICIES_new
PUBLIC c816c 0 CERTIFICATEPOLICIES_free
PUBLIC c817c 0 d2i_POLICYINFO
PUBLIC c818c 0 i2d_POLICYINFO
PUBLIC c819c 0 POLICYINFO_new
PUBLIC c81ac 0 d2i_POLICYQUALINFO
PUBLIC c81bc 0 i2d_POLICYQUALINFO
PUBLIC c81cc 0 POLICYQUALINFO_new
PUBLIC c81dc 0 POLICYQUALINFO_free
PUBLIC c81ec 0 d2i_USERNOTICE
PUBLIC c81fc 0 i2d_USERNOTICE
PUBLIC c820c 0 USERNOTICE_new
PUBLIC c821c 0 USERNOTICE_free
PUBLIC c822c 0 d2i_NOTICEREF
PUBLIC c823c 0 i2d_NOTICEREF
PUBLIC c824c 0 NOTICEREF_new
PUBLIC c8d8c 0 NOTICEREF_free
PUBLIC c8d9c 0 X509_POLICY_NODE_print
PUBLIC c8fc0 0 DIST_POINT_free
PUBLIC c9680 0 d2i_DIST_POINT_NAME
PUBLIC c9690 0 i2d_DIST_POINT_NAME
PUBLIC c96a0 0 DIST_POINT_NAME_new
PUBLIC c96b0 0 DIST_POINT_NAME_free
PUBLIC c96c0 0 d2i_DIST_POINT
PUBLIC c96d0 0 i2d_DIST_POINT
PUBLIC c96e0 0 DIST_POINT_new
PUBLIC c9cc4 0 d2i_CRL_DIST_POINTS
PUBLIC c9cd4 0 i2d_CRL_DIST_POINTS
PUBLIC c9ce4 0 CRL_DIST_POINTS_new
PUBLIC c9cf4 0 CRL_DIST_POINTS_free
PUBLIC c9d04 0 d2i_ISSUING_DIST_POINT
PUBLIC c9d14 0 i2d_ISSUING_DIST_POINT
PUBLIC c9d24 0 ISSUING_DIST_POINT_new
PUBLIC c9d34 0 ISSUING_DIST_POINT_free
PUBLIC ca1f0 0 DIST_POINT_set_dpname
PUBLIC ca990 0 X509_PURPOSE_get_count
PUBLIC ca9bc 0 X509_PURPOSE_get0
PUBLIC caa04 0 X509_PURPOSE_get_by_sname
PUBLIC caa50 0 X509_PURPOSE_get_by_id
PUBLIC caaa8 0 X509_PURPOSE_set
PUBLIC cab04 0 X509_PURPOSE_add
PUBLIC cace8 0 X509_PURPOSE_cleanup
PUBLIC cad7c 0 X509_PURPOSE_get_id
PUBLIC cad84 0 X509_PURPOSE_get0_name
PUBLIC cad8c 0 X509_PURPOSE_get0_sname
PUBLIC cad94 0 X509_PURPOSE_get_trust
PUBLIC cad9c 0 X509_supported_extension
PUBLIC cb3b8 0 X509_check_purpose
PUBLIC cb464 0 X509_check_ca
PUBLIC cb540 0 X509_check_akid
PUBLIC cb61c 0 X509_check_issued
PUBLIC cb844 0 ACCESS_DESCRIPTION_free
PUBLIC cb854 0 d2i_ACCESS_DESCRIPTION
PUBLIC cb864 0 i2d_ACCESS_DESCRIPTION
PUBLIC cb874 0 ACCESS_DESCRIPTION_new
PUBLIC cbaa8 0 d2i_AUTHORITY_INFO_ACCESS
PUBLIC cbab8 0 i2d_AUTHORITY_INFO_ACCESS
PUBLIC cbac8 0 AUTHORITY_INFO_ACCESS_new
PUBLIC cbad8 0 AUTHORITY_INFO_ACCESS_free
PUBLIC cbae8 0 i2a_ACCESS_DESCRIPTION
PUBLIC cbfac 0 d2i_AUTHORITY_KEYID
PUBLIC cbfbc 0 i2d_AUTHORITY_KEYID
PUBLIC cbfcc 0 AUTHORITY_KEYID_new
PUBLIC cbfdc 0 AUTHORITY_KEYID_free
PUBLIC cc070 0 POLICY_MAPPING_free
PUBLIC cc080 0 POLICY_MAPPING_new
PUBLIC cc304 0 POLICY_CONSTRAINTS_new
PUBLIC cc314 0 POLICY_CONSTRAINTS_free
PUBLIC ccb10 0 GENERAL_SUBTREE_new
PUBLIC ccb20 0 GENERAL_SUBTREE_free
PUBLIC ccb30 0 NAME_CONSTRAINTS_new
PUBLIC ccb40 0 NAME_CONSTRAINTS_free
PUBLIC ccd30 0 NAME_CONSTRAINTS_check
PUBLIC cce24 0 d2i_PROXY_POLICY
PUBLIC cce34 0 i2d_PROXY_POLICY
PUBLIC cce44 0 PROXY_POLICY_new
PUBLIC cce54 0 PROXY_POLICY_free
PUBLIC cce64 0 d2i_PROXY_CERT_INFO_EXTENSION
PUBLIC cce74 0 i2d_PROXY_CERT_INFO_EXTENSION
PUBLIC cce84 0 PROXY_CERT_INFO_EXTENSION_new
PUBLIC cce94 0 PROXY_CERT_INFO_EXTENSION_free
PUBLIC cdbbc 0 policy_cache_free
PUBLIC cdc00 0 policy_cache_set
PUBLIC cdf48 0 policy_cache_find_data
PUBLIC cdf88 0 policy_data_free
PUBLIC cdfd8 0 policy_data_new
PUBLIC ce0c4 0 policy_cache_set_mapping
PUBLIC ce23c 0 X509_policy_tree_free
PUBLIC ce2fc 0 X509_policy_check
PUBLIC ced9c 0 X509_policy_tree_level_count
PUBLIC ceda8 0 X509_policy_tree_get0_level
PUBLIC cede4 0 X509_policy_tree_get0_policies
PUBLIC cedf0 0 X509_policy_tree_get0_user_policies
PUBLIC cee0c 0 X509_policy_level_node_count
PUBLIC cee48 0 X509_policy_level_get0_node
PUBLIC cee78 0 X509_policy_node_get0_policy
PUBLIC cee88 0 X509_policy_node_get0_qualifiers
PUBLIC cee98 0 X509_policy_node_get0_parent
PUBLIC ceea4 0 ERR_load_CONF_strings
PUBLIC cefb4 0 d2i_PKCS7
PUBLIC cefc4 0 i2d_PKCS7
PUBLIC cefd4 0 PKCS7_new
PUBLIC cefe4 0 PKCS7_free
PUBLIC ceff4 0 i2d_PKCS7_NDEF
PUBLIC cf004 0 PKCS7_dup
PUBLIC cf018 0 d2i_PKCS7_SIGNED
PUBLIC cf028 0 i2d_PKCS7_SIGNED
PUBLIC cf038 0 PKCS7_SIGNED_new
PUBLIC cf048 0 PKCS7_SIGNED_free
PUBLIC cf058 0 d2i_PKCS7_SIGNER_INFO
PUBLIC cf068 0 i2d_PKCS7_SIGNER_INFO
PUBLIC cf078 0 PKCS7_SIGNER_INFO_new
PUBLIC cf088 0 PKCS7_SIGNER_INFO_free
PUBLIC cf098 0 d2i_PKCS7_ISSUER_AND_SERIAL
PUBLIC cf0a8 0 i2d_PKCS7_ISSUER_AND_SERIAL
PUBLIC cf0b8 0 PKCS7_ISSUER_AND_SERIAL_new
PUBLIC cf0c8 0 PKCS7_ISSUER_AND_SERIAL_free
PUBLIC cf0d8 0 d2i_PKCS7_ENVELOPE
PUBLIC cf0e8 0 i2d_PKCS7_ENVELOPE
PUBLIC cf0f8 0 PKCS7_ENVELOPE_new
PUBLIC cf108 0 PKCS7_ENVELOPE_free
PUBLIC cf118 0 d2i_PKCS7_RECIP_INFO
PUBLIC cf128 0 i2d_PKCS7_RECIP_INFO
PUBLIC cf138 0 PKCS7_RECIP_INFO_new
PUBLIC cf148 0 PKCS7_RECIP_INFO_free
PUBLIC cf158 0 d2i_PKCS7_ENC_CONTENT
PUBLIC cf168 0 i2d_PKCS7_ENC_CONTENT
PUBLIC cf178 0 PKCS7_ENC_CONTENT_new
PUBLIC cf188 0 PKCS7_ENC_CONTENT_free
PUBLIC cf198 0 d2i_PKCS7_SIGN_ENVELOPE
PUBLIC cf1a8 0 i2d_PKCS7_SIGN_ENVELOPE
PUBLIC cf1b8 0 PKCS7_SIGN_ENVELOPE_new
PUBLIC cf1c8 0 PKCS7_SIGN_ENVELOPE_free
PUBLIC cf1d8 0 d2i_PKCS7_ENCRYPT
PUBLIC cf1e8 0 i2d_PKCS7_ENCRYPT
PUBLIC cf1f8 0 PKCS7_ENCRYPT_new
PUBLIC cf208 0 PKCS7_ENCRYPT_free
PUBLIC cf218 0 d2i_PKCS7_DIGEST
PUBLIC cf228 0 i2d_PKCS7_DIGEST
PUBLIC cf238 0 PKCS7_DIGEST_new
PUBLIC cf248 0 PKCS7_DIGEST_free
PUBLIC cf258 0 PKCS7_print_ctx
PUBLIC cf280 0 PKCS7_ctrl
PUBLIC cf3d4 0 PKCS7_set_content
PUBLIC cf47c 0 PKCS7_set_type
PUBLIC cf664 0 PKCS7_content_new
PUBLIC cf6b8 0 PKCS7_set0_type_other
PUBLIC cf6dc 0 PKCS7_add_signer
PUBLIC cf840 0 PKCS7_add_certificate
PUBLIC cf954 0 PKCS7_add_crl
PUBLIC cfa68 0 PKCS7_SIGNER_INFO_set
PUBLIC cfbcc 0 PKCS7_add_signature
PUBLIC cfc98 0 PKCS7_set_digest
PUBLIC cfd68 0 PKCS7_get_signer_info
PUBLIC cfda4 0 PKCS7_SIGNER_INFO_get0_algs
PUBLIC cfdcc 0 PKCS7_RECIP_INFO_get0_alg
PUBLIC cfddc 0 PKCS7_add_recipient_info
PUBLIC cfe60 0 PKCS7_RECIP_INFO_set
PUBLIC d0010 0 PKCS7_add_recipient
PUBLIC d0064 0 PKCS7_cert_from_signer_info
PUBLIC d00a4 0 PKCS7_set_cipher
PUBLIC d0160 0 PKCS7_stream
PUBLIC d0234 0 ERR_load_PKCS7_strings
PUBLIC d050c 0 PKCS7_dataInit
PUBLIC d0d58 0 PKCS7_dataDecode
PUBLIC d14bc 0 PKCS7_SIGNER_INFO_sign
PUBLIC d169c 0 PKCS7_get_issuer_and_serial
PUBLIC d1708 0 PKCS7_get_signed_attribute
PUBLIC d17a0 0 PKCS7_dataFinal
PUBLIC d1ef4 0 PKCS7_get_attribute
PUBLIC d1f8c 0 PKCS7_digest_from_attributes
PUBLIC d2034 0 PKCS7_signatureVerify
PUBLIC d2384 0 PKCS7_dataVerify
PUBLIC d2500 0 PKCS7_set_signed_attributes
PUBLIC d2594 0 PKCS7_set_attributes
PUBLIC d2628 0 PKCS7_add_signed_attribute
PUBLIC d2630 0 PKCS7_add_attribute
PUBLIC d2638 0 PKCS7_add_attrib_smimecap
PUBLIC d26bc 0 PKCS7_get_smimecap
PUBLIC d2714 0 PKCS7_simple_smimecap
PUBLIC d2864 0 PKCS7_add_attrib_content_type
PUBLIC d28b8 0 PKCS7_add0_attrib_signing_time
PUBLIC d2928 0 PKCS7_add1_attrib_digest
PUBLIC d298c 0 PKCS12_PBE_add
PUBLIC d2990 0 PKCS12_PBE_keyivgen
PUBLIC d2bb8 0 PKCS12_key_gen_uni
PUBLIC d30e8 0 PKCS12_key_gen_asc
PUBLIC d31c8 0 OPENSSL_asc2uni
PUBLIC d326c 0 OPENSSL_uni2asc
PUBLIC d32f8 0 i2d_PKCS12_bio
PUBLIC d3310 0 i2d_PKCS12_fp
PUBLIC d3328 0 d2i_PKCS12_bio
PUBLIC d3340 0 d2i_PKCS12_fp
PUBLIC d3358 0 PKCS12_x5092certbag
PUBLIC d3370 0 PKCS12_x509crl2certbag
PUBLIC d3388 0 PKCS12_certbag2x509
PUBLIC d33d8 0 PKCS12_certbag2x509crl
PUBLIC d3428 0 ERR_load_PKCS12_strings
PUBLIC d3460 0 PKCS8_decrypt
PUBLIC d34a4 0 COMP_CTX_new
PUBLIC d3518 0 COMP_CTX_free
PUBLIC d3544 0 COMP_compress_block
PUBLIC d3598 0 COMP_expand_block
PUBLIC d35f0 0 ERR_load_COMP_strings
PUBLIC d4064 0 COMP_zlib
PUBLIC d4148 0 COMP_zlib_cleanup
PUBLIC d414c 0 BIO_f_zlib
PUBLIC d4160 0 d2i_OCSP_SIGNATURE
PUBLIC d4170 0 i2d_OCSP_SIGNATURE
PUBLIC d4180 0 OCSP_SIGNATURE_new
PUBLIC d4190 0 OCSP_SIGNATURE_free
PUBLIC d41a0 0 d2i_OCSP_CERTID
PUBLIC d41b0 0 i2d_OCSP_CERTID
PUBLIC d41c0 0 OCSP_CERTID_new
PUBLIC d41d0 0 OCSP_CERTID_free
PUBLIC d41e0 0 d2i_OCSP_ONEREQ
PUBLIC d41f0 0 i2d_OCSP_ONEREQ
PUBLIC d4200 0 OCSP_ONEREQ_new
PUBLIC d4210 0 OCSP_ONEREQ_free
PUBLIC d4220 0 d2i_OCSP_REQINFO
PUBLIC d4230 0 i2d_OCSP_REQINFO
PUBLIC d4240 0 OCSP_REQINFO_new
PUBLIC d4250 0 OCSP_REQINFO_free
PUBLIC d4260 0 d2i_OCSP_REQUEST
PUBLIC d4270 0 i2d_OCSP_REQUEST
PUBLIC d4280 0 OCSP_REQUEST_new
PUBLIC d4290 0 OCSP_REQUEST_free
PUBLIC d42a0 0 d2i_OCSP_RESPBYTES
PUBLIC d42b0 0 i2d_OCSP_RESPBYTES
PUBLIC d42c0 0 OCSP_RESPBYTES_new
PUBLIC d42d0 0 OCSP_RESPBYTES_free
PUBLIC d42e0 0 d2i_OCSP_RESPONSE
PUBLIC d42f0 0 i2d_OCSP_RESPONSE
PUBLIC d4300 0 OCSP_RESPONSE_new
PUBLIC d4310 0 OCSP_RESPONSE_free
PUBLIC d4320 0 d2i_OCSP_RESPID
PUBLIC d4330 0 i2d_OCSP_RESPID
PUBLIC d4340 0 OCSP_RESPID_new
PUBLIC d4350 0 OCSP_RESPID_free
PUBLIC d4360 0 d2i_OCSP_REVOKEDINFO
PUBLIC d4370 0 i2d_OCSP_REVOKEDINFO
PUBLIC d4380 0 OCSP_REVOKEDINFO_new
PUBLIC d4390 0 OCSP_REVOKEDINFO_free
PUBLIC d43a0 0 d2i_OCSP_CERTSTATUS
PUBLIC d43b0 0 i2d_OCSP_CERTSTATUS
PUBLIC d43c0 0 OCSP_CERTSTATUS_new
PUBLIC d43d0 0 OCSP_CERTSTATUS_free
PUBLIC d43e0 0 d2i_OCSP_SINGLERESP
PUBLIC d43f0 0 i2d_OCSP_SINGLERESP
PUBLIC d4400 0 OCSP_SINGLERESP_new
PUBLIC d4410 0 OCSP_SINGLERESP_free
PUBLIC d4420 0 d2i_OCSP_RESPDATA
PUBLIC d4430 0 i2d_OCSP_RESPDATA
PUBLIC d4440 0 OCSP_RESPDATA_new
PUBLIC d4450 0 OCSP_RESPDATA_free
PUBLIC d4460 0 d2i_OCSP_BASICRESP
PUBLIC d4470 0 i2d_OCSP_BASICRESP
PUBLIC d4480 0 OCSP_BASICRESP_new
PUBLIC d4490 0 OCSP_BASICRESP_free
PUBLIC d44a0 0 d2i_OCSP_CRLID
PUBLIC d44b0 0 i2d_OCSP_CRLID
PUBLIC d44c0 0 OCSP_CRLID_new
PUBLIC d44d0 0 OCSP_CRLID_free
PUBLIC d44e0 0 d2i_OCSP_SERVICELOC
PUBLIC d44f0 0 i2d_OCSP_SERVICELOC
PUBLIC d4500 0 OCSP_SERVICELOC_new
PUBLIC d4510 0 OCSP_SERVICELOC_free
PUBLIC d4520 0 ERR_load_OCSP_strings
PUBLIC d4558 0 ERR_load_UI_strings
PUBLIC d4590 0 ERR_load_CMS_strings
PUBLIC d45c8 0 pitem_new
PUBLIC d4614 0 pitem_free
PUBLIC d4620 0 pqueue_new
PUBLIC d4674 0 pqueue_free
PUBLIC d4680 0 pqueue_insert
PUBLIC d4704 0 pqueue_peek
PUBLIC d470c 0 pqueue_pop
PUBLIC d4724 0 pqueue_find
PUBLIC d4780 0 pqueue_print
PUBLIC d47f0 0 pqueue_iterator
PUBLIC d47f4 0 pqueue_next
PUBLIC d4818 0 pqueue_size
PUBLIC d4844 0 ERR_load_TS_strings
PUBLIC d4998 0 SRP_Calc_u
PUBLIC d4aec 0 SRP_Calc_server_key
PUBLIC d4bec 0 SRP_Calc_B
PUBLIC d4d20 0 SRP_Calc_x
PUBLIC d4e94 0 SRP_Calc_A
PUBLIC d4f20 0 SRP_Calc_client_key
PUBLIC d50d8 0 SRP_Verify_B_mod_N
PUBLIC d5154 0 SRP_Verify_A_mod_N
PUBLIC d5158 0 SRP_check_known_gN_param
PUBLIC d51e4 0 SRP_get_default_gN
PUBLIC d584c 0 SRP_VBASE_new
PUBLIC d58fc 0 SRP_VBASE_free
PUBLIC d5938 0 SRP_VBASE_init
PUBLIC d5ed0 0 SRP_VBASE_get_by_user
PUBLIC d60a4 0 SRP_create_verifier_BN
PUBLIC d61d0 0 SRP_create_verifier
PUBLIC d67fc 0 ERR_load_CRYPTO_strings
PUBLIC d6834 0 ERR_load_OBJ_strings
PUBLIC d6d8c 0 DES_set_odd_parity
PUBLIC d6e04 0 DES_check_key_parity
PUBLIC d6ea0 0 DES_is_weak_key
PUBLIC d704c 0 DES_set_key_unchecked
PUBLIC d7290 0 DES_set_key_checked
PUBLIC d72dc 0 DES_set_key
PUBLIC d730c 0 DES_key_sched
PUBLIC d7310 0 DES_options
PUBLIC d73a0 0 DES_ecb_encrypt
PUBLIC d7448 0 DES_ecb3_encrypt
PUBLIC d7508 0 DES_cfb64_encrypt
PUBLIC d76e8 0 DES_ede3_cfb64_encrypt
PUBLIC d78d4 0 DES_ede3_cfb_encrypt
PUBLIC d8230 0 DES_cfb_encrypt
PUBLIC d8b9c 0 DES_ede3_ofb64_encrypt
PUBLIC d8d68 0 DES_ofb64_encrypt
PUBLIC d8f0c 0 DES_encrypt1
PUBLIC da4a8 0 DES_encrypt2
PUBLIC db8dc 0 DES_encrypt3
PUBLIC db9f4 0 DES_decrypt3
PUBLIC dbb10 0 DES_ncbc_encrypt
PUBLIC dc100 0 DES_ede3_cbc_encrypt
PUBLIC dc718 0 AES_options
PUBLIC dc728 0 AES_set_encrypt_key
PUBLIC dc72c 0 AES_set_decrypt_key
PUBLIC dc730 0 private_AES_set_encrypt_key
PUBLIC dcbb8 0 private_AES_set_decrypt_key
PUBLIC dceb4 0 AES_encrypt
PUBLIC dd40c 0 AES_decrypt
PUBLIC dd928 0 AES_cbc_encrypt
PUBLIC dd96c 0 RC2_ecb_encrypt
PUBLIC dda20 0 RC2_set_key
PUBLIC ddbf0 0 RC2_encrypt
PUBLIC ddd24 0 RC2_decrypt
PUBLIC dde8c 0 RC2_cbc_encrypt
PUBLIC de46c 0 RC2_cfb64_encrypt
PUBLIC de63c 0 RC2_ofb64_encrypt
PUBLIC de7dc 0 RC4_options
PUBLIC de7ec 0 private_RC4_set_key
PUBLIC de908 0 idea_encrypt
PUBLIC df018 0 idea_cbc_encrypt
PUBLIC df5fc 0 idea_cfb64_encrypt
PUBLIC df7cc 0 idea_ofb64_encrypt
PUBLIC df96c 0 idea_options
PUBLIC df97c 0 idea_ecb_encrypt
PUBLIC dfa20 0 idea_set_encrypt_key
PUBLIC dfbc4 0 idea_set_decrypt_key
PUBLIC dfd78 0 Camellia_ecb_encrypt
PUBLIC dfd88 0 Camellia_ofb128_encrypt
PUBLIC dfdb8 0 Camellia_cfb128_encrypt
PUBLIC dfdf0 0 Camellia_cfb1_encrypt
PUBLIC dfe28 0 Camellia_cfb8_encrypt
PUBLIC dfe60 0 Camellia_set_key
PUBLIC dfe64 0 private_Camellia_set_key
PUBLIC dfec0 0 Camellia_encrypt
PUBLIC dfed0 0 Camellia_decrypt
PUBLIC dfee0 0 Camellia_cbc_encrypt
PUBLIC dff24 0 SEED_set_key
PUBLIC e0d68 0 SEED_encrypt
PUBLIC e1cf0 0 SEED_decrypt
PUBLIC e2c78 0 SEED_ecb_encrypt
PUBLIC e2c88 0 SEED_cbc_encrypt
PUBLIC e2ccc 0 SEED_cfb128_encrypt
PUBLIC e2d04 0 SEED_ofb128_encrypt
PUBLIC e2d34 0 CRYPTO_cbc128_encrypt
PUBLIC e30f8 0 CRYPTO_cbc128_decrypt
PUBLIC e373c 0 CRYPTO_ctr128_encrypt
PUBLIC e3ec0 0 CRYPTO_ctr128_encrypt_ctr32
PUBLIC e4408 0 CRYPTO_cfb128_encrypt
PUBLIC e4a84 0 CRYPTO_cfb128_1_encrypt
PUBLIC e4c4c 0 CRYPTO_cfb128_8_encrypt
PUBLIC e4d48 0 CRYPTO_ofb128_encrypt
PUBLIC e55a0 0 CRYPTO_gcm128_init
PUBLIC e59b8 0 CRYPTO_gcm128_setiv
PUBLIC e5e60 0 CRYPTO_gcm128_aad
PUBLIC e61c4 0 CRYPTO_gcm128_encrypt
PUBLIC e6848 0 CRYPTO_gcm128_decrypt
PUBLIC e6ee0 0 CRYPTO_gcm128_encrypt_ctr32
PUBLIC e7314 0 CRYPTO_gcm128_decrypt_ctr32
PUBLIC e774c 0 CRYPTO_gcm128_finish
PUBLIC e7904 0 CRYPTO_gcm128_tag
PUBLIC e793c 0 CRYPTO_gcm128_new
PUBLIC e7980 0 CRYPTO_gcm128_release
PUBLIC e79a0 0 CRYPTO_ccm128_init
PUBLIC e79f8 0 CRYPTO_ccm128_setiv
PUBLIC e7a60 0 CRYPTO_ccm128_aad
PUBLIC e7b88 0 CRYPTO_ccm128_encrypt
PUBLIC e85dc 0 CRYPTO_ccm128_decrypt
PUBLIC e8c10 0 CRYPTO_ccm128_encrypt_ccm64
PUBLIC e94a0 0 CRYPTO_ccm128_decrypt_ccm64
PUBLIC e99b4 0 CRYPTO_ccm128_tag
PUBLIC e99f8 0 CRYPTO_xts128_encrypt
PUBLIC ea2b4 0 BN_uadd
PUBLIC ea3e4 0 BN_usub
PUBLIC ea604 0 BN_add
PUBLIC ea6a8 0 BN_sub
PUBLIC ea7b0 0 BN_div
PUBLIC eb0dc 0 BN_pseudo_rand
PUBLIC eb25c 0 BN_rand
PUBLIC eb3dc 0 BN_bntest_rand
PUBLIC eb5e0 0 BN_rand_range
PUBLIC eb5f0 0 BN_pseudo_rand_range
PUBLIC eb600 0 BN_BLINDING_free
PUBLIC eb658 0 BN_BLINDING_new
PUBLIC eb750 0 BN_BLINDING_invert_ex
PUBLIC eb7d8 0 BN_BLINDING_invert
PUBLIC eb7e8 0 BN_BLINDING_get_thread_id
PUBLIC eb7f0 0 BN_BLINDING_set_thread_id
PUBLIC eb7f8 0 BN_BLINDING_thread_id
PUBLIC eb800 0 BN_BLINDING_get_flags
PUBLIC eb808 0 BN_BLINDING_set_flags
PUBLIC eb810 0 BN_BLINDING_create_param
PUBLIC eb9d4 0 BN_BLINDING_update
PUBLIC ebb14 0 BN_BLINDING_convert_ex
PUBLIC ebbe8 0 BN_BLINDING_convert
PUBLIC ebbf8 0 BN_gcd
PUBLIC ebdcc 0 BN_mod_inverse
PUBLIC ec7fc 0 BN_GENCB_call
PUBLIC ec870 0 BN_is_prime_fasttest_ex
PUBLIC ecd10 0 BN_generate_prime_ex
PUBLIC ed260 0 BN_is_prime_ex
PUBLIC ed27c 0 ERR_load_BN_strings
PUBLIC ed2b4 0 EC_GROUP_new_curve_GFp
PUBLIC ed380 0 EC_GROUP_new_curve_GF2m
PUBLIC ed3e4 0 ERR_load_EC_strings
PUBLIC edcec 0 EC_GROUP_get_basis_type
PUBLIC edd6c 0 EC_GROUP_get_trinomial_basis
PUBLIC ede00 0 EC_GROUP_get_pentanomial_basis
PUBLIC edec8 0 X9_62_PENTANOMIAL_new
PUBLIC eded8 0 X9_62_PENTANOMIAL_free
PUBLIC edee8 0 X9_62_CHARACTERISTIC_TWO_new
PUBLIC edef8 0 X9_62_CHARACTERISTIC_TWO_free
PUBLIC edf08 0 ECPARAMETERS_new
PUBLIC edf18 0 ECPARAMETERS_free
PUBLIC eea94 0 d2i_ECPKPARAMETERS
PUBLIC eeaa4 0 i2d_ECPKPARAMETERS
PUBLIC eeab4 0 ECPKPARAMETERS_new
PUBLIC eeac4 0 ECPKPARAMETERS_free
PUBLIC eead4 0 d2i_EC_PRIVATEKEY
PUBLIC eeae4 0 i2d_EC_PRIVATEKEY
PUBLIC eeaf4 0 EC_PRIVATEKEY_new
PUBLIC eeb04 0 EC_PRIVATEKEY_free
PUBLIC eeb14 0 d2i_ECPKParameters
PUBLIC eecac 0 i2d_ECPKParameters
PUBLIC eede4 0 d2i_ECPrivateKey
PUBLIC ef27c 0 i2d_ECPrivateKey
PUBLIC ef738 0 i2d_ECParameters
PUBLIC ef78c 0 d2i_ECParameters
PUBLIC ef8ac 0 o2i_ECPublicKey
PUBLIC ef9d4 0 i2o_ECPublicKey
PUBLIC efb60 0 ec_GF2m_simple_is_at_infinity
PUBLIC efb70 0 ec_GF2m_simple_points_make_affine
PUBLIC efbc0 0 ec_GF2m_simple_group_init
PUBLIC efbe8 0 ec_GF2m_simple_point_init
PUBLIC efc10 0 ec_GF2m_simple_group_finish
PUBLIC efc34 0 ec_GF2m_simple_point_finish
PUBLIC efc58 0 ec_GF2m_simple_group_clear_finish
PUBLIC efc9c 0 ec_GF2m_simple_point_clear_finish
PUBLIC efcc8 0 ec_GF2m_simple_group_get_curve
PUBLIC efd40 0 ec_GF2m_simple_group_copy
PUBLIC efeb8 0 ec_GF2m_simple_group_set_curve
PUBLIC f004c 0 ec_GF2m_simple_group_get_degree
PUBLIC f0060 0 ec_GF2m_simple_group_check_discriminant
PUBLIC f011c 0 ec_GF2m_simple_point_set_to_infinity
PUBLIC f013c 0 ec_GF2m_simple_field_mul
PUBLIC f0154 0 ec_GF2m_simple_field_sqr
PUBLIC f0168 0 ec_GF2m_simple_field_div
PUBLIC f0180 0 ec_GF2m_simple_point_copy
PUBLIC f01dc 0 ec_GF2m_simple_point_set_affine_coordinates
PUBLIC f02c4 0 ec_GF2m_simple_point_get_affine_coordinates
PUBLIC f03dc 0 ec_GF2m_simple_cmp
PUBLIC f0578 0 ec_GF2m_simple_make_affine
PUBLIC f0680 0 ec_GF2m_simple_is_on_curve
PUBLIC f0800 0 ec_GF2m_simple_add
PUBLIC f0c24 0 ec_GF2m_simple_dbl
PUBLIC f0c40 0 ec_GF2m_simple_invert
PUBLIC f0c9c 0 EC_GF2m_simple_method
PUBLIC f15a4 0 ec_GF2m_simple_mul
PUBLIC f1820 0 ec_GF2m_precompute_mult
PUBLIC f1824 0 ec_GF2m_have_precompute_mult
PUBLIC f30dc 0 EC_KEY_print
PUBLIC f3138 0 EC_KEY_print_fp
PUBLIC f31c4 0 ECParameters_print
PUBLIC f321c 0 ECParameters_print_fp
PUBLIC f32a0 0 ECPKParameters_print
PUBLIC f3af8 0 ECPKParameters_print_fp
PUBLIC f3b84 0 ec_GFp_simple_set_compressed_coordinates
PUBLIC f400c 0 ec_GFp_simple_point2oct
PUBLIC f4394 0 ec_GFp_simple_oct2point
PUBLIC f4724 0 ec_GF2m_simple_set_compressed_coordinates
PUBLIC f49bc 0 ec_GF2m_simple_point2oct
PUBLIC f4d80 0 ec_GF2m_simple_oct2point
PUBLIC f6a4c 0 RSA_PKCS1_SSLeay
PUBLIC f6a5c 0 ERR_load_RSA_strings
PUBLIC f6a94 0 RSA_padding_add_PKCS1_type_1
PUBLIC f6b38 0 RSA_padding_check_PKCS1_type_1
PUBLIC f6cd4 0 RSA_padding_add_PKCS1_type_2
PUBLIC f6dcc 0 RSA_padding_check_PKCS1_type_2
PUBLIC f6f7c 0 RSA_padding_add_SSLv23
PUBLIC f7084 0 RSA_padding_check_SSLv23
PUBLIC f724c 0 RSA_padding_add_none
PUBLIC f72d8 0 RSA_padding_check_none
PUBLIC f7350 0 PKCS1_MGF1
PUBLIC f7498 0 RSA_padding_add_PKCS1_OAEP
PUBLIC f77c0 0 RSA_padding_check_PKCS1_OAEP
PUBLIC f7be0 0 RSA_padding_add_X931
PUBLIC f7ca0 0 RSA_padding_check_X931
PUBLIC f7dfc 0 RSA_X931_hash_id
PUBLIC fa1c0 0 DSA_set_default_method
PUBLIC fa1d4 0 DSA_get_default_method
PUBLIC fa1fc 0 DSA_set_method
PUBLIC fa254 0 DSA_new_method
PUBLIC fa414 0 DSA_new
PUBLIC fa41c 0 DSA_free
PUBLIC fa518 0 DSA_up_ref
PUBLIC fa558 0 DSA_size
PUBLIC fa5b8 0 DSA_get_ex_new_index
PUBLIC fa5ec 0 DSA_set_ex_data
PUBLIC fa5f4 0 DSA_get_ex_data
PUBLIC fa5fc 0 DSA_dup_DH
PUBLIC fa6cc 0 ERR_load_DSA_strings
PUBLIC fb048 0 DSA_OpenSSL
PUBLIC fc9f8 0 ECDSA_set_default_method
PUBLIC fca0c 0 ECDSA_get_default_method
PUBLIC fcb20 0 ecdsa_check
PUBLIC fcc9c 0 ECDSA_set_method
PUBLIC fccdc 0 ECDSA_size
PUBLIC fcd94 0 ECDSA_get_ex_new_index
PUBLIC fcdc8 0 ECDSA_set_ex_data
PUBLIC fcdf4 0 ECDSA_get_ex_data
PUBLIC fce18 0 d2i_ECDSA_SIG
PUBLIC fce28 0 i2d_ECDSA_SIG
PUBLIC fce38 0 ECDSA_SIG_new
PUBLIC fce48 0 ECDSA_SIG_free
PUBLIC fde10 0 ECDSA_OpenSSL
PUBLIC fde20 0 ERR_load_ECDSA_strings
PUBLIC fde58 0 ERR_load_DH_strings
PUBLIC fecb8 0 DHparams_print
PUBLIC ff2a8 0 ECDH_set_default_method
PUBLIC ff2bc 0 ECDH_get_default_method
PUBLIC ff3d0 0 ecdh_check
PUBLIC ff54c 0 ECDH_set_method
PUBLIC ff58c 0 ECDH_get_ex_new_index
PUBLIC ff5c0 0 ECDH_set_ex_data
PUBLIC ff5ec 0 ECDH_get_ex_data
PUBLIC ff9a4 0 ECDH_OpenSSL
PUBLIC ff9b4 0 ERR_load_ECDH_strings
PUBLIC ff9ec 0 ERR_load_DSO_strings
PUBLIC ffa24 0 ERR_load_ENGINE_strings
PUBLIC ffa78 0 ENGINE_new
PUBLIC ffaf4 0 engine_set_all_null
PUBLIC ffb40 0 engine_free_util
PUBLIC ffc1c 0 ENGINE_free
PUBLIC ffc24 0 engine_cleanup_add_first
PUBLIC ffc98 0 engine_cleanup_add_last
PUBLIC ffd08 0 ENGINE_cleanup
PUBLIC ffd48 0 ENGINE_get_ex_new_index
PUBLIC ffd7c 0 ENGINE_set_ex_data
PUBLIC ffd84 0 ENGINE_get_ex_data
PUBLIC ffd8c 0 ENGINE_set_id
PUBLIC ffddc 0 ENGINE_set_name
PUBLIC ffe2c 0 ENGINE_set_destroy_function
PUBLIC ffe38 0 ENGINE_set_init_function
PUBLIC ffe44 0 ENGINE_set_finish_function
PUBLIC ffe50 0 ENGINE_set_ctrl_function
PUBLIC ffe5c 0 ENGINE_set_flags
PUBLIC ffe68 0 ENGINE_set_cmd_defns
PUBLIC ffe74 0 ENGINE_get_id
PUBLIC ffe7c 0 ENGINE_get_name
PUBLIC ffe84 0 ENGINE_get_destroy_function
PUBLIC ffe8c 0 ENGINE_get_init_function
PUBLIC ffe94 0 ENGINE_get_finish_function
PUBLIC ffe9c 0 ENGINE_get_ctrl_function
PUBLIC ffea4 0 ENGINE_get_flags
PUBLIC ffeac 0 ENGINE_get_cmd_defns
PUBLIC ffeb4 0 ENGINE_get_static_state
PUBLIC ffec8 0 ENGINE_get_first
PUBLIC fff28 0 ENGINE_get_last
PUBLIC fff8c 0 ENGINE_get_next
PUBLIC 100028 0 ENGINE_get_prev
PUBLIC 1000c8 0 ENGINE_add
PUBLIC 1002f0 0 ENGINE_remove
PUBLIC 100498 0 ENGINE_by_id
PUBLIC 1007ac 0 ENGINE_up_ref
PUBLIC 100820 0 ENGINE_ctrl
PUBLIC 100cac 0 ENGINE_cmd_is_executable
PUBLIC 100d10 0 ENGINE_ctrl_cmd
PUBLIC 100e10 0 ENGINE_ctrl_cmd_string
PUBLIC 1011a8 0 ENGINE_get_table_flags
PUBLIC 1011b8 0 ENGINE_set_table_flags
PUBLIC 1011cc 0 engine_table_register
PUBLIC 1013bc 0 engine_table_unregister
PUBLIC 101424 0 engine_table_cleanup
PUBLIC 101494 0 engine_table_select
PUBLIC 1015e4 0 engine_table_doall
PUBLIC 10161c 0 ENGINE_unregister_DSA
PUBLIC 101630 0 ENGINE_register_DSA
PUBLIC 101688 0 ENGINE_register_all_DSA
PUBLIC 1016b4 0 ENGINE_set_default_DSA
PUBLIC 10170c 0 ENGINE_get_default_DSA
PUBLIC 101720 0 ENGINE_get_DSA
PUBLIC 101728 0 ENGINE_set_DSA
PUBLIC 101744 0 ENGINE_unregister_ECDSA
PUBLIC 101758 0 ENGINE_register_ECDSA
PUBLIC 1017b0 0 ENGINE_register_all_ECDSA
PUBLIC 1017dc 0 ENGINE_set_default_ECDSA
PUBLIC 101834 0 ENGINE_get_default_ECDSA
PUBLIC 101848 0 ENGINE_get_ECDSA
PUBLIC 101850 0 ENGINE_set_ECDSA
PUBLIC 10186c 0 ENGINE_unregister_ECDH
PUBLIC 101880 0 ENGINE_register_ECDH
PUBLIC 1018d8 0 ENGINE_register_all_ECDH
PUBLIC 101904 0 ENGINE_set_default_ECDH
PUBLIC 10195c 0 ENGINE_get_default_ECDH
PUBLIC 101970 0 ENGINE_get_ECDH
PUBLIC 101978 0 ENGINE_set_ECDH
PUBLIC 101994 0 ENGINE_unregister_RAND
PUBLIC 1019a8 0 ENGINE_register_RAND
PUBLIC 101a00 0 ENGINE_register_all_RAND
PUBLIC 101a2c 0 ENGINE_set_default_RAND
PUBLIC 101a84 0 ENGINE_get_default_RAND
PUBLIC 101a98 0 ENGINE_get_RAND
PUBLIC 101aa0 0 ENGINE_set_RAND
PUBLIC 101abc 0 ENGINE_unregister_ciphers
PUBLIC 101ad0 0 ENGINE_register_ciphers
PUBLIC 101b44 0 ENGINE_register_all_ciphers
PUBLIC 101b70 0 ENGINE_set_default_ciphers
PUBLIC 101be4 0 ENGINE_get_cipher_engine
PUBLIC 101bf8 0 ENGINE_get_ciphers
PUBLIC 101c00 0 ENGINE_get_cipher
PUBLIC 101c74 0 ENGINE_set_ciphers
PUBLIC 101c90 0 ENGINE_unregister_digests
PUBLIC 101ca4 0 ENGINE_register_digests
PUBLIC 101d18 0 ENGINE_register_all_digests
PUBLIC 101d44 0 ENGINE_set_default_digests
PUBLIC 101db8 0 ENGINE_get_digest_engine
PUBLIC 101dcc 0 ENGINE_get_digests
PUBLIC 101dd4 0 ENGINE_get_digest
PUBLIC 101e48 0 ENGINE_set_digests
PUBLIC 101e64 0 ENGINE_unregister_pkey_meths
PUBLIC 101e78 0 ENGINE_register_pkey_meths
PUBLIC 101eec 0 ENGINE_register_all_pkey_meths
PUBLIC 101f18 0 ENGINE_set_default_pkey_meths
PUBLIC 101f8c 0 ENGINE_get_pkey_meth_engine
PUBLIC 101fa0 0 ENGINE_get_pkey_meths
PUBLIC 101fa8 0 ENGINE_get_pkey_meth
PUBLIC 10201c 0 ENGINE_set_pkey_meths
PUBLIC 102028 0 engine_pkey_meths_free
PUBLIC 102160 0 ENGINE_unregister_pkey_asn1_meths
PUBLIC 102174 0 ENGINE_register_pkey_asn1_meths
PUBLIC 1021e8 0 ENGINE_register_all_pkey_asn1_meths
PUBLIC 102214 0 ENGINE_set_default_pkey_asn1_meths
PUBLIC 102288 0 ENGINE_get_pkey_asn1_meth_engine
PUBLIC 10229c 0 ENGINE_get_pkey_asn1_meths
PUBLIC 1022a4 0 ENGINE_get_pkey_asn1_meth
PUBLIC 102318 0 ENGINE_set_pkey_asn1_meths
PUBLIC 102324 0 engine_pkey_asn1_meths_free
PUBLIC 1023a4 0 ENGINE_get_pkey_asn1_meth_str
PUBLIC 102474 0 ENGINE_pkey_asn1_find_str
PUBLIC 102514 0 ERR_load_BUF_strings
PUBLIC 102554 0 ERR_load_BIO_strings
PUBLIC 10260c 0 BIO_s_null
PUBLIC 102c44 0 RAND_SSLeay
PUBLIC 102c54 0 ssleay_rand_bytes
PUBLIC 10378c 0 ERR_load_RAND_strings
PUBLIC 1037c4 0 RAND_poll
PUBLIC 103a68 0 EVP_EncodeInit
PUBLIC 103a80 0 EVP_EncodeBlock
PUBLIC 103bd4 0 EVP_EncodeUpdate
PUBLIC 103d44 0 EVP_EncodeFinal
PUBLIC 103d94 0 EVP_DecodeInit
PUBLIC 103db0 0 EVP_DecodeBlock
PUBLIC 103fd0 0 EVP_DecodeUpdate
PUBLIC 104384 0 EVP_DecodeFinal
PUBLIC 1043d8 0 EVP_set_pw_prompt
PUBLIC 10441c 0 EVP_get_pw_prompt
PUBLIC 10443c 0 EVP_read_pw_string_min
PUBLIC 104504 0 EVP_read_pw_string
PUBLIC 10452c 0 EVP_BytesToKey
PUBLIC 1047d0 0 EVP_md4
PUBLIC 104800 0 EVP_sha
PUBLIC 104830 0 EVP_whirlpool
PUBLIC 104860 0 EVP_dss
PUBLIC 104890 0 EVP_mdc2
PUBLIC 1048c0 0 EVP_ripemd160
PUBLIC 104c2c 0 BIO_f_md
PUBLIC 105268 0 BIO_f_cipher
PUBLIC 105278 0 BIO_set_cipher
PUBLIC 10531c 0 EVP_PKCS82PKEY
PUBLIC 10547c 0 EVP_PKEY2PKCS8_broken
PUBLIC 1055a0 0 EVP_PKEY2PKCS8
PUBLIC 1055a8 0 PKCS8_set_broken
PUBLIC 10560c 0 EVP_PKEY_get_attr_count
PUBLIC 105614 0 EVP_PKEY_get_attr_by_NID
PUBLIC 10561c 0 EVP_PKEY_get_attr_by_OBJ
PUBLIC 105624 0 EVP_PKEY_get_attr
PUBLIC 10562c 0 EVP_PKEY_delete_attr
PUBLIC 105634 0 EVP_PKEY_add1_attr
PUBLIC 10564c 0 EVP_PKEY_add1_attr_by_OBJ
PUBLIC 105674 0 EVP_PKEY_add1_attr_by_NID
PUBLIC 10569c 0 EVP_PKEY_add1_attr_by_txt
PUBLIC 1056c4 0 ASN1_BIT_STRING_set
PUBLIC 1056c8 0 i2c_ASN1_BIT_STRING
PUBLIC 1057e4 0 c2i_ASN1_BIT_STRING
PUBLIC 105950 0 ASN1_BIT_STRING_set_bit
PUBLIC 105ac8 0 ASN1_BIT_STRING_get_bit
PUBLIC 105b20 0 ASN1_BIT_STRING_check
PUBLIC 105b98 0 ASN1_UTCTIME_check
PUBLIC 105d2c 0 ASN1_UTCTIME_set_string
PUBLIC 105da4 0 ASN1_UTCTIME_adj
PUBLIC 105f40 0 ASN1_UTCTIME_set
PUBLIC 105f4c 0 ASN1_UTCTIME_cmp_time_t
PUBLIC 106120 0 ASN1_GENERALIZEDTIME_check
PUBLIC 106308 0 ASN1_GENERALIZEDTIME_set_string
PUBLIC 106380 0 ASN1_GENERALIZEDTIME_adj
PUBLIC 1064cc 0 ASN1_GENERALIZEDTIME_set
PUBLIC 1064d8 0 d2i_ASN1_TIME
PUBLIC 1064e8 0 i2d_ASN1_TIME
PUBLIC 1064f8 0 ASN1_TIME_new
PUBLIC 106508 0 ASN1_TIME_free
PUBLIC 106518 0 ASN1_TIME_adj
PUBLIC 1065e0 0 ASN1_TIME_set
PUBLIC 1065ec 0 ASN1_TIME_check
PUBLIC 106610 0 ASN1_TIME_to_generalizedtime
PUBLIC 10670c 0 ASN1_TIME_set_string
PUBLIC 106790 0 ASN1_OCTET_STRING_dup
PUBLIC 106794 0 ASN1_OCTET_STRING_cmp
PUBLIC 106798 0 ASN1_OCTET_STRING_set
PUBLIC 106af0 0 ASN1_d2i_bio
PUBLIC 106b58 0 ASN1_d2i_fp
PUBLIC 106be8 0 ASN1_item_d2i_bio
PUBLIC 106c54 0 ASN1_item_d2i_fp
PUBLIC 106cdc 0 ASN1_i2d_bio
PUBLIC 106da8 0 ASN1_i2d_fp
PUBLIC 106e34 0 ASN1_item_i2d_bio
PUBLIC 106ef0 0 ASN1_item_i2d_fp
PUBLIC 106f7c 0 ASN1_ENUMERATED_set
PUBLIC 107124 0 ASN1_ENUMERATED_get
PUBLIC 1071c8 0 BN_to_ASN1_ENUMERATED
PUBLIC 107300 0 ASN1_ENUMERATED_to_BN
PUBLIC 107380 0 ASN1_sign
PUBLIC 107650 0 ASN1_item_sign_ctx
PUBLIC 1079b8 0 ASN1_item_sign
PUBLIC 107a44 0 ASN1_digest
PUBLIC 107b00 0 ASN1_item_digest
PUBLIC 107b7c 0 ASN1_verify
PUBLIC 107d0c 0 ASN1_item_verify
PUBLIC 109b54 0 X509_NAME_print_ex
PUBLIC 10a06c 0 X509_NAME_print_ex_fp
PUBLIC 10a610 0 ASN1_STRING_print_ex
PUBLIC 10a620 0 ASN1_STRING_print_ex_fp
PUBLIC 10a630 0 ASN1_STRING_to_UTF8
PUBLIC 10a6c8 0 d2i_X509_VAL
PUBLIC 10a6d8 0 i2d_X509_VAL
PUBLIC 10a6e8 0 X509_VAL_new
PUBLIC 10a6f8 0 X509_VAL_free
PUBLIC 10a730 0 d2i_X509_PUBKEY
PUBLIC 10a740 0 i2d_X509_PUBKEY
PUBLIC 10a750 0 X509_PUBKEY_new
PUBLIC 10a760 0 X509_PUBKEY_free
PUBLIC 10a770 0 X509_PUBKEY_set
PUBLIC 10a860 0 X509_PUBKEY_get
PUBLIC 10aa58 0 d2i_PUBKEY
PUBLIC 10aab4 0 i2d_PUBKEY
PUBLIC 10ab14 0 d2i_RSA_PUBKEY
PUBLIC 10ab8c 0 i2d_RSA_PUBKEY
PUBLIC 10ac0c 0 d2i_DSA_PUBKEY
PUBLIC 10ac84 0 i2d_DSA_PUBKEY
PUBLIC 10ad04 0 d2i_EC_PUBKEY
PUBLIC 10ad7c 0 i2d_EC_PUBKEY
PUBLIC 10adfc 0 X509_PUBKEY_set0_param
PUBLIC 10ae64 0 X509_PUBKEY_get0_param
PUBLIC 10aee0 0 d2i_X509_REQ_INFO
PUBLIC 10aef0 0 i2d_X509_REQ_INFO
PUBLIC 10af00 0 X509_REQ_INFO_new
PUBLIC 10af10 0 X509_REQ_INFO_free
PUBLIC 10af20 0 d2i_X509_REQ
PUBLIC 10af30 0 i2d_X509_REQ
PUBLIC 10af40 0 X509_REQ_new
PUBLIC 10af50 0 X509_REQ_free
PUBLIC 10af60 0 X509_REQ_dup
PUBLIC 10b5ec 0 d2i_X509_REVOKED
PUBLIC 10b5fc 0 i2d_X509_REVOKED
PUBLIC 10b60c 0 X509_REVOKED_new
PUBLIC 10b61c 0 X509_REVOKED_free
PUBLIC 10b62c 0 d2i_X509_CRL_INFO
PUBLIC 10b63c 0 i2d_X509_CRL_INFO
PUBLIC 10b64c 0 X509_CRL_INFO_new
PUBLIC 10b65c 0 X509_CRL_INFO_free
PUBLIC 10b66c 0 d2i_X509_CRL
PUBLIC 10b67c 0 i2d_X509_CRL
PUBLIC 10b68c 0 X509_CRL_new
PUBLIC 10b69c 0 X509_CRL_free
PUBLIC 10b6ac 0 X509_CRL_dup
PUBLIC 10b6c0 0 X509_CRL_add0_revoked
PUBLIC 10b750 0 X509_CRL_verify
PUBLIC 10b774 0 X509_CRL_get0_by_serial
PUBLIC 10b79c 0 X509_CRL_get0_by_cert
PUBLIC 10b7f0 0 X509_CRL_set_default_method
PUBLIC 10b820 0 X509_CRL_METHOD_new
PUBLIC 10b874 0 X509_CRL_METHOD_free
PUBLIC 10b884 0 X509_CRL_set_meth_data
PUBLIC 10b88c 0 X509_CRL_get_meth_data
PUBLIC 10b894 0 X509_INFO_new
PUBLIC 10b910 0 X509_INFO_free
PUBLIC 10b9a4 0 d2i_NETSCAPE_SPKAC
PUBLIC 10b9b4 0 i2d_NETSCAPE_SPKAC
PUBLIC 10b9c4 0 NETSCAPE_SPKAC_new
PUBLIC 10b9d4 0 NETSCAPE_SPKAC_free
PUBLIC 10b9e4 0 d2i_NETSCAPE_SPKI
PUBLIC 10b9f4 0 i2d_NETSCAPE_SPKI
PUBLIC 10ba04 0 NETSCAPE_SPKI_new
PUBLIC 10ba14 0 NETSCAPE_SPKI_free
PUBLIC 10ba50 0 d2i_NETSCAPE_CERT_SEQUENCE
PUBLIC 10ba60 0 i2d_NETSCAPE_CERT_SEQUENCE
PUBLIC 10ba70 0 NETSCAPE_CERT_SEQUENCE_new
PUBLIC 10ba80 0 NETSCAPE_CERT_SEQUENCE_free
PUBLIC 10ba90 0 i2d_PrivateKey
PUBLIC 10bb20 0 X509_ocspid_print
PUBLIC 10bcb0 0 X509_signature_dump
PUBLIC 10bde0 0 X509_signature_print
PUBLIC 10bed0 0 ASN1_STRING_print
PUBLIC 10bfb8 0 ASN1_GENERALIZEDTIME_print
PUBLIC 10c268 0 ASN1_UTCTIME_print
PUBLIC 10c45c 0 ASN1_TIME_print
PUBLIC 10c4a0 0 X509_print_ex
PUBLIC 10ca08 0 X509_print_ex_fp
PUBLIC 10ca9c 0 X509_print_fp
PUBLIC 10caa8 0 X509_print
PUBLIC 10cab4 0 X509_NAME_print
PUBLIC 10cc04 0 X509_CERT_AUX_print
PUBLIC 10cef0 0 ASN1_bn_print
PUBLIC 10d2b8 0 ASN1_PCTX_new
PUBLIC 10d328 0 ASN1_PCTX_free
PUBLIC 10d32c 0 ASN1_PCTX_get_flags
PUBLIC 10d334 0 ASN1_PCTX_set_flags
PUBLIC 10d33c 0 ASN1_PCTX_get_nm_flags
PUBLIC 10d344 0 ASN1_PCTX_set_nm_flags
PUBLIC 10d34c 0 ASN1_PCTX_get_cert_flags
PUBLIC 10d354 0 ASN1_PCTX_set_cert_flags
PUBLIC 10d35c 0 ASN1_PCTX_get_oid_flags
PUBLIC 10d364 0 ASN1_PCTX_set_oid_flags
PUBLIC 10d36c 0 ASN1_PCTX_get_str_flags
PUBLIC 10d374 0 ASN1_PCTX_set_str_flags
PUBLIC 10d37c 0 asn1_template_print_ctx
PUBLIC 10e3bc 0 ASN1_item_print
PUBLIC 10eb78 0 i2a_ASN1_INTEGER
PUBLIC 10ed00 0 a2i_ASN1_INTEGER
PUBLIC 10f07c 0 i2a_ASN1_STRING
PUBLIC 10f1b4 0 a2i_ASN1_STRING
PUBLIC 10f4e4 0 i2d_X509_PKEY
PUBLIC 10f4ec 0 X509_PKEY_new
PUBLIC 10f5a8 0 X509_PKEY_free
PUBLIC 10f64c 0 d2i_X509_PKEY
PUBLIC 110110 0 ASN1_generate_v3
PUBLIC 110ad8 0 ASN1_generate_nconf
PUBLIC 110b0c 0 ASN1_tag2str
PUBLIC 111668 0 ASN1_parse
PUBLIC 11169c 0 ASN1_parse_dump
PUBLIC 1116d4 0 d2i_ASN1_type_bytes
PUBLIC 111898 0 i2d_ASN1_bytes
PUBLIC 111948 0 d2i_ASN1_bytes
PUBLIC 111cdc 0 ASN1_seq_unpack
PUBLIC 111d5c 0 ASN1_seq_pack
PUBLIC 111e48 0 ASN1_unpack_string
PUBLIC 111eb4 0 ASN1_pack_string
PUBLIC 112004 0 ASN1_item_pack
PUBLIC 112124 0 ASN1_item_unpack
PUBLIC 11218c 0 PEM_X509_INFO_read_bio
PUBLIC 11274c 0 PEM_X509_INFO_read
PUBLIC 1127dc 0 PEM_X509_INFO_write_bio
PUBLIC 112a14 0 d2i_PKCS8PrivateKey_bio
PUBLIC 112b28 0 d2i_PKCS8PrivateKey_fp
PUBLIC 112ba0 0 PEM_read_bio_PKCS8
PUBLIC 112bdc 0 PEM_read_PKCS8
PUBLIC 112c18 0 PEM_write_bio_PKCS8
PUBLIC 112c68 0 PEM_write_PKCS8
PUBLIC 112cb8 0 PEM_read_bio_PKCS8_PRIV_KEY_INFO
PUBLIC 112cf4 0 PEM_read_PKCS8_PRIV_KEY_INFO
PUBLIC 112d30 0 PEM_write_bio_PKCS8_PRIV_KEY_INFO
PUBLIC 112f3c 0 PEM_write_bio_PKCS8PrivateKey_nid
PUBLIC 112f78 0 PEM_write_bio_PKCS8PrivateKey
PUBLIC 112fa8 0 i2d_PKCS8PrivateKey_bio
PUBLIC 112fd8 0 i2d_PKCS8PrivateKey_nid_bio
PUBLIC 113014 0 PEM_write_PKCS8PrivateKey_nid
PUBLIC 1130b0 0 i2d_PKCS8PrivateKey_fp
PUBLIC 11314c 0 PEM_write_PKCS8PrivateKey
PUBLIC 1131e8 0 i2d_PKCS8PrivateKey_nid_fp
PUBLIC 113288 0 PEM_write_PKCS8_PRIV_KEY_INFO
PUBLIC 1132d8 0 X509_get_default_private_dir
PUBLIC 1132e8 0 X509_get_default_cert_area
PUBLIC 1132f8 0 X509_get_default_cert_dir
PUBLIC 113308 0 X509_get_default_cert_file
PUBLIC 113318 0 X509_get_default_cert_dir_env
PUBLIC 113328 0 X509_get_default_cert_file_env
PUBLIC 113338 0 X509_NAME_entry_count
PUBLIC 113348 0 X509_NAME_get_index_by_OBJ
PUBLIC 1133bc 0 X509_NAME_get_index_by_NID
PUBLIC 1133f0 0 X509_NAME_get_entry
PUBLIC 113430 0 X509_NAME_delete_entry
PUBLIC 113504 0 X509_NAME_add_entry
PUBLIC 1136a8 0 X509_NAME_ENTRY_set_object
PUBLIC 113720 0 X509_NAME_ENTRY_set_data
PUBLIC 113818 0 X509_NAME_ENTRY_create_by_OBJ
PUBLIC 1138d0 0 X509_NAME_add_entry_by_OBJ
PUBLIC 113924 0 X509_NAME_ENTRY_create_by_txt
PUBLIC 1139cc 0 X509_NAME_add_entry_by_txt
PUBLIC 113a20 0 X509_NAME_ENTRY_create_by_NID
PUBLIC 113aa8 0 X509_NAME_add_entry_by_NID
PUBLIC 113afc 0 X509_NAME_ENTRY_get_object
PUBLIC 113b08 0 X509_NAME_ENTRY_get_data
PUBLIC 113b14 0 X509_NAME_get_text_by_OBJ
PUBLIC 113b88 0 X509_NAME_get_text_by_NID
PUBLIC 113bc4 0 X509at_get_attr_count
PUBLIC 113bc8 0 X509at_get_attr_by_OBJ
PUBLIC 113c30 0 X509at_get_attr_by_NID
PUBLIC 113c64 0 X509at_get_attr
PUBLIC 113ca0 0 X509at_delete_attr
PUBLIC 113cdc 0 X509at_add1_attr
PUBLIC 113df4 0 X509_ATTRIBUTE_set1_object
PUBLIC 113e30 0 X509_ATTRIBUTE_set1_data
PUBLIC 113fb0 0 X509_ATTRIBUTE_create_by_OBJ
PUBLIC 114094 0 X509at_add1_attr_by_OBJ
PUBLIC 1140e4 0 X509_ATTRIBUTE_create_by_NID
PUBLIC 114174 0 X509at_add1_attr_by_NID
PUBLIC 1141c4 0 X509_ATTRIBUTE_create_by_txt
PUBLIC 11426c 0 X509at_add1_attr_by_txt
PUBLIC 1142bc 0 X509_ATTRIBUTE_count
PUBLIC 1142dc 0 X509_ATTRIBUTE_get0_object
PUBLIC 1142e8 0 X509_ATTRIBUTE_get0_type
PUBLIC 11432c 0 X509_ATTRIBUTE_get0_data
PUBLIC 114394 0 X509at_get0_data_by_OBJ
PUBLIC 11447c 0 d2i_BASIC_CONSTRAINTS
PUBLIC 11448c 0 i2d_BASIC_CONSTRAINTS
PUBLIC 11449c 0 BASIC_CONSTRAINTS_new
PUBLIC 1144ac 0 BASIC_CONSTRAINTS_free
PUBLIC 114624 0 i2v_ASN1_BIT_STRING
PUBLIC 1146a0 0 v2i_ASN1_BIT_STRING
PUBLIC 114d78 0 X509V3_EXT_nconf
PUBLIC 114f1c 0 X509V3_EXT_nconf_nid
PUBLIC 11505c 0 X509V3_EXT_i2d
PUBLIC 1151a0 0 X509V3_EXT_add_nconf_sk
PUBLIC 11527c 0 X509V3_EXT_add_nconf
PUBLIC 11528c 0 X509V3_EXT_CRL_add_nconf
PUBLIC 11529c 0 X509V3_EXT_REQ_add_nconf
PUBLIC 115308 0 X509V3_get_string
PUBLIC 115374 0 X509V3_get_section
PUBLIC 1153e0 0 X509V3_string_free
PUBLIC 115408 0 X509V3_section_free
PUBLIC 115430 0 X509V3_set_nconf
PUBLIC 115448 0 X509V3_set_ctx
PUBLIC 115460 0 X509V3_EXT_conf
PUBLIC 1154a0 0 X509V3_EXT_conf_nid
PUBLIC 1154e0 0 X509V3_set_conf_lhash
PUBLIC 1154fc 0 X509V3_EXT_add_conf
PUBLIC 11553c 0 X509V3_EXT_CRL_add_conf
PUBLIC 11557c 0 X509V3_EXT_REQ_add_conf
PUBLIC 11574c 0 d2i_EXTENDED_KEY_USAGE
PUBLIC 11575c 0 i2d_EXTENDED_KEY_USAGE
PUBLIC 11576c 0 EXTENDED_KEY_USAGE_new
PUBLIC 11577c 0 EXTENDED_KEY_USAGE_free
PUBLIC 1158c4 0 X509V3_EXT_val_prn
PUBLIC 115aa4 0 X509V3_EXT_print
PUBLIC 115d50 0 X509V3_extensions_print
PUBLIC 115f20 0 X509V3_EXT_print_fp
PUBLIC 115f6c 0 X509V3_conf_free
PUBLIC 11613c 0 X509V3_add_value
PUBLIC 116260 0 X509V3_add_value_uchar
PUBLIC 116264 0 X509V3_add_value_bool
PUBLIC 11628c 0 X509V3_add_value_bool_nf
PUBLIC 1162ac 0 i2s_ASN1_ENUMERATED
PUBLIC 116318 0 i2s_ASN1_INTEGER
PUBLIC 116384 0 s2i_ASN1_INTEGER
PUBLIC 11650c 0 X509V3_add_value_int
PUBLIC 116564 0 X509V3_get_value_bool
PUBLIC 116760 0 X509V3_get_value_int
PUBLIC 1167dc 0 X509V3_parse_list
PUBLIC 116c64 0 hex_to_string
PUBLIC 116d4c 0 string_to_hex
PUBLIC 116f30 0 name_cmp
PUBLIC 116f7c 0 X509_email_free
PUBLIC 116f8c 0 X509_get1_ocsp
PUBLIC 117234 0 X509_get1_email
PUBLIC 117280 0 X509_REQ_get1_email
PUBLIC 1172e8 0 a2i_ipadd
PUBLIC 1174a0 0 a2i_IPADDRESS
PUBLIC 117500 0 a2i_IPADDRESS_NC
PUBLIC 1175cc 0 X509V3_NAME_from_section
PUBLIC 1176e0 0 policy_node_cmp_new
PUBLIC 1176f0 0 tree_find_sk
PUBLIC 117738 0 level_find_node
PUBLIC 1177a4 0 policy_node_free
PUBLIC 1177a8 0 level_add_node
PUBLIC 1178b8 0 policy_node_match
PUBLIC 117934 0 CONF_set_nconf
PUBLIC 117978 0 CONF_set_default_method
PUBLIC 117990 0 NCONF_new
PUBLIC 1179ec 0 NCONF_free
PUBLIC 117a08 0 NCONF_free_data
PUBLIC 117a24 0 CONF_free
PUBLIC 117a4c 0 NCONF_load
PUBLIC 117aa4 0 NCONF_load_bio
PUBLIC 117af8 0 CONF_load_bio
PUBLIC 117b38 0 CONF_load
PUBLIC 117bb8 0 CONF_load_fp
PUBLIC 117c30 0 NCONF_load_fp
PUBLIC 117cb0 0 NCONF_get_section
PUBLIC 117d34 0 CONF_get_section
PUBLIC 117d6c 0 NCONF_get_string
PUBLIC 117e2c 0 CONF_get_string
PUBLIC 117e6c 0 NCONF_get_number_e
PUBLIC 117f20 0 CONF_get_number
PUBLIC 117f7c 0 NCONF_dump_bio
PUBLIC 117fd0 0 CONF_dump_bio
PUBLIC 118004 0 CONF_dump_fp
PUBLIC 118078 0 NCONF_dump_fp
PUBLIC 118210 0 _CONF_get_section
PUBLIC 118250 0 _CONF_get_section_values
PUBLIC 118264 0 _CONF_add_string
PUBLIC 1182d8 0 _CONF_get_string
PUBLIC 11839c 0 _CONF_new_data
PUBLIC 1183f0 0 _CONF_free_data
PUBLIC 118448 0 _CONF_new_section
PUBLIC 119764 0 NCONF_default
PUBLIC 119774 0 NCONF_WIN32
PUBLIC 119788 0 CONF_modules_load
PUBLIC 119d18 0 CONF_modules_finish
PUBLIC 119d94 0 CONF_modules_unload
PUBLIC 119e98 0 CONF_module_add
PUBLIC 119f50 0 CONF_modules_free
PUBLIC 119f64 0 CONF_imodule_get_name
PUBLIC 119f6c 0 CONF_imodule_get_value
PUBLIC 119f74 0 CONF_imodule_get_usr_data
PUBLIC 119f7c 0 CONF_imodule_set_usr_data
PUBLIC 119f84 0 CONF_imodule_get_module
PUBLIC 119f8c 0 CONF_imodule_get_flags
PUBLIC 119f94 0 CONF_imodule_set_flags
PUBLIC 119f9c 0 CONF_module_get_usr_data
PUBLIC 119fa4 0 CONF_module_set_usr_data
PUBLIC 119fac 0 CONF_get1_default_config_file
PUBLIC 11a04c 0 CONF_modules_load_file
PUBLIC 11a10c 0 CONF_parse_list
PUBLIC 11a260 0 TXT_DB_read
PUBLIC 11a610 0 TXT_DB_get_by_index
PUBLIC 11a664 0 TXT_DB_create_index
PUBLIC 11a7a4 0 TXT_DB_write
PUBLIC 11a968 0 TXT_DB_insert
PUBLIC 11aa8c 0 TXT_DB_free
PUBLIC 11abcc 0 PKCS12_item_pack_safebag
PUBLIC 11acc0 0 PKCS12_MAKE_KEYBAG
PUBLIC 11ad18 0 PKCS12_MAKE_SHKEYBAG
PUBLIC 11adf8 0 PKCS12_pack_p7data
PUBLIC 11aee4 0 PKCS12_unpack_p7data
PUBLIC 11af4c 0 PKCS12_pack_p7encdata
PUBLIC 11b0ec 0 PKCS12_unpack_p7encdata
PUBLIC 11b148 0 PKCS12_decrypt_skey
PUBLIC 11b150 0 PKCS12_pack_authsafes
PUBLIC 11b17c 0 PKCS12_unpack_authsafes
PUBLIC 11b1ec 0 d2i_PKCS12
PUBLIC 11b1fc 0 i2d_PKCS12
PUBLIC 11b20c 0 PKCS12_new
PUBLIC 11b21c 0 PKCS12_free
PUBLIC 11b22c 0 d2i_PKCS12_MAC_DATA
PUBLIC 11b23c 0 i2d_PKCS12_MAC_DATA
PUBLIC 11b24c 0 PKCS12_MAC_DATA_new
PUBLIC 11b25c 0 PKCS12_MAC_DATA_free
PUBLIC 11b26c 0 d2i_PKCS12_BAGS
PUBLIC 11b27c 0 i2d_PKCS12_BAGS
PUBLIC 11b28c 0 PKCS12_BAGS_new
PUBLIC 11b29c 0 PKCS12_BAGS_free
PUBLIC 11b2ac 0 d2i_PKCS12_SAFEBAG
PUBLIC 11b2bc 0 i2d_PKCS12_SAFEBAG
PUBLIC 11b2cc 0 PKCS12_SAFEBAG_new
PUBLIC 11b2dc 0 PKCS12_SAFEBAG_free
PUBLIC 11b2ec 0 PKCS12_pbe_crypt
PUBLIC 11b47c 0 PKCS12_item_decrypt_d2i
PUBLIC 11b574 0 PKCS12_item_i2d_encrypt
PUBLIC 11b6b4 0 PKCS8_encrypt
PUBLIC 11bae4 0 UI_free
PUBLIC 11bb20 0 UI_add_input_string
PUBLIC 11bc90 0 UI_dup_input_string
PUBLIC 11be34 0 UI_add_verify_string
PUBLIC 11bfa4 0 UI_dup_verify_string
PUBLIC 11c154 0 UI_add_input_boolean
PUBLIC 11c188 0 UI_dup_input_boolean
PUBLIC 11c320 0 UI_add_info_string
PUBLIC 11c450 0 UI_dup_info_string
PUBLIC 11c5c4 0 UI_add_error_string
PUBLIC 11c6f4 0 UI_dup_error_string
PUBLIC 11c868 0 UI_construct_prompt
PUBLIC 11c9b8 0 UI_add_user_data
PUBLIC 11c9c8 0 UI_get0_user_data
PUBLIC 11c9d0 0 UI_process
PUBLIC 11cb1c 0 UI_ctrl
PUBLIC 11cbd0 0 UI_get_ex_new_index
PUBLIC 11cc04 0 UI_set_ex_data
PUBLIC 11cc0c 0 UI_get_ex_data
PUBLIC 11cc14 0 UI_set_default_method
PUBLIC 11cc28 0 UI_get_default_method
PUBLIC 11cc50 0 UI_new_method
PUBLIC 11cce4 0 UI_new
PUBLIC 11ccec 0 UI_get_method
PUBLIC 11ccf4 0 UI_set_method
PUBLIC 11cd00 0 UI_create_method
PUBLIC 11cd4c 0 UI_destroy_method
PUBLIC 11cd70 0 UI_method_set_opener
PUBLIC 11cd84 0 UI_method_set_writer
PUBLIC 11cd98 0 UI_method_set_flusher
PUBLIC 11cdac 0 UI_method_set_reader
PUBLIC 11cdc0 0 UI_method_set_closer
PUBLIC 11cdd4 0 UI_method_set_prompt_constructor
PUBLIC 11cde8 0 UI_method_get_opener
PUBLIC 11cdf4 0 UI_method_get_writer
PUBLIC 11ce00 0 UI_method_get_flusher
PUBLIC 11ce0c 0 UI_method_get_reader
PUBLIC 11ce18 0 UI_method_get_closer
PUBLIC 11ce24 0 UI_method_get_prompt_constructor
PUBLIC 11ce30 0 UI_get_string_type
PUBLIC 11ce3c 0 UI_get_input_flags
PUBLIC 11ce48 0 UI_get0_output_string
PUBLIC 11ce54 0 UI_get0_action_string
PUBLIC 11ce80 0 UI_get0_result_string
PUBLIC 11cea0 0 UI_get0_result
PUBLIC 11cf3c 0 UI_get0_test_string
PUBLIC 11cf58 0 UI_get_result_minsize
PUBLIC 11cf80 0 UI_get_result_maxsize
PUBLIC 11cfa8 0 UI_set_result
PUBLIC 11d8c0 0 UI_OpenSSL
PUBLIC 11d8d0 0 CMS_SignedData_init
PUBLIC 11d9c4 0 cms_set1_SignerIdentifier
PUBLIC 11db04 0 cms_SignerIdentifier_get0_signer_id
PUBLIC 11db6c 0 cms_SignerIdentifier_cert_cmp
PUBLIC 11dc00 0 CMS_get0_SignerInfos
PUBLIC 11dc64 0 CMS_get0_signers
PUBLIC 11dce8 0 CMS_SignerInfo_set1_signer_cert
PUBLIC 11dd5c 0 CMS_SignerInfo_get0_signer_id
PUBLIC 11dd64 0 CMS_SignerInfo_cert_cmp
PUBLIC 11dd6c 0 CMS_set1_signers_certs
PUBLIC 11defc 0 CMS_SignerInfo_get0_algs
PUBLIC 11df3c 0 CMS_SignerInfo_sign
PUBLIC 11e1ac 0 cms_SignedData_final
PUBLIC 11e3e0 0 CMS_SignerInfo_verify
PUBLIC 11e524 0 cms_SignedData_init_bio
PUBLIC 11e770 0 CMS_SignerInfo_verify_content
PUBLIC 11e94c 0 CMS_add_smimecap
PUBLIC 11e9ac 0 CMS_add_simple_smimecap
PUBLIC 11eac0 0 CMS_add_standard_smimecap
PUBLIC 11ec64 0 CMS_add1_signer
PUBLIC 11f29c 0 cms_get0_enveloped
PUBLIC 11f2f4 0 CMS_get0_RecipientInfos
PUBLIC 11f308 0 CMS_RecipientInfo_type
PUBLIC 11f310 0 CMS_EnvelopedData_create
PUBLIC 11f418 0 CMS_add1_recipient_cert
PUBLIC 11f63c 0 CMS_RecipientInfo_ktri_get0_algs
PUBLIC 11f6b4 0 CMS_RecipientInfo_ktri_get0_signer_id
PUBLIC 11f70c 0 CMS_RecipientInfo_ktri_cert_cmp
PUBLIC 11f768 0 CMS_RecipientInfo_set0_pkey
PUBLIC 11f7c4 0 CMS_RecipientInfo_kekri_id_cmp
PUBLIC 11f840 0 CMS_add0_recipient_key
PUBLIC 11fab4 0 CMS_RecipientInfo_kekri_get0_id
PUBLIC 11fb74 0 CMS_RecipientInfo_set0_key
PUBLIC 11fbd0 0 CMS_RecipientInfo_decrypt
PUBLIC 12002c 0 cms_EnvelopedData_init_bio
PUBLIC 120474 0 cms_EncryptedContent_init_bio
PUBLIC 1208e8 0 cms_EncryptedContent_init
PUBLIC 120960 0 CMS_EncryptedData_set1_key
PUBLIC 120a80 0 cms_EncryptedData_init_bio
PUBLIC 120aa8 0 CMS_RecipientInfo_set0_password
PUBLIC 120b2c 0 CMS_add0_recipient_password
PUBLIC 120ef4 0 cms_RecipientInfo_pwri_crypt
PUBLIC 121478 0 CMAC_CTX_new
PUBLIC 1214b0 0 CMAC_CTX_cleanup
PUBLIC 1214f8 0 CMAC_CTX_get0_cipher_ctx
PUBLIC 1214fc 0 CMAC_CTX_free
PUBLIC 121514 0 CMAC_CTX_copy
PUBLIC 12159c 0 CMAC_Init
PUBLIC 121824 0 CMAC_Update
PUBLIC 121918 0 CMAC_Final
PUBLIC 121d0c 0 CMAC_resume
PUBLIC 121d48 0 OPENSSL_gmtime
PUBLIC 121d5c 0 OPENSSL_gmtime_adj
PUBLIC 122018 0 MD4_Init
PUBLIC 122058 0 md4_block_data_order
PUBLIC 12291c 0 MD4_Update
PUBLIC 122a30 0 MD4_Transform
PUBLIC 122a38 0 MD4_Final
PUBLIC 124344 0 SHA_Update
PUBLIC 124458 0 SHA_Transform
PUBLIC 124460 0 SHA_Final
PUBLIC 1245cc 0 SHA_Init
PUBLIC 1247c0 0 MDC2_Init
PUBLIC 124800 0 MDC2_Update
PUBLIC 1248c4 0 MDC2_Final
PUBLIC 124958 0 RIPEMD160_Init
PUBLIC 1249a4 0 ripemd160_block_data_order
PUBLIC 126618 0 RIPEMD160_Update
PUBLIC 12672c 0 RIPEMD160_Transform
PUBLIC 126734 0 RIPEMD160_Final
PUBLIC 1268a0 0 WHIRLPOOL_Init
PUBLIC 1268b8 0 WHIRLPOOL_BitUpdate
PUBLIC 126c4c 0 WHIRLPOOL_Update
PUBLIC 126cc0 0 WHIRLPOOL_Final
PUBLIC 126ea4 0 WHIRLPOOL
PUBLIC 126efc 0 whirlpool_block
PUBLIC 128ea8 0 AES_wrap_key
PUBLIC 128fd4 0 AES_unwrap_key
PUBLIC 129144 0 Camellia_Ekeygen
PUBLIC 129d78 0 Camellia_EncryptBlock_Rounds
PUBLIC 12a330 0 Camellia_EncryptBlock
PUBLIC 12a340 0 Camellia_DecryptBlock_Rounds
PUBLIC 12a8e8 0 Camellia_DecryptBlock
PUBLIC 12a8f8 0 BN_kronecker
PUBLIC 12aba0 0 BN_mod_sqrt
PUBLIC 12b444 0 BN_mod_exp2_mont
PUBLIC 12bc1c 0 BN_GF2m_add
PUBLIC 12bd3c 0 BN_GF2m_mod_arr
PUBLIC 12c010 0 BN_GF2m_mod_sqr_arr
PUBLIC 12c184 0 BN_GF2m_mod_mul_arr
PUBLIC 12cac0 0 BN_GF2m_mod_exp_arr
PUBLIC 12cbf0 0 BN_GF2m_mod_sqrt_arr
PUBLIC 12cc8c 0 BN_GF2m_mod_solve_quad_arr
PUBLIC 12cfec 0 BN_GF2m_poly2arr
PUBLIC 12d08c 0 BN_GF2m_mod
PUBLIC 12d118 0 BN_GF2m_mod_inv
PUBLIC 12d54c 0 BN_GF2m_mod_mul
PUBLIC 12d624 0 BN_GF2m_mod_div
PUBLIC 12d6ac 0 BN_GF2m_mod_sqr
PUBLIC 12d77c 0 BN_GF2m_mod_exp
PUBLIC 12d84c 0 BN_GF2m_mod_sqrt
PUBLIC 12d91c 0 BN_GF2m_mod_solve_quad
PUBLIC 12d9ec 0 BN_GF2m_arr2poly
PUBLIC 12da34 0 BN_GF2m_mod_inv_arr
PUBLIC 12daa4 0 BN_GF2m_mod_div_arr
PUBLIC 12db24 0 ec_GFp_mont_group_init
PUBLIC 12db40 0 ec_GFp_mont_group_finish
PUBLIC 12db84 0 ec_GFp_mont_group_clear_finish
PUBLIC 12dbc8 0 ec_GFp_mont_group_set_curve
PUBLIC 12dd40 0 ec_GFp_mont_group_copy
PUBLIC 12de08 0 ec_GFp_mont_field_mul
PUBLIC 12de6c 0 ec_GFp_mont_field_sqr
PUBLIC 12ded0 0 ec_GFp_mont_field_encode
PUBLIC 12df38 0 ec_GFp_mont_field_decode
PUBLIC 12df98 0 ec_GFp_mont_field_set_to_one
PUBLIC 12dffc 0 EC_GFp_mont_method
PUBLIC 12e00c 0 ec_GFp_nist_group_copy
PUBLIC 12e018 0 ec_GFp_nist_group_set_curve
PUBLIC 12e1b0 0 ec_GFp_nist_field_mul
PUBLIC 12e2a8 0 ec_GFp_nist_field_sqr
PUBLIC 12e38c 0 EC_GFp_nist_method
PUBLIC 12e39c 0 EC_POINT_point2bn
PUBLIC 12e448 0 EC_POINT_bn2point
PUBLIC 12e538 0 EC_POINT_point2hex
PUBLIC 12e640 0 EC_POINT_hex2point
PUBLIC 12e69c 0 RSA_generate_key_ex
PUBLIC 12ec74 0 RSA_sign_ASN1_OCTET_STRING
PUBLIC 12ed94 0 RSA_verify_ASN1_OCTET_STRING
PUBLIC 12eeec 0 RSA_verify_PKCS1_PSS_mgf1
PUBLIC 12f3e4 0 RSA_verify_PKCS1_PSS
PUBLIC 12f404 0 RSA_padding_add_PKCS1_PSS_mgf1
PUBLIC 12f7a4 0 RSA_padding_add_PKCS1_PSS
PUBLIC 12f7c4 0 dsa_builtin_paramgen
PUBLIC 130118 0 DSA_generate_parameters_ex
PUBLIC 1301c4 0 DSA_generate_key
PUBLIC 130348 0 DH_generate_parameters_ex
PUBLIC 130570 0 DSO_set_default_method
PUBLIC 130584 0 DSO_get_default_method
PUBLIC 130594 0 DSO_get_method
PUBLIC 13059c 0 DSO_set_method
PUBLIC 1305ac 0 DSO_new_method
PUBLIC 1306d0 0 DSO_new
PUBLIC 1306d8 0 DSO_free
PUBLIC 130824 0 DSO_flags
PUBLIC 130830 0 DSO_up_ref
PUBLIC 1308a0 0 DSO_bind_var
PUBLIC 13096c 0 DSO_bind_func
PUBLIC 130a34 0 DSO_ctrl
PUBLIC 130b0c 0 DSO_set_name_converter
PUBLIC 130b68 0 DSO_get_filename
PUBLIC 130bb4 0 DSO_set_filename
PUBLIC 130cd4 0 DSO_load
PUBLIC 130eb4 0 DSO_merge
PUBLIC 130f40 0 DSO_convert_filename
PUBLIC 131084 0 DSO_get_loaded_filename
PUBLIC 1310d0 0 DSO_pathbyaddr
PUBLIC 131158 0 DSO_global_lookup
PUBLIC 1311d0 0 DSO_METHOD_openssl
PUBLIC 1311f8 0 BIO_dump_indent_cb
PUBLIC 1315b4 0 BIO_dump_cb
PUBLIC 1315d0 0 BIO_dump_fp
PUBLIC 1315f0 0 BIO_dump_indent_fp
PUBLIC 131628 0 BIO_dump
PUBLIC 131648 0 BIO_dump_indent
PUBLIC 131680 0 RAND_query_egd_bytes
PUBLIC 1318cc 0 RAND_egd_bytes
PUBLIC 1318fc 0 RAND_egd
PUBLIC 131970 0 ERR_print_errors_cb
PUBLIC 131a70 0 ERR_print_errors_fp
PUBLIC 131a84 0 ERR_print_errors
PUBLIC 131a98 0 ASN1_PRINTABLE_type
PUBLIC 131b50 0 ASN1_UNIVERSALSTRING_to_string
PUBLIC 131c80 0 i2d_ASN1_SET
PUBLIC 131f04 0 d2i_ASN1_SET
PUBLIC 132194 0 UTF8_getc
PUBLIC 13241c 0 UTF8_putc
PUBLIC 132818 0 ASN1_mbstring_ncopy
PUBLIC 1331ac 0 ASN1_mbstring_copy
PUBLIC 1331d4 0 i2d_ASN1_BOOLEAN
PUBLIC 133244 0 d2i_ASN1_BOOLEAN
PUBLIC 133334 0 ASN1_STRING_set_default_mask
PUBLIC 133348 0 ASN1_STRING_get_default_mask
PUBLIC 133358 0 ASN1_STRING_set_default_mask_asc
PUBLIC 133454 0 ASN1_STRING_TABLE_get
PUBLIC 1334e4 0 ASN1_STRING_set_by_NID
PUBLIC 1335b4 0 ASN1_STRING_TABLE_add
PUBLIC 1336fc 0 ASN1_STRING_TABLE_cleanup
PUBLIC 13372c 0 X509_to_X509_REQ
PUBLIC 13383c 0 X509_REQ_get_pubkey
PUBLIC 133860 0 X509_REQ_check_private_key
PUBLIC 1339a4 0 X509_REQ_extension_nid
PUBLIC 1339e4 0 X509_REQ_get_extension_nids
PUBLIC 1339f4 0 X509_REQ_set_extension_nids
PUBLIC 133a08 0 X509_REQ_add_extensions_nid
PUBLIC 133b0c 0 X509_REQ_add_extensions
PUBLIC 133b14 0 X509_REQ_get_attr_count
PUBLIC 133b20 0 X509_REQ_get_attr_by_NID
PUBLIC 133b2c 0 X509_REQ_get_attr_by_OBJ
PUBLIC 133b38 0 X509_REQ_get_attr
PUBLIC 133b44 0 X509_REQ_get_extensions
PUBLIC 133c34 0 X509_REQ_delete_attr
PUBLIC 133c40 0 X509_REQ_add1_attr
PUBLIC 133c5c 0 X509_REQ_add1_attr_by_OBJ
PUBLIC 133c88 0 X509_REQ_add1_attr_by_NID
PUBLIC 133cb4 0 X509_REQ_add1_attr_by_txt
PUBLIC 133ce0 0 X509_REQ_set_version
PUBLIC 133cf4 0 X509_REQ_set_subject_name
PUBLIC 133d18 0 X509_REQ_set_pubkey
PUBLIC 133d3c 0 d2i_CMS_ContentInfo
PUBLIC 133d4c 0 i2d_CMS_ContentInfo
PUBLIC 133d5c 0 CMS_ContentInfo_new
PUBLIC 133d6c 0 CMS_ContentInfo_free
PUBLIC 133d7c 0 CMS_ContentInfo_print_ctx
PUBLIC 133da4 0 CMS_get0_type
PUBLIC 133dac 0 CMS_get0_content
PUBLIC 133ebc 0 cms_content_bio
PUBLIC 133f0c 0 CMS_dataInit
PUBLIC 134048 0 CMS_dataFinal
PUBLIC 1341d0 0 CMS_get0_eContentType
PUBLIC 134294 0 CMS_set1_eContentType
PUBLIC 134390 0 CMS_is_detached
PUBLIC 1343b8 0 CMS_set_detached
PUBLIC 134470 0 cms_Data_create
PUBLIC 1344a0 0 cms_DigestAlgorithm_set
PUBLIC 1344dc 0 cms_DigestAlgorithm_init_bio
PUBLIC 1345d8 0 cms_DigestAlgorithm_find_ctx
PUBLIC 1346b0 0 CMS_add0_CertificateChoices
PUBLIC 134788 0 CMS_add0_cert
PUBLIC 1348a4 0 CMS_add1_cert
PUBLIC 1348f0 0 CMS_add0_RevocationInfoChoice
PUBLIC 1349d0 0 CMS_add0_crl
PUBLIC 1349f0 0 CMS_add1_crl
PUBLIC 134a3c 0 CMS_get1_certs
PUBLIC 134b74 0 CMS_get1_crls
PUBLIC 134e08 0 CMS_signed_get_attr_count
PUBLIC 134e10 0 CMS_signed_get_attr_by_NID
PUBLIC 134e18 0 CMS_signed_get_attr_by_OBJ
PUBLIC 134e20 0 CMS_signed_get_attr
PUBLIC 134e28 0 CMS_signed_delete_attr
PUBLIC 134e30 0 CMS_signed_add1_attr
PUBLIC 134e48 0 CMS_signed_add1_attr_by_OBJ
PUBLIC 134e70 0 CMS_signed_add1_attr_by_NID
PUBLIC 134e98 0 CMS_signed_add1_attr_by_txt
PUBLIC 134ec0 0 CMS_signed_get0_data_by_OBJ
PUBLIC 134ec8 0 CMS_unsigned_get_attr_count
PUBLIC 134ed0 0 CMS_unsigned_get_attr_by_NID
PUBLIC 134ed8 0 CMS_unsigned_get_attr_by_OBJ
PUBLIC 134ee0 0 CMS_unsigned_get_attr
PUBLIC 134ee8 0 CMS_unsigned_delete_attr
PUBLIC 134ef0 0 CMS_unsigned_add1_attr
PUBLIC 134f08 0 CMS_unsigned_add1_attr_by_OBJ
PUBLIC 134f30 0 CMS_unsigned_add1_attr_by_NID
PUBLIC 134f58 0 CMS_unsigned_add1_attr_by_txt
PUBLIC 134f80 0 CMS_unsigned_get0_data_by_OBJ
PUBLIC 134f88 0 CMS_stream
PUBLIC 135020 0 d2i_CMS_bio
PUBLIC 135038 0 i2d_CMS_bio
PUBLIC 135050 0 PEM_read_bio_CMS
PUBLIC 13508c 0 PEM_read_CMS
PUBLIC 1350c8 0 PEM_write_bio_CMS
PUBLIC 135118 0 PEM_write_CMS
PUBLIC 135168 0 BIO_new_CMS
PUBLIC 135178 0 i2d_CMS_bio_stream
PUBLIC 13519c 0 PEM_write_bio_CMS_stream
PUBLIC 1351d0 0 SMIME_write_CMS
PUBLIC 135244 0 SMIME_read_CMS
PUBLIC 135254 0 cms_DigestedData_create
PUBLIC 1352d4 0 cms_DigestedData_init_bio
PUBLIC 1352e0 0 cms_DigestedData_do_final
PUBLIC 1353f4 0 cms_CompressedData_create
PUBLIC 1354d0 0 cms_CompressedData_init_bio
PUBLIC 13558c 0 BN_get0_nist_prime_192
PUBLIC 13559c 0 BN_get0_nist_prime_224
PUBLIC 1355b0 0 BN_get0_nist_prime_256
PUBLIC 1355c4 0 BN_get0_nist_prime_384
PUBLIC 1355d8 0 BN_get0_nist_prime_521
PUBLIC 1355ec 0 BN_nist_mod_192
PUBLIC 1359d4 0 BN_nist_mod_224
PUBLIC 135eb8 0 BN_nist_mod_256
PUBLIC 136530 0 BN_nist_mod_384
PUBLIC 136da8 0 BN_nist_mod_521
PUBLIC 1372d0 0 ec_GFp_simple_is_at_infinity
PUBLIC 1372e0 0 ec_GFp_simple_group_init
PUBLIC 137310 0 ec_GFp_simple_point_init
PUBLIC 137340 0 ec_GFp_simple_group_finish
PUBLIC 137364 0 ec_GFp_simple_point_finish
PUBLIC 137388 0 ec_GFp_simple_group_clear_finish
PUBLIC 1373ac 0 ec_GFp_simple_point_clear_finish
PUBLIC 1373d8 0 ec_GFp_simple_group_get_degree
PUBLIC 1373e0 0 ec_GFp_simple_group_get_curve
PUBLIC 137530 0 ec_GFp_simple_set_Jprojective_coordinates_GFp
PUBLIC 137718 0 ec_GFp_simple_get_Jprojective_coordinates_GFp
PUBLIC 137890 0 ec_GFp_simple_field_sqr
PUBLIC 1378a4 0 ec_GFp_simple_field_mul
PUBLIC 1378bc 0 ec_GFp_simple_group_check_discriminant
PUBLIC 137ae0 0 ec_GFp_simple_point_set_to_infinity
PUBLIC 137b00 0 ec_GFp_simple_point_get_affine_coordinates
PUBLIC 137e58 0 ec_GFp_simple_dbl
PUBLIC 13831c 0 ec_GFp_simple_group_copy
PUBLIC 138378 0 ec_GFp_simple_point_copy
PUBLIC 1383d4 0 ec_GFp_simple_group_set_curve
PUBLIC 1385b0 0 ec_GFp_simple_point_set_affine_coordinates
PUBLIC 138634 0 ec_GFp_simple_cmp
PUBLIC 138908 0 ec_GFp_simple_add
PUBLIC 138efc 0 ec_GFp_simple_invert
PUBLIC 138f3c 0 ec_GFp_simple_is_on_curve
PUBLIC 13922c 0 ec_GFp_simple_make_affine
PUBLIC 13934c 0 ec_GFp_simple_points_make_affine
PUBLIC 1398a0 0 EC_GFp_simple_method
PUBLIC 13a040 0 DSO_METHOD_dlfcn
PUBLIC 13a250 0 BIO_new_NDEF
PUBLIC 13b064 0 SMIME_read_ASN1
PUBLIC 13b6c0 0 SMIME_crlf_copy
PUBLIC 13b810 0 i2d_ASN1_bio_stream
PUBLIC 13b8d8 0 PEM_write_bio_ASN1_stream
PUBLIC 13b9b8 0 SMIME_write_ASN1
PUBLIC 13c200 0 SMIME_text
PUBLIC 13c9e4 0 BIO_f_asn1
PUBLIC 13c9f4 0 BIO_asn1_set_prefix
PUBLIC 13ca18 0 BIO_asn1_get_prefix
PUBLIC 13ca50 0 BIO_asn1_set_suffix
PUBLIC 13ca74 0 BIO_asn1_get_suffix
PUBLIC 13caac 0 __aeabi_uidiv
PUBLIC 13cb54 0 __aeabi_uidivmod
PUBLIC 13cb74 0 __aeabi_idiv
PUBLIC 13cc50 0 __aeabi_idivmod
PUBLIC 13cc70 0 __aeabi_drsub
PUBLIC 13cc78 0 __aeabi_dsub
PUBLIC 13cc7c 0 __aeabi_dadd
PUBLIC 13cf28 0 __floatunsidf
PUBLIC 13cf4c 0 __aeabi_i2d
PUBLIC 13cf74 0 __extendsfdf2
PUBLIC 13cfb4 0 __floatundidf
PUBLIC 13cfc8 0 __floatdidf
PUBLIC 13d028 0 __aeabi_dmul
PUBLIC 13d294 0 __divdf3
PUBLIC 13d498 0 __gtdf2
PUBLIC 13d4a0 0 __ltdf2
PUBLIC 13d4a8 0 __cmpdf2
PUBLIC 13d530 0 __aeabi_cdrcmple
PUBLIC 13d54c 0 __aeabi_cdcmpeq
PUBLIC 13d560 0 __aeabi_dcmpeq
PUBLIC 13d574 0 __aeabi_dcmplt
PUBLIC 13d588 0 __aeabi_dcmple
PUBLIC 13d59c 0 __aeabi_dcmpge
PUBLIC 13d5b0 0 __aeabi_dcmpgt
PUBLIC 13d5c4 0 __aeabi_d2iz
PUBLIC 13d620 0 __aeabi_uldivmod
PUBLIC 13d65c 0 __aeabi_idiv0
PUBLIC 13d66c 0 __gnu_ldivmod_helper
PUBLIC 13d6a8 0 __gnu_uldivmod_helper
PUBLIC 13db1c 0 _Unwind_GetCFA
PUBLIC 13db24 0 __gnu_Unwind_RaiseException
PUBLIC 13dbc8 0 __gnu_Unwind_ForcedUnwind
PUBLIC 13dbe4 0 __gnu_Unwind_Resume
PUBLIC 13dc58 0 __gnu_Unwind_Resume_or_Rethrow
PUBLIC 13dc78 0 _Unwind_Complete
PUBLIC 13dc7c 0 _Unwind_DeleteException
PUBLIC 13dc9c 0 _Unwind_VRS_Get
PUBLIC 13dd20 0 _Unwind_VRS_Set
PUBLIC 13dda8 0 __gnu_Unwind_Backtrace
PUBLIC 13e260 0 __aeabi_unwind_cpp_pr0
PUBLIC 13e268 0 __aeabi_unwind_cpp_pr1
PUBLIC 13e270 0 __aeabi_unwind_cpp_pr2
PUBLIC 13e278 0 _Unwind_VRS_Pop
PUBLIC 13e5d0 0 restore_core_regs
PUBLIC 13e5e4 0 __gnu_Unwind_Restore_VFP
PUBLIC 13e5ec 0 __gnu_Unwind_Save_VFP
PUBLIC 13e5f4 0 __gnu_Unwind_Restore_VFP_D
PUBLIC 13e5fc 0 __gnu_Unwind_Save_VFP_D
PUBLIC 13e604 0 __gnu_Unwind_Restore_VFP_D_16_to_31
PUBLIC 13e60c 0 __gnu_Unwind_Save_VFP_D_16_to_31
PUBLIC 13e614 0 __gnu_Unwind_Restore_WMMXD
PUBLIC 13e658 0 __gnu_Unwind_Save_WMMXD
PUBLIC 13e69c 0 __gnu_Unwind_Restore_WMMXC
PUBLIC 13e6b0 0 __gnu_Unwind_Save_WMMXC
PUBLIC 13e6c4 0 ___Unwind_RaiseException
PUBLIC 13e6e8 0 ___Unwind_Resume
PUBLIC 13e70c 0 ___Unwind_Resume_or_Rethrow
PUBLIC 13e730 0 ___Unwind_ForcedUnwind
PUBLIC 13e754 0 ___Unwind_Backtrace
PUBLIC 13e804 0 __gnu_unwind_execute
PUBLIC 13eb80 0 __gnu_unwind_frame
PUBLIC 13ebc0 0 _Unwind_GetRegionStart
PUBLIC 13ebd0 0 _Unwind_GetLanguageSpecificData
PUBLIC 13ebec 0 _Unwind_GetDataRelBase
PUBLIC 13ebf4 0 _Unwind_GetTextRelBase
PUBLIC 13ebfc 0 __divdi3
PUBLIC 13f094 0 __udivdi3
STACK CFI INIT 13caac a8 .cfa: sp 0 + .ra: lr
STACK CFI INIT 13cb74 dc .cfa: sp 0 + .ra: lr
STACK CFI INIT 13d66c 3c .cfa: sp 0 + .ra: lr
STACK CFI 13d670 .cfa: sp 24 + .ra: .cfa -4 + ^ r4: .cfa -24 + ^ r5: .cfa -20 + ^ r6: .cfa -16 + ^ r7: .cfa -12 + ^ r8: .cfa -8 + ^
STACK CFI INIT 13d6a8 3c .cfa: sp 0 + .ra: lr
STACK CFI 13d6ac .cfa: sp 24 + .ra: .cfa -4 + ^ r4: .cfa -24 + ^ r5: .cfa -20 + ^ r6: .cfa -16 + ^ r7: .cfa -12 + ^ r8: .cfa -8 + ^
STACK CFI INIT 13d6e4 18 .cfa: sp 0 + .ra: lr
STACK CFI INIT 13d6fc ac .cfa: sp 0 + .ra: lr
STACK CFI 13d700 .cfa: sp 48 + .ra: .cfa -4 + ^ r0: .cfa -48 + ^ r1: .cfa -44 + ^ r10: .cfa -12 + ^ r11: .cfa -8 + ^ r2: .cfa -40 + ^ r4: .cfa -36 + ^ r5: .cfa -32 + ^ r6: .cfa -28 + ^ r7: .cfa -24 + ^ r8: .cfa -20 + ^ r9: .cfa -16 + ^
STACK CFI INIT 13d7a8 50 .cfa: sp 0 + .ra: lr
STACK CFI INIT 13d7f8 110 .cfa: sp 0 + .ra: lr
STACK CFI 13d800 .cfa: sp 24 + .ra: .cfa -4 + ^ r0: .cfa -24 + ^ r1: .cfa -20 + ^ r2: .cfa -16 + ^ r4: .cfa -12 + ^ r5: .cfa -8 + ^
STACK CFI INIT 13d908 6c .cfa: sp 0 + .ra: lr
STACK CFI 13d910 .cfa: sp 8 + .ra: .cfa -4 + ^ r4: .cfa -8 + ^
STACK CFI INIT 13d974 14 .cfa: sp 0 + .ra: lr
STACK CFI INIT 13d988 8 .cfa: sp 0 + .ra: lr
STACK CFI INIT 13d990 4 .cfa: sp 0 + .ra: lr
STACK CFI INIT 13d994 64 .cfa: sp 0 + .ra: lr
STACK CFI 13d998 .cfa: sp 16 + .ra: .cfa -4 + ^ r4: .cfa -16 + ^ r5: .cfa -12 + ^ r6: .cfa -8 + ^
STACK CFI INIT 13d9f8 124 .cfa: sp 0 + .ra: lr
STACK CFI 13d9fc .cfa: sp 36 + .ra: .cfa -4 + ^ r10: .cfa -12 + ^ r11: .cfa -8 + ^ r4: .cfa -36 + ^ r5: .cfa -32 + ^ r6: .cfa -28 + ^ r7: .cfa -24 + ^ r8: .cfa -20 + ^ r9: .cfa -16 + ^
STACK CFI 13da18 .cfa: sp 1008 +
STACK CFI INIT 13db1c 8 .cfa: sp 0 + .ra: lr
STACK CFI INIT 13db24 a4 .cfa: sp 0 + .ra: lr
STACK CFI 13db28 .cfa: sp 20 + .ra: .cfa -4 + ^ r4: .cfa -20 + ^ r5: .cfa -16 + ^ r6: .cfa -12 + ^ r7: .cfa -8 + ^
STACK CFI 13db44 .cfa: sp 504 +
STACK CFI INIT 13dbc8 1c .cfa: sp 0 + .ra: lr
STACK CFI INIT 13dbe4 74 .cfa: sp 0 + .ra: lr
STACK CFI 13dbe8 .cfa: sp 16 + .ra: .cfa -4 + ^ r4: .cfa -16 + ^ r5: .cfa -12 + ^ r6: .cfa -8 + ^
STACK CFI INIT 13dc58 20 .cfa: sp 0 + .ra: lr
STACK CFI INIT 13dc78 4 .cfa: sp 0 + .ra: lr
STACK CFI INIT 13dc7c 20 .cfa: sp 0 + .ra: lr
STACK CFI 13dc80 .cfa: sp 8 + .ra: .cfa -4 + ^ r3: .cfa -8 + ^
STACK CFI INIT 13dc9c 5c .cfa: sp 0 + .ra: lr
STACK CFI INIT 13dcf8 28 .cfa: sp 0 + .ra: lr
STACK CFI 13dcfc .cfa: sp 24 + .ra: .cfa -4 + ^ r0: .cfa -24 + ^ r1: .cfa -20 + ^ r2: .cfa -16 + ^ r3: .cfa -12 + ^ r4: .cfa -8 + ^
STACK CFI INIT 13dd20 5c .cfa: sp 0 + .ra: lr
STACK CFI INIT 13dd7c 2c .cfa: sp 0 + .ra: lr
STACK CFI 13dd80 .cfa: sp 24 + .ra: .cfa -4 + ^ r0: .cfa -24 + ^ r1: .cfa -20 + ^ r2: .cfa -16 + ^ r3: .cfa -12 + ^ r4: .cfa -8 + ^
STACK CFI INIT 13dda8 c4 .cfa: sp 0 + .ra: lr
STACK CFI 13ddac .cfa: sp 24 + .ra: .cfa -4 + ^ r4: .cfa -24 + ^ r5: .cfa -20 + ^ r6: .cfa -16 + ^ r7: .cfa -12 + ^ r8: .cfa -8 + ^
STACK CFI 13ddc8 .cfa: sp 592 +
STACK CFI INIT 13de6c 3f4 .cfa: sp 0 + .ra: lr
STACK CFI 13de70 .cfa: sp 36 + .ra: .cfa -4 + ^ r10: .cfa -12 + ^ r11: .cfa -8 + ^ r4: .cfa -36 + ^ r5: .cfa -32 + ^ r6: .cfa -28 + ^ r7: .cfa -24 + ^ r8: .cfa -20 + ^ r9: .cfa -16 + ^
STACK CFI 13de7c .cfa: sp 72 +
STACK CFI INIT 13e260 8 .cfa: sp 0 + .ra: lr
STACK CFI INIT 13e268 8 .cfa: sp 0 + .ra: lr
STACK CFI INIT 13e270 8 .cfa: sp 0 + .ra: lr
STACK CFI INIT 13e278 358 .cfa: sp 0 + .ra: lr
STACK CFI 13e27c .cfa: sp 28 + .ra: .cfa -4 + ^ r4: .cfa -28 + ^ r5: .cfa -24 + ^ r6: .cfa -20 + ^ r7: .cfa -16 + ^ r8: .cfa -12 + ^ r9: .cfa -8 + ^
STACK CFI 13e284 .cfa: sp 296 +
STACK CFI INIT 13e778 60 .cfa: sp 0 + .ra: lr
STACK CFI INIT 13e7d8 28 .cfa: sp 0 + .ra: lr
STACK CFI 13e7dc .cfa: sp 24 + .ra: .cfa -4 + ^ r0: .cfa -24 + ^ r1: .cfa -20 + ^ r2: .cfa -16 + ^ r3: .cfa -12 + ^ r4: .cfa -8 + ^
STACK CFI INIT 13e800 4 .cfa: sp 0 + .ra: lr
STACK CFI INIT 13e804 37c .cfa: sp 0 + .ra: lr
STACK CFI 13e808 .cfa: sp 48 + .ra: .cfa -4 + ^ r0: .cfa -48 + ^ r1: .cfa -44 + ^ r10: .cfa -8 + ^ r2: .cfa -40 + ^ r3: .cfa -36 + ^ r4: .cfa -32 + ^ r5: .cfa -28 + ^ r6: .cfa -24 + ^ r7: .cfa -20 + ^ r8: .cfa -16 + ^ r9: .cfa -12 + ^
STACK CFI INIT 13eb80 40 .cfa: sp 0 + .ra: lr
STACK CFI 13eb84 .cfa: sp 24 + .ra: .cfa -4 + ^ r0: .cfa -24 + ^ r1: .cfa -20 + ^ r2: .cfa -16 + ^ r3: .cfa -12 + ^ r4: .cfa -8 + ^
STACK CFI INIT 13ebc0 10 .cfa: sp 0 + .ra: lr
STACK CFI 13ebc4 .cfa: sp 8 + .ra: .cfa -4 + ^ r3: .cfa -8 + ^
STACK CFI INIT 13ebd0 1c .cfa: sp 0 + .ra: lr
STACK CFI 13ebd4 .cfa: sp 8 + .ra: .cfa -4 + ^ r3: .cfa -8 + ^
STACK CFI INIT 13ebec 8 .cfa: sp 0 + .ra: lr
STACK CFI 13ebf0 .cfa: sp 8 + .ra: .cfa -4 + ^ r3: .cfa -8 + ^
STACK CFI INIT 13ebf4 8 .cfa: sp 0 + .ra: lr
STACK CFI 13ebf8 .cfa: sp 8 + .ra: .cfa -4 + ^ r3: .cfa -8 + ^
STACK CFI INIT 13ebfc 498 .cfa: sp 0 + .ra: lr
STACK CFI 13ec04 .cfa: sp 36 + .ra: .cfa -4 + ^ r10: .cfa -12 + ^ r11: .cfa -8 + ^ r4: .cfa -36 + ^ r5: .cfa -32 + ^ r6: .cfa -28 + ^ r7: .cfa -24 + ^ r8: .cfa -20 + ^ r9: .cfa -16 + ^
STACK CFI 13ec0c .cfa: sp 56 +
STACK CFI INIT 13f094 404 .cfa: sp 0 + .ra: lr
STACK CFI 13f09c .cfa: sp 48 + .ra: .cfa -4 + ^ r0: .cfa -48 + ^ r1: .cfa -44 + ^ r10: .cfa -12 + ^ r11: .cfa -8 + ^ r2: .cfa -40 + ^ r4: .cfa -36 + ^ r5: .cfa -32 + ^ r6: .cfa -28 + ^ r7: .cfa -24 + ^ r8: .cfa -20 + ^ r9: .cfa -16 + ^
