MODULE Linux arm 4ECB690304D8382CBB8C611F89A30E500 libgif.so
FUNC 5568 18 0 selfrel_offset31
FUNC 5580 ac 0 search_EIT_table
FUNC 562c 50 0 __gnu_unwind_get_pr_addr
FUNC 567c 10c 0 get_eit_entry
FUNC 5788 6c 0 restore_non_core_regs
FUNC 57f4 14 0 _Unwind_decode_typeinfo_ptr
FUNC 5808 8 0 __gnu_unwind_24bit
FUNC 5810 4 0 _Unwind_DebugHook
FUNC 5814 64 0 unwind_phase2
FUNC 5878 124 0 unwind_phase2_forced
FUNC 599c 8 0 _Unwind_GetCFA
FUNC 59a4 a4 0 __gnu_Unwind_RaiseException
FUNC 5a48 1c 0 __gnu_Unwind_ForcedUnwind
FUNC 5a64 74 0 __gnu_Unwind_Resume
FUNC 5ad8 20 0 __gnu_Unwind_Resume_or_Rethrow
FUNC 5af8 4 0 _Unwind_Complete
FUNC 5afc 20 0 _Unwind_DeleteException
FUNC 5b1c 5c 0 _Unwind_VRS_Get
FUNC 5b78 28 0 _Unwind_GetGR
FUNC 5ba0 5c 0 _Unwind_VRS_Set
FUNC 5bfc 2c 0 _Unwind_SetGR
FUNC 5c28 c4 0 __gnu_Unwind_Backtrace
FUNC 5cec 3f0 0 __gnu_unwind_pr_common
FUNC 60dc 8 0 __aeabi_unwind_cpp_pr0
FUNC 60e4 8 0 __aeabi_unwind_cpp_pr1
FUNC 60ec 8 0 __aeabi_unwind_cpp_pr2
FUNC 60f4 34c 0 _Unwind_VRS_Pop
FUNC 65e8 60 0 next_unwind_byte
FUNC 6648 28 0 _Unwind_GetGR
FUNC 6670 4 0 unwind_UCB_from_context
FUNC 6674 37c 0 __gnu_unwind_execute
FUNC 69f0 40 0 __gnu_unwind_frame
FUNC 6a30 10 0 _Unwind_GetRegionStart
FUNC 6a40 1c 0 _Unwind_GetLanguageSpecificData
FUNC 6a5c 8 0 _Unwind_GetDataRelBase
FUNC 6a64 8 0 _Unwind_GetTextRelBase
PUBLIC 1e6c 0 DGifGetScreenDesc
PUBLIC 2048 0 DGifOpenFileHandle
PUBLIC 21ac 0 DGifOpenFileName
PUBLIC 21e8 0 DGifOpen
PUBLIC 2364 0 DGifGetRecordType
PUBLIC 242c 0 DGifGetImageDesc
PUBLIC 2794 0 DGifGetExtensionNext
PUBLIC 285c 0 DGifGetExtension
PUBLIC 28f4 0 DGifExtensionToGCB
PUBLIC 2948 0 DGifSavedExtensionToGCB
PUBLIC 29c4 0 DGifCloseFile
PUBLIC 2ad4 0 DGifGetCodeNext
PUBLIC 2ba4 0 DGifGetLine
PUBLIC 2c44 0 DGifGetPixel
PUBLIC 2ce0 0 DGifGetCode
PUBLIC 2d18 0 DGifGetLZCodes
PUBLIC 2dd0 0 DGifSlurp
PUBLIC 33b8 0 EGifOpenFileHandle
PUBLIC 3474 0 EGifOpenFileName
PUBLIC 34d4 0 EGifOpen
PUBLIC 3588 0 EGifGetGifVersion
PUBLIC 3684 0 EGifSetGifVersion
PUBLIC 3694 0 EGifPutScreenDesc
PUBLIC 3858 0 EGifPutImageDesc
PUBLIC 3af0 0 EGifPutLine
PUBLIC 3b6c 0 EGifPutPixel
PUBLIC 3be8 0 EGifPutExtensionLeader
PUBLIC 3c2c 0 EGifPutExtensionBlock
PUBLIC 3c84 0 EGifPutExtensionTrailer
PUBLIC 3d60 0 EGifPutExtension
PUBLIC 3dec 0 EGifPutComment
PUBLIC 3e90 0 EGifGCBToExtension
PUBLIC 3ef4 0 EGifGCBToSavedExtension
PUBLIC 3fa8 0 EGifPutCodeNext
PUBLIC 4010 0 EGifPutCode
PUBLIC 4038 0 EGifCloseFile
PUBLIC 412c 0 EGifSpew
PUBLIC 42e8 0 GifDrawText8x8
PUBLIC 4364 0 GifDrawBox
PUBLIC 43dc 0 GifDrawRectangle
PUBLIC 442c 0 GifDrawBoxedText8x8
PUBLIC 4584 0 _ClearHashTable
PUBLIC 4590 0 _InitHashTable
PUBLIC 45b0 0 _InsertHashTable
PUBLIC 45ec 0 _ExistsHashTable
PUBLIC 4634 0 GifBitSize
PUBLIC 4658 0 GifMakeMapObject
PUBLIC 46f0 0 GifFreeMapObject
PUBLIC 4710 0 GifUnionColorMap
PUBLIC 48e0 0 GifApplyTranslation
PUBLIC 4918 0 GifAddExtensionBlock
PUBLIC 49c4 0 GifFreeExtensions
PUBLIC 4a18 0 FreeLastSavedImage
PUBLIC 4a7c 0 GifMakeSavedImage
PUBLIC 4bac 0 GifFreeSavedImages
PUBLIC 4c28 0 GifErrorString
PUBLIC 4ed0 0 GifQuantizeBuffer
PUBLIC 545c 0 __aeabi_idiv
PUBLIC 5538 0 __aeabi_idivmod
PUBLIC 5558 0 __aeabi_idiv0
PUBLIC 599c 0 _Unwind_GetCFA
PUBLIC 59a4 0 __gnu_Unwind_RaiseException
PUBLIC 5a48 0 __gnu_Unwind_ForcedUnwind
PUBLIC 5a64 0 __gnu_Unwind_Resume
PUBLIC 5ad8 0 __gnu_Unwind_Resume_or_Rethrow
PUBLIC 5af8 0 _Unwind_Complete
PUBLIC 5afc 0 _Unwind_DeleteException
PUBLIC 5b1c 0 _Unwind_VRS_Get
PUBLIC 5ba0 0 _Unwind_VRS_Set
PUBLIC 5c28 0 __gnu_Unwind_Backtrace
PUBLIC 60dc 0 __aeabi_unwind_cpp_pr0
PUBLIC 60e4 0 __aeabi_unwind_cpp_pr1
PUBLIC 60ec 0 __aeabi_unwind_cpp_pr2
PUBLIC 60f4 0 _Unwind_VRS_Pop
PUBLIC 6440 0 restore_core_regs
PUBLIC 6454 0 __gnu_Unwind_Restore_VFP
PUBLIC 645c 0 __gnu_Unwind_Save_VFP
PUBLIC 6464 0 __gnu_Unwind_Restore_VFP_D
PUBLIC 646c 0 __gnu_Unwind_Save_VFP_D
PUBLIC 6474 0 __gnu_Unwind_Restore_VFP_D_16_to_31
PUBLIC 647c 0 __gnu_Unwind_Save_VFP_D_16_to_31
PUBLIC 6484 0 __gnu_Unwind_Restore_WMMXD
PUBLIC 64c8 0 __gnu_Unwind_Save_WMMXD
PUBLIC 650c 0 __gnu_Unwind_Restore_WMMXC
PUBLIC 6520 0 __gnu_Unwind_Save_WMMXC
PUBLIC 6534 0 ___Unwind_RaiseException
PUBLIC 6558 0 ___Unwind_Resume
PUBLIC 657c 0 ___Unwind_Resume_or_Rethrow
PUBLIC 65a0 0 ___Unwind_ForcedUnwind
PUBLIC 65c4 0 ___Unwind_Backtrace
PUBLIC 6674 0 __gnu_unwind_execute
PUBLIC 69f0 0 __gnu_unwind_frame
PUBLIC 6a30 0 _Unwind_GetRegionStart
PUBLIC 6a40 0 _Unwind_GetLanguageSpecificData
PUBLIC 6a5c 0 _Unwind_GetDataRelBase
PUBLIC 6a64 0 _Unwind_GetTextRelBase
STACK CFI INIT 545c dc .cfa: sp 0 + .ra: lr
STACK CFI INIT 5568 18 .cfa: sp 0 + .ra: lr
STACK CFI INIT 5580 ac .cfa: sp 0 + .ra: lr
STACK CFI 5584 .cfa: sp 48 + .ra: .cfa -4 + ^ r0: .cfa -48 + ^ r1: .cfa -44 + ^ r10: .cfa -12 + ^ r11: .cfa -8 + ^ r2: .cfa -40 + ^ r4: .cfa -36 + ^ r5: .cfa -32 + ^ r6: .cfa -28 + ^ r7: .cfa -24 + ^ r8: .cfa -20 + ^ r9: .cfa -16 + ^
STACK CFI INIT 562c 50 .cfa: sp 0 + .ra: lr
STACK CFI INIT 567c 10c .cfa: sp 0 + .ra: lr
STACK CFI 5684 .cfa: sp 24 + .ra: .cfa -4 + ^ r0: .cfa -24 + ^ r1: .cfa -20 + ^ r2: .cfa -16 + ^ r4: .cfa -12 + ^ r5: .cfa -8 + ^
STACK CFI INIT 5788 6c .cfa: sp 0 + .ra: lr
STACK CFI 5790 .cfa: sp 8 + .ra: .cfa -4 + ^ r4: .cfa -8 + ^
STACK CFI INIT 57f4 14 .cfa: sp 0 + .ra: lr
STACK CFI INIT 5808 8 .cfa: sp 0 + .ra: lr
STACK CFI INIT 5810 4 .cfa: sp 0 + .ra: lr
STACK CFI INIT 5814 64 .cfa: sp 0 + .ra: lr
STACK CFI 5818 .cfa: sp 16 + .ra: .cfa -4 + ^ r4: .cfa -16 + ^ r5: .cfa -12 + ^ r6: .cfa -8 + ^
STACK CFI INIT 5878 124 .cfa: sp 0 + .ra: lr
STACK CFI 587c .cfa: sp 36 + .ra: .cfa -4 + ^ r10: .cfa -12 + ^ r11: .cfa -8 + ^ r4: .cfa -36 + ^ r5: .cfa -32 + ^ r6: .cfa -28 + ^ r7: .cfa -24 + ^ r8: .cfa -20 + ^ r9: .cfa -16 + ^
STACK CFI 5898 .cfa: sp 1008 +
STACK CFI INIT 599c 8 .cfa: sp 0 + .ra: lr
STACK CFI INIT 59a4 a4 .cfa: sp 0 + .ra: lr
STACK CFI 59ac .cfa: sp 20 + .ra: .cfa -4 + ^ r4: .cfa -20 + ^ r5: .cfa -16 + ^ r6: .cfa -12 + ^ r7: .cfa -8 + ^
STACK CFI 59c0 .cfa: sp 504 +
STACK CFI INIT 5a48 1c .cfa: sp 0 + .ra: lr
STACK CFI INIT 5a64 74 .cfa: sp 0 + .ra: lr
STACK CFI 5a68 .cfa: sp 16 + .ra: .cfa -4 + ^ r4: .cfa -16 + ^ r5: .cfa -12 + ^ r6: .cfa -8 + ^
STACK CFI INIT 5ad8 20 .cfa: sp 0 + .ra: lr
STACK CFI INIT 5af8 4 .cfa: sp 0 + .ra: lr
STACK CFI INIT 5afc 20 .cfa: sp 0 + .ra: lr
STACK CFI 5b00 .cfa: sp 8 + .ra: .cfa -4 + ^ r3: .cfa -8 + ^
STACK CFI INIT 5b1c 5c .cfa: sp 0 + .ra: lr
STACK CFI INIT 5b78 28 .cfa: sp 0 + .ra: lr
STACK CFI 5b7c .cfa: sp 24 + .ra: .cfa -4 + ^ r0: .cfa -24 + ^ r1: .cfa -20 + ^ r2: .cfa -16 + ^ r3: .cfa -12 + ^ r4: .cfa -8 + ^
STACK CFI INIT 5ba0 5c .cfa: sp 0 + .ra: lr
STACK CFI INIT 5bfc 2c .cfa: sp 0 + .ra: lr
STACK CFI 5c00 .cfa: sp 24 + .ra: .cfa -4 + ^ r0: .cfa -24 + ^ r1: .cfa -20 + ^ r2: .cfa -16 + ^ r3: .cfa -12 + ^ r4: .cfa -8 + ^
STACK CFI INIT 5c28 c4 .cfa: sp 0 + .ra: lr
STACK CFI 5c30 .cfa: sp 24 + .ra: .cfa -4 + ^ r4: .cfa -24 + ^ r5: .cfa -20 + ^ r6: .cfa -16 + ^ r7: .cfa -12 + ^ r8: .cfa -8 + ^
STACK CFI 5c44 .cfa: sp 592 +
STACK CFI INIT 5cec 3f0 .cfa: sp 0 + .ra: lr
STACK CFI 5cf0 .cfa: sp 36 + .ra: .cfa -4 + ^ r10: .cfa -12 + ^ r11: .cfa -8 + ^ r4: .cfa -36 + ^ r5: .cfa -32 + ^ r6: .cfa -28 + ^ r7: .cfa -24 + ^ r8: .cfa -20 + ^ r9: .cfa -16 + ^
STACK CFI 5cfc .cfa: sp 72 +
STACK CFI INIT 60dc 8 .cfa: sp 0 + .ra: lr
STACK CFI INIT 60e4 8 .cfa: sp 0 + .ra: lr
STACK CFI INIT 60ec 8 .cfa: sp 0 + .ra: lr
STACK CFI INIT 60f4 34c .cfa: sp 0 + .ra: lr
STACK CFI 60f8 .cfa: sp 28 + .ra: .cfa -4 + ^ r4: .cfa -28 + ^ r5: .cfa -24 + ^ r6: .cfa -20 + ^ r7: .cfa -16 + ^ r8: .cfa -12 + ^ r9: .cfa -8 + ^
STACK CFI 6100 .cfa: sp 296 +
STACK CFI INIT 65e8 60 .cfa: sp 0 + .ra: lr
STACK CFI INIT 6648 28 .cfa: sp 0 + .ra: lr
STACK CFI 664c .cfa: sp 24 + .ra: .cfa -4 + ^ r0: .cfa -24 + ^ r1: .cfa -20 + ^ r2: .cfa -16 + ^ r3: .cfa -12 + ^ r4: .cfa -8 + ^
STACK CFI INIT 6670 4 .cfa: sp 0 + .ra: lr
STACK CFI INIT 6674 37c .cfa: sp 0 + .ra: lr
STACK CFI 6678 .cfa: sp 48 + .ra: .cfa -4 + ^ r0: .cfa -48 + ^ r1: .cfa -44 + ^ r10: .cfa -8 + ^ r2: .cfa -40 + ^ r3: .cfa -36 + ^ r4: .cfa -32 + ^ r5: .cfa -28 + ^ r6: .cfa -24 + ^ r7: .cfa -20 + ^ r8: .cfa -16 + ^ r9: .cfa -12 + ^
STACK CFI INIT 69f0 40 .cfa: sp 0 + .ra: lr
STACK CFI 69f4 .cfa: sp 24 + .ra: .cfa -4 + ^ r0: .cfa -24 + ^ r1: .cfa -20 + ^ r2: .cfa -16 + ^ r3: .cfa -12 + ^ r4: .cfa -8 + ^
STACK CFI INIT 6a30 10 .cfa: sp 0 + .ra: lr
STACK CFI 6a34 .cfa: sp 8 + .ra: .cfa -4 + ^ r3: .cfa -8 + ^
STACK CFI INIT 6a40 1c .cfa: sp 0 + .ra: lr
STACK CFI 6a44 .cfa: sp 8 + .ra: .cfa -4 + ^ r3: .cfa -8 + ^
STACK CFI INIT 6a5c 8 .cfa: sp 0 + .ra: lr
STACK CFI 6a60 .cfa: sp 8 + .ra: .cfa -4 + ^ r3: .cfa -8 + ^
STACK CFI INIT 6a64 8 .cfa: sp 0 + .ra: lr
STACK CFI 6a68 .cfa: sp 8 + .ra: .cfa -4 + ^ r3: .cfa -8 + ^
