MODULE Linux arm 88D8EB044B8BF83D5C5EFE0C57BA8CE40 libxbvorbisfile.so
FUNC 5420 44 0 __fixdfdi
FUNC 5464 68 0 __fixunsdfdi
PUBLIC 2cdc 0 ov_clear
PUBLIC 2f78 0 ov_halfrate_p
PUBLIC 2f90 0 ov_test_callbacks
PUBLIC 2fbc 0 ov_test
PUBLIC 300c 0 ov_streams
PUBLIC 3014 0 ov_seekable
PUBLIC 301c 0 ov_bitrate_instant
PUBLIC 3094 0 ov_serialnumber
PUBLIC 30e0 0 ov_raw_total
PUBLIC 3180 0 ov_pcm_total
PUBLIC 3214 0 ov_raw_seek
PUBLIC 377c 0 ov_open_callbacks
PUBLIC 3814 0 ov_open
PUBLIC 3864 0 ov_fopen
PUBLIC 38b8 0 ov_test_open
PUBLIC 3914 0 ov_pcm_seek_page
PUBLIC 4050 0 ov_pcm_seek
PUBLIC 4390 0 ov_halfrate
PUBLIC 4440 0 ov_time_total
PUBLIC 4508 0 ov_bitrate
PUBLIC 467c 0 ov_time_seek
PUBLIC 4778 0 ov_time_seek_page
PUBLIC 4870 0 ov_raw_tell
PUBLIC 4890 0 ov_pcm_tell
PUBLIC 48b0 0 ov_time_tell
PUBLIC 49b8 0 ov_info
PUBLIC 4d0c 0 ov_comment
PUBLIC 4d5c 0 ov_read_filter
PUBLIC 50f4 0 ov_read
PUBLIC 5128 0 ov_read_float
PUBLIC 51f8 0 ov_crosslap
PUBLIC 5394 0 ov_raw_seek_lap
PUBLIC 53b4 0 ov_pcm_seek_lap
PUBLIC 53d4 0 ov_pcm_seek_page_lap
PUBLIC 53f4 0 ov_time_seek_lap
PUBLIC 5408 0 ov_time_seek_page_lap
PUBLIC 5420 0 __aeabi_d2lz
PUBLIC 5464 0 __aeabi_d2ulz
PUBLIC 54cc 0 __aeabi_dmul
PUBLIC 5738 0 __divdf3
PUBLIC 593c 0 __gtdf2
PUBLIC 5944 0 __ltdf2
PUBLIC 594c 0 __cmpdf2
PUBLIC 59d4 0 __aeabi_cdrcmple
PUBLIC 59f0 0 __aeabi_cdcmpeq
PUBLIC 5a04 0 __aeabi_dcmpeq
PUBLIC 5a18 0 __aeabi_dcmplt
PUBLIC 5a2c 0 __aeabi_dcmple
PUBLIC 5a40 0 __aeabi_dcmpge
PUBLIC 5a54 0 __aeabi_dcmpgt
PUBLIC 5a68 0 __aeabi_d2uiz
STACK CFI INIT 5420 44 .cfa: sp 0 + .ra: lr
STACK CFI 5424 .cfa: sp 16 + .ra: .cfa -4 + ^ r3: .cfa -16 + ^ r4: .cfa -12 + ^ r5: .cfa -8 + ^
STACK CFI INIT 5464 68 .cfa: sp 0 + .ra: lr
STACK CFI 5468 .cfa: sp 16 + .ra: .cfa -4 + ^ r4: .cfa -16 + ^ r5: .cfa -12 + ^ r6: .cfa -8 + ^
